
STM32F103CBT6_FOC.elf:     file format elf32-littlearm

Sections:
Idx Name          Size      VMA       LMA       File off  Algn
  0 .isr_vector   0000010c  08000000  08000000  00001000  2**0
                  CONTENTS, ALLOC, LOAD, READONLY, DATA
  1 .text         00007648  0800010c  0800010c  0000110c  2**2
                  CONTENTS, ALLOC, LOAD, READONLY, CODE
  2 .rodata       000000e4  08007754  08007754  00008754  2**2
                  CONTENTS, ALLOC, LOAD, READONLY, DATA
  3 .ARM.extab    00000000  08007838  08007838  00009040  2**0
                  CONTENTS, READONLY
  4 .ARM          00000008  08007838  08007838  00008838  2**2
                  CONTENTS, ALLOC, LOAD, READONLY, DATA
  5 .preinit_array 00000000  08007840  08007840  00009040  2**0
                  CONTENTS, ALLOC, LOAD, DATA
  6 .init_array   00000004  08007840  08007840  00008840  2**2
                  CONTENTS, ALLOC, LOAD, READONLY, DATA
  7 .fini_array   00000004  08007844  08007844  00008844  2**2
                  CONTENTS, ALLOC, LOAD, READONLY, DATA
  8 .data         00000040  20000000  08007848  00009000  2**2
                  CONTENTS, ALLOC, LOAD, DATA
  9 .bss          00000678  20000040  08007888  00009040  2**2
                  ALLOC
 10 ._user_heap_stack 00000600  200006b8  08007888  000096b8  2**0
                  ALLOC
 11 .ARM.attributes 00000029  00000000  00000000  00009040  2**0
                  CONTENTS, READONLY
 12 .debug_info   00012fa9  00000000  00000000  00009069  2**0
                  CONTENTS, READONLY, DEBUGGING, OCTETS
 13 .debug_abbrev 000034fb  00000000  00000000  0001c012  2**0
                  CONTENTS, READONLY, DEBUGGING, OCTETS
 14 .debug_aranges 00000cb8  00000000  00000000  0001f510  2**3
                  CONTENTS, READONLY, DEBUGGING, OCTETS
 15 .debug_rnglists 00000a21  00000000  00000000  000201c8  2**0
                  CONTENTS, READONLY, DEBUGGING, OCTETS
 16 .debug_macro  0001a355  00000000  00000000  00020be9  2**0
                  CONTENTS, READONLY, DEBUGGING, OCTETS
 17 .debug_line   00012a5f  00000000  00000000  0003af3e  2**0
                  CONTENTS, READONLY, DEBUGGING, OCTETS
 18 .debug_str    000943d3  00000000  00000000  0004d99d  2**0
                  CONTENTS, READONLY, DEBUGGING, OCTETS
 19 .comment      00000043  00000000  00000000  000e1d70  2**0
                  CONTENTS, READONLY
 20 .debug_frame  00003318  00000000  00000000  000e1db4  2**2
                  CONTENTS, READONLY, DEBUGGING, OCTETS
 21 .debug_line_str 00000067  00000000  00000000  000e50cc  2**0
                  CONTENTS, READONLY, DEBUGGING, OCTETS

Disassembly of section .text:

0800010c <__do_global_dtors_aux>:
 800010c:	b510      	push	{r4, lr}
 800010e:	4c05      	ldr	r4, [pc, #20]	@ (8000124 <__do_global_dtors_aux+0x18>)
 8000110:	7823      	ldrb	r3, [r4, #0]
 8000112:	b933      	cbnz	r3, 8000122 <__do_global_dtors_aux+0x16>
 8000114:	4b04      	ldr	r3, [pc, #16]	@ (8000128 <__do_global_dtors_aux+0x1c>)
 8000116:	b113      	cbz	r3, 800011e <__do_global_dtors_aux+0x12>
 8000118:	4804      	ldr	r0, [pc, #16]	@ (800012c <__do_global_dtors_aux+0x20>)
 800011a:	f3af 8000 	nop.w
 800011e:	2301      	movs	r3, #1
 8000120:	7023      	strb	r3, [r4, #0]
 8000122:	bd10      	pop	{r4, pc}
 8000124:	20000040 	.word	0x20000040
 8000128:	00000000 	.word	0x00000000
 800012c:	0800773c 	.word	0x0800773c

08000130 <frame_dummy>:
 8000130:	b508      	push	{r3, lr}
 8000132:	4b03      	ldr	r3, [pc, #12]	@ (8000140 <frame_dummy+0x10>)
 8000134:	b11b      	cbz	r3, 800013e <frame_dummy+0xe>
 8000136:	4903      	ldr	r1, [pc, #12]	@ (8000144 <frame_dummy+0x14>)
 8000138:	4803      	ldr	r0, [pc, #12]	@ (8000148 <frame_dummy+0x18>)
 800013a:	f3af 8000 	nop.w
 800013e:	bd08      	pop	{r3, pc}
 8000140:	00000000 	.word	0x00000000
 8000144:	20000044 	.word	0x20000044
 8000148:	0800773c 	.word	0x0800773c

0800014c <strlen>:
 800014c:	4603      	mov	r3, r0
 800014e:	f813 2b01 	ldrb.w	r2, [r3], #1
 8000152:	2a00      	cmp	r2, #0
 8000154:	d1fb      	bne.n	800014e <strlen+0x2>
 8000156:	1a18      	subs	r0, r3, r0
 8000158:	3801      	subs	r0, #1
 800015a:	4770      	bx	lr

0800015c <main>:

/**
 * @brief  The application entry point.
 * @retval int
 */
int main(void) {
 800015c:	b580      	push	{r7, lr}
 800015e:	b096      	sub	sp, #88	@ 0x58
 8000160:	af00      	add	r7, sp, #0
	/* USER CODE END 1 */

	/* MCU Configuration--------------------------------------------------------*/

	/* Reset of all peripherals, Initializes the Flash interface and the Systick. */
	HAL_Init();
 8000162:	f006 f8c5 	bl	80062f0 <HAL_Init>
	/* USER CODE BEGIN Init */

	/* USER CODE END Init */

	/* Configure the system clock */
	SystemClock_Config();
 8000166:	f000 f855 	bl	8000214 <SystemClock_Config>
	/* USER CODE BEGIN SysInit */

	/* USER CODE END SysInit */

	/* Initialize all configured peripherals */
	MX_GPIO_Init();
 800016a:	f000 f8ff 	bl	800036c <MX_GPIO_Init>
	MX_USB_PCD_Init();
 800016e:	f000 f8ad 	bl	80002cc <MX_USB_PCD_Init>
	/* USER CODE BEGIN 2 */
	uint32_t currentTime = 0;
 8000172:	2300      	movs	r3, #0
 8000174:	64fb      	str	r3, [r7, #76]	@ 0x4c
	uint32_t previousTime = 0;
 8000176:	2300      	movs	r3, #0
 8000178:	657b      	str	r3, [r7, #84]	@ 0x54

	tusb_rhport_init_t dev_init = { .role = TUSB_ROLE_DEVICE, .speed =
 800017a:	2301      	movs	r3, #1
 800017c:	f887 3044 	strb.w	r3, [r7, #68]	@ 0x44
 8000180:	2300      	movs	r3, #0
 8000182:	f887 3045 	strb.w	r3, [r7, #69]	@ 0x45
			TUSB_SPEED_FULL };
	tusb_init(0, &dev_init);
 8000186:	f107 0344 	add.w	r3, r7, #68	@ 0x44
 800018a:	4619      	mov	r1, r3
 800018c:	2000      	movs	r0, #0
 800018e:	f005 fca3 	bl	8005ad8 <tusb_rhport_init>
	/* USER CODE BEGIN WHILE */
	while (1) {
		//######################
		//System LED Blink
		//######################
		currentTime = HAL_GetTick();
 8000192:	f006 f905 	bl	80063a0 <HAL_GetTick>
 8000196:	64f8      	str	r0, [r7, #76]	@ 0x4c
		if (currentTime - previousTime >= 500) {
 8000198:	6cfa      	ldr	r2, [r7, #76]	@ 0x4c
 800019a:	6d7b      	ldr	r3, [r7, #84]	@ 0x54
 800019c:	1ad3      	subs	r3, r2, r3
 800019e:	f5b3 7ffa 	cmp.w	r3, #500	@ 0x1f4
 80001a2:	d305      	bcc.n	80001b0 <main+0x54>
			HAL_GPIO_TogglePin(G_LED_GPIO_Port, G_LED_Pin);
 80001a4:	2120      	movs	r1, #32
 80001a6:	481a      	ldr	r0, [pc, #104]	@ (8000210 <main+0xb4>)
 80001a8:	f006 fc8e 	bl	8006ac8 <HAL_GPIO_TogglePin>
			previousTime = currentTime;
 80001ac:	6cfb      	ldr	r3, [r7, #76]	@ 0x4c
 80001ae:	657b      	str	r3, [r7, #84]	@ 0x54
void tud_task_ext(uint32_t timeout_ms, bool in_isr);

// Task function should be called in main/rtos loop
TU_ATTR_ALWAYS_INLINE static inline
void tud_task (void) {
  tud_task_ext(UINT32_MAX, false);
 80001b0:	2100      	movs	r1, #0
 80001b2:	f04f 30ff 	mov.w	r0, #4294967295
 80001b6:	f001 ff8b 	bl	80020d0 <tud_task_ext>
}
 80001ba:	bf00      	nop
		}

		tud_task();

		if (tud_cdc_n_available(0)) {
 80001bc:	2000      	movs	r0, #0
 80001be:	f000 fb1d 	bl	80007fc <tud_cdc_n_available>
 80001c2:	4603      	mov	r3, r0
 80001c4:	2b00      	cmp	r3, #0
 80001c6:	d0e4      	beq.n	8000192 <main+0x36>
			rxCnt = tud_cdc_n_read(0, rxBuf, sizeof(rxBuf));
 80001c8:	1d3b      	adds	r3, r7, #4
 80001ca:	2240      	movs	r2, #64	@ 0x40
 80001cc:	4619      	mov	r1, r3
 80001ce:	2000      	movs	r0, #0
 80001d0:	f000 fb5c 	bl	800088c <tud_cdc_n_read>
 80001d4:	64b8      	str	r0, [r7, #72]	@ 0x48

			for (rxIdx = 0; rxIdx < rxCnt; rxIdx++) {
 80001d6:	2300      	movs	r3, #0
 80001d8:	653b      	str	r3, [r7, #80]	@ 0x50
 80001da:	e011      	b.n	8000200 <main+0xa4>
				tud_cdc_n_write_char(0, rxBuf[rxIdx]);
 80001dc:	1d3a      	adds	r2, r7, #4
 80001de:	6d3b      	ldr	r3, [r7, #80]	@ 0x50
 80001e0:	4413      	add	r3, r2
 80001e2:	781b      	ldrb	r3, [r3, #0]
 80001e4:	2200      	movs	r2, #0
 80001e6:	f887 2047 	strb.w	r2, [r7, #71]	@ 0x47
 80001ea:	70fb      	strb	r3, [r7, #3]
// Write bytes to TX FIFO, data may remain in the FIFO for a while
uint32_t tud_cdc_n_write(uint8_t itf, void const* buffer, uint32_t bufsize);

// Write a byte
TU_ATTR_ALWAYS_INLINE static inline uint32_t tud_cdc_n_write_char(uint8_t itf, char ch) {
  return tud_cdc_n_write(itf, &ch, 1);
 80001ec:	1cf9      	adds	r1, r7, #3
 80001ee:	f897 3047 	ldrb.w	r3, [r7, #71]	@ 0x47
 80001f2:	2201      	movs	r2, #1
 80001f4:	4618      	mov	r0, r3
 80001f6:	f000 fb6b 	bl	80008d0 <tud_cdc_n_write>
			for (rxIdx = 0; rxIdx < rxCnt; rxIdx++) {
 80001fa:	6d3b      	ldr	r3, [r7, #80]	@ 0x50
 80001fc:	3301      	adds	r3, #1
 80001fe:	653b      	str	r3, [r7, #80]	@ 0x50
 8000200:	6d3a      	ldr	r2, [r7, #80]	@ 0x50
 8000202:	6cbb      	ldr	r3, [r7, #72]	@ 0x48
 8000204:	429a      	cmp	r2, r3
 8000206:	d3e9      	bcc.n	80001dc <main+0x80>
			}

			tud_cdc_n_write_flush(0);
 8000208:	2000      	movs	r0, #0
 800020a:	f000 fb83 	bl	8000914 <tud_cdc_n_write_flush>
		currentTime = HAL_GetTick();
 800020e:	e7c0      	b.n	8000192 <main+0x36>
 8000210:	40010c00 	.word	0x40010c00

08000214 <SystemClock_Config>:

/**
 * @brief System Clock Configuration
 * @retval None
 */
void SystemClock_Config(void) {
 8000214:	b580      	push	{r7, lr}
 8000216:	b094      	sub	sp, #80	@ 0x50
 8000218:	af00      	add	r7, sp, #0
	RCC_OscInitTypeDef RCC_OscInitStruct = { 0 };
 800021a:	f107 0328 	add.w	r3, r7, #40	@ 0x28
 800021e:	2228      	movs	r2, #40	@ 0x28
 8000220:	2100      	movs	r1, #0
 8000222:	4618      	mov	r0, r3
 8000224:	f007 fa50 	bl	80076c8 <memset>
	RCC_ClkInitTypeDef RCC_ClkInitStruct = { 0 };
 8000228:	f107 0314 	add.w	r3, r7, #20
 800022c:	2200      	movs	r2, #0
 800022e:	601a      	str	r2, [r3, #0]
 8000230:	605a      	str	r2, [r3, #4]
 8000232:	609a      	str	r2, [r3, #8]
 8000234:	60da      	str	r2, [r3, #12]
 8000236:	611a      	str	r2, [r3, #16]
	RCC_PeriphCLKInitTypeDef PeriphClkInit = { 0 };
 8000238:	1d3b      	adds	r3, r7, #4
 800023a:	2200      	movs	r2, #0
 800023c:	601a      	str	r2, [r3, #0]
 800023e:	605a      	str	r2, [r3, #4]
 8000240:	609a      	str	r2, [r3, #8]
 8000242:	60da      	str	r2, [r3, #12]

	/** Initializes the RCC Oscillators according to the specified parameters
	 * in the RCC_OscInitTypeDef structure.
	 */
	RCC_OscInitStruct.OscillatorType = RCC_OSCILLATORTYPE_HSE;
 8000244:	2301      	movs	r3, #1
 8000246:	62bb      	str	r3, [r7, #40]	@ 0x28
	RCC_OscInitStruct.HSEState = RCC_HSE_ON;
 8000248:	f44f 3380 	mov.w	r3, #65536	@ 0x10000
 800024c:	62fb      	str	r3, [r7, #44]	@ 0x2c
	RCC_OscInitStruct.HSEPredivValue = RCC_HSE_PREDIV_DIV2;
 800024e:	f44f 3300 	mov.w	r3, #131072	@ 0x20000
 8000252:	633b      	str	r3, [r7, #48]	@ 0x30
	RCC_OscInitStruct.HSIState = RCC_HSI_ON;
 8000254:	2301      	movs	r3, #1
 8000256:	63bb      	str	r3, [r7, #56]	@ 0x38
	RCC_OscInitStruct.PLL.PLLState = RCC_PLL_ON;
 8000258:	2302      	movs	r3, #2
 800025a:	647b      	str	r3, [r7, #68]	@ 0x44
	RCC_OscInitStruct.PLL.PLLSource = RCC_PLLSOURCE_HSE;
 800025c:	f44f 3380 	mov.w	r3, #65536	@ 0x10000
 8000260:	64bb      	str	r3, [r7, #72]	@ 0x48
	RCC_OscInitStruct.PLL.PLLMUL = RCC_PLL_MUL9;
 8000262:	f44f 13e0 	mov.w	r3, #1835008	@ 0x1c0000
 8000266:	64fb      	str	r3, [r7, #76]	@ 0x4c
	if (HAL_RCC_OscConfig(&RCC_OscInitStruct) != HAL_OK) {
 8000268:	f107 0328 	add.w	r3, r7, #40	@ 0x28
 800026c:	4618      	mov	r0, r3
 800026e:	f006 fd3b 	bl	8006ce8 <HAL_RCC_OscConfig>
 8000272:	4603      	mov	r3, r0
 8000274:	2b00      	cmp	r3, #0
 8000276:	d001      	beq.n	800027c <SystemClock_Config+0x68>
		Error_Handler();
 8000278:	f000 f8c2 	bl	8000400 <Error_Handler>
	}

	/** Initializes the CPU, AHB and APB buses clocks
	 */
	RCC_ClkInitStruct.ClockType = RCC_CLOCKTYPE_HCLK | RCC_CLOCKTYPE_SYSCLK
 800027c:	230f      	movs	r3, #15
 800027e:	617b      	str	r3, [r7, #20]
			| RCC_CLOCKTYPE_PCLK1 | RCC_CLOCKTYPE_PCLK2;
	RCC_ClkInitStruct.SYSCLKSource = RCC_SYSCLKSOURCE_PLLCLK;
 8000280:	2302      	movs	r3, #2
 8000282:	61bb      	str	r3, [r7, #24]
	RCC_ClkInitStruct.AHBCLKDivider = RCC_SYSCLK_DIV1;
 8000284:	2300      	movs	r3, #0
 8000286:	61fb      	str	r3, [r7, #28]
	RCC_ClkInitStruct.APB1CLKDivider = RCC_HCLK_DIV2;
 8000288:	f44f 6380 	mov.w	r3, #1024	@ 0x400
 800028c:	623b      	str	r3, [r7, #32]
	RCC_ClkInitStruct.APB2CLKDivider = RCC_HCLK_DIV1;
 800028e:	2300      	movs	r3, #0
 8000290:	627b      	str	r3, [r7, #36]	@ 0x24

	if (HAL_RCC_ClockConfig(&RCC_ClkInitStruct, FLASH_LATENCY_2) != HAL_OK) {
 8000292:	f107 0314 	add.w	r3, r7, #20
 8000296:	2102      	movs	r1, #2
 8000298:	4618      	mov	r0, r3
 800029a:	f006 ffa7 	bl	80071ec <HAL_RCC_ClockConfig>
 800029e:	4603      	mov	r3, r0
 80002a0:	2b00      	cmp	r3, #0
 80002a2:	d001      	beq.n	80002a8 <SystemClock_Config+0x94>
		Error_Handler();
 80002a4:	f000 f8ac 	bl	8000400 <Error_Handler>
	}
	PeriphClkInit.PeriphClockSelection = RCC_PERIPHCLK_USB;
 80002a8:	2310      	movs	r3, #16
 80002aa:	607b      	str	r3, [r7, #4]
	PeriphClkInit.UsbClockSelection = RCC_USBCLKSOURCE_PLL_DIV1_5;
 80002ac:	2300      	movs	r3, #0
 80002ae:	613b      	str	r3, [r7, #16]
	if (HAL_RCCEx_PeriphCLKConfig(&PeriphClkInit) != HAL_OK) {
 80002b0:	1d3b      	adds	r3, r7, #4
 80002b2:	4618      	mov	r0, r3
 80002b4:	f007 f8f8 	bl	80074a8 <HAL_RCCEx_PeriphCLKConfig>
 80002b8:	4603      	mov	r3, r0
 80002ba:	2b00      	cmp	r3, #0
 80002bc:	d001      	beq.n	80002c2 <SystemClock_Config+0xae>
		Error_Handler();
 80002be:	f000 f89f 	bl	8000400 <Error_Handler>
	}
}
 80002c2:	bf00      	nop
 80002c4:	3750      	adds	r7, #80	@ 0x50
 80002c6:	46bd      	mov	sp, r7
 80002c8:	bd80      	pop	{r7, pc}
	...

080002cc <MX_USB_PCD_Init>:
/**
 * @brief USB Initialization Function
 * @param None
 * @retval None
 */
static void MX_USB_PCD_Init(void) {
 80002cc:	b580      	push	{r7, lr}
 80002ce:	b084      	sub	sp, #16
 80002d0:	af00      	add	r7, sp, #0
	/* USER CODE BEGIN USB_Init 0 */

	/*
	 * Force host to re-enumerate device
	 */
	GPIO_InitTypeDef GPIO_InitStruct = { 0 };              // All zeroed out
 80002d2:	463b      	mov	r3, r7
 80002d4:	2200      	movs	r2, #0
 80002d6:	601a      	str	r2, [r3, #0]
 80002d8:	605a      	str	r2, [r3, #4]
 80002da:	609a      	str	r2, [r3, #8]
 80002dc:	60da      	str	r2, [r3, #12]
	GPIO_InitStruct.Pin = GPIO_PIN_12;           // Hardcoding this - PA12 is D+
 80002de:	f44f 5380 	mov.w	r3, #4096	@ 0x1000
 80002e2:	603b      	str	r3, [r7, #0]
	GPIO_InitStruct.Mode = GPIO_MODE_OUTPUT_PP;            // Push-pull mode
 80002e4:	2301      	movs	r3, #1
 80002e6:	607b      	str	r3, [r7, #4]
	GPIO_InitStruct.Pull = GPIO_PULLDOWN;               // Resetting so pull low
 80002e8:	2302      	movs	r3, #2
 80002ea:	60bb      	str	r3, [r7, #8]
	GPIO_InitStruct.Speed = GPIO_SPEED_HIGH; // Really shouldn't matter in this case
 80002ec:	2303      	movs	r3, #3
 80002ee:	60fb      	str	r3, [r7, #12]
	HAL_GPIO_Init(GPIOA, &GPIO_InitStruct);    // Initialize with above settings
 80002f0:	463b      	mov	r3, r7
 80002f2:	4619      	mov	r1, r3
 80002f4:	481a      	ldr	r0, [pc, #104]	@ (8000360 <MX_USB_PCD_Init+0x94>)
 80002f6:	f006 f98f 	bl	8006618 <HAL_GPIO_Init>
	HAL_GPIO_WritePin(GPIOA, GPIO_PIN_12, GPIO_PIN_RESET); // Yank low
 80002fa:	2200      	movs	r2, #0
 80002fc:	f44f 5180 	mov.w	r1, #4096	@ 0x1000
 8000300:	4817      	ldr	r0, [pc, #92]	@ (8000360 <MX_USB_PCD_Init+0x94>)
 8000302:	f006 fbc9 	bl	8006a98 <HAL_GPIO_WritePin>
	HAL_Delay(50);                  // Enough time for host to disconnect device
 8000306:	2032      	movs	r0, #50	@ 0x32
 8000308:	f006 f854 	bl	80063b4 <HAL_Delay>
	HAL_GPIO_WritePin(GPIOA, GPIO_PIN_12, GPIO_PIN_SET); // Back high - so host will enumerate
 800030c:	2201      	movs	r2, #1
 800030e:	f44f 5180 	mov.w	r1, #4096	@ 0x1000
 8000312:	4813      	ldr	r0, [pc, #76]	@ (8000360 <MX_USB_PCD_Init+0x94>)
 8000314:	f006 fbc0 	bl	8006a98 <HAL_GPIO_WritePin>
	HAL_GPIO_DeInit(GPIOA, GPIO_PIN_12);                 // Deinitialize the pin
 8000318:	f44f 5180 	mov.w	r1, #4096	@ 0x1000
 800031c:	4810      	ldr	r0, [pc, #64]	@ (8000360 <MX_USB_PCD_Init+0x94>)
 800031e:	f006 faff 	bl	8006920 <HAL_GPIO_DeInit>
	/* USER CODE END USB_Init 0 */

	/* USER CODE BEGIN USB_Init 1 */

	/* USER CODE END USB_Init 1 */
	hpcd_USB_FS.Instance = USB;
 8000322:	4b10      	ldr	r3, [pc, #64]	@ (8000364 <MX_USB_PCD_Init+0x98>)
 8000324:	4a10      	ldr	r2, [pc, #64]	@ (8000368 <MX_USB_PCD_Init+0x9c>)
 8000326:	601a      	str	r2, [r3, #0]
	hpcd_USB_FS.Init.dev_endpoints = 8;
 8000328:	4b0e      	ldr	r3, [pc, #56]	@ (8000364 <MX_USB_PCD_Init+0x98>)
 800032a:	2208      	movs	r2, #8
 800032c:	711a      	strb	r2, [r3, #4]
	hpcd_USB_FS.Init.speed = PCD_SPEED_FULL;
 800032e:	4b0d      	ldr	r3, [pc, #52]	@ (8000364 <MX_USB_PCD_Init+0x98>)
 8000330:	2202      	movs	r2, #2
 8000332:	719a      	strb	r2, [r3, #6]
	hpcd_USB_FS.Init.low_power_enable = DISABLE;
 8000334:	4b0b      	ldr	r3, [pc, #44]	@ (8000364 <MX_USB_PCD_Init+0x98>)
 8000336:	2200      	movs	r2, #0
 8000338:	729a      	strb	r2, [r3, #10]
	hpcd_USB_FS.Init.lpm_enable = DISABLE;
 800033a:	4b0a      	ldr	r3, [pc, #40]	@ (8000364 <MX_USB_PCD_Init+0x98>)
 800033c:	2200      	movs	r2, #0
 800033e:	72da      	strb	r2, [r3, #11]
	hpcd_USB_FS.Init.battery_charging_enable = DISABLE;
 8000340:	4b08      	ldr	r3, [pc, #32]	@ (8000364 <MX_USB_PCD_Init+0x98>)
 8000342:	2200      	movs	r2, #0
 8000344:	731a      	strb	r2, [r3, #12]
	if (HAL_PCD_Init(&hpcd_USB_FS) != HAL_OK) {
 8000346:	4807      	ldr	r0, [pc, #28]	@ (8000364 <MX_USB_PCD_Init+0x98>)
 8000348:	f006 fbd7 	bl	8006afa <HAL_PCD_Init>
 800034c:	4603      	mov	r3, r0
 800034e:	2b00      	cmp	r3, #0
 8000350:	d001      	beq.n	8000356 <MX_USB_PCD_Init+0x8a>
		Error_Handler();
 8000352:	f000 f855 	bl	8000400 <Error_Handler>
	}
	/* USER CODE BEGIN USB_Init 2 */

	/* USER CODE END USB_Init 2 */

}
 8000356:	bf00      	nop
 8000358:	3710      	adds	r7, #16
 800035a:	46bd      	mov	sp, r7
 800035c:	bd80      	pop	{r7, pc}
 800035e:	bf00      	nop
 8000360:	40010800 	.word	0x40010800
 8000364:	2000005c 	.word	0x2000005c
 8000368:	40005c00 	.word	0x40005c00

0800036c <MX_GPIO_Init>:
/**
 * @brief GPIO Initialization Function
 * @param None
 * @retval None
 */
static void MX_GPIO_Init(void) {
 800036c:	b580      	push	{r7, lr}
 800036e:	b088      	sub	sp, #32
 8000370:	af00      	add	r7, sp, #0
	GPIO_InitTypeDef GPIO_InitStruct = { 0 };
 8000372:	f107 0310 	add.w	r3, r7, #16
 8000376:	2200      	movs	r2, #0
 8000378:	601a      	str	r2, [r3, #0]
 800037a:	605a      	str	r2, [r3, #4]
 800037c:	609a      	str	r2, [r3, #8]
 800037e:	60da      	str	r2, [r3, #12]
	/* USER CODE BEGIN MX_GPIO_Init_1 */

	/* USER CODE END MX_GPIO_Init_1 */

	/* GPIO Ports Clock Enable */
	__HAL_RCC_GPIOD_CLK_ENABLE();
 8000380:	4b1d      	ldr	r3, [pc, #116]	@ (80003f8 <MX_GPIO_Init+0x8c>)
 8000382:	699b      	ldr	r3, [r3, #24]
 8000384:	4a1c      	ldr	r2, [pc, #112]	@ (80003f8 <MX_GPIO_Init+0x8c>)
 8000386:	f043 0320 	orr.w	r3, r3, #32
 800038a:	6193      	str	r3, [r2, #24]
 800038c:	4b1a      	ldr	r3, [pc, #104]	@ (80003f8 <MX_GPIO_Init+0x8c>)
 800038e:	699b      	ldr	r3, [r3, #24]
 8000390:	f003 0320 	and.w	r3, r3, #32
 8000394:	60fb      	str	r3, [r7, #12]
 8000396:	68fb      	ldr	r3, [r7, #12]
	__HAL_RCC_GPIOA_CLK_ENABLE();
 8000398:	4b17      	ldr	r3, [pc, #92]	@ (80003f8 <MX_GPIO_Init+0x8c>)
 800039a:	699b      	ldr	r3, [r3, #24]
 800039c:	4a16      	ldr	r2, [pc, #88]	@ (80003f8 <MX_GPIO_Init+0x8c>)
 800039e:	f043 0304 	orr.w	r3, r3, #4
 80003a2:	6193      	str	r3, [r2, #24]
 80003a4:	4b14      	ldr	r3, [pc, #80]	@ (80003f8 <MX_GPIO_Init+0x8c>)
 80003a6:	699b      	ldr	r3, [r3, #24]
 80003a8:	f003 0304 	and.w	r3, r3, #4
 80003ac:	60bb      	str	r3, [r7, #8]
 80003ae:	68bb      	ldr	r3, [r7, #8]
	__HAL_RCC_GPIOB_CLK_ENABLE();
 80003b0:	4b11      	ldr	r3, [pc, #68]	@ (80003f8 <MX_GPIO_Init+0x8c>)
 80003b2:	699b      	ldr	r3, [r3, #24]
 80003b4:	4a10      	ldr	r2, [pc, #64]	@ (80003f8 <MX_GPIO_Init+0x8c>)
 80003b6:	f043 0308 	orr.w	r3, r3, #8
 80003ba:	6193      	str	r3, [r2, #24]
 80003bc:	4b0e      	ldr	r3, [pc, #56]	@ (80003f8 <MX_GPIO_Init+0x8c>)
 80003be:	699b      	ldr	r3, [r3, #24]
 80003c0:	f003 0308 	and.w	r3, r3, #8
 80003c4:	607b      	str	r3, [r7, #4]
 80003c6:	687b      	ldr	r3, [r7, #4]

	/*Configure GPIO pin Output Level */
	HAL_GPIO_WritePin(G_LED_GPIO_Port, G_LED_Pin, GPIO_PIN_SET);
 80003c8:	2201      	movs	r2, #1
 80003ca:	2120      	movs	r1, #32
 80003cc:	480b      	ldr	r0, [pc, #44]	@ (80003fc <MX_GPIO_Init+0x90>)
 80003ce:	f006 fb63 	bl	8006a98 <HAL_GPIO_WritePin>

	/*Configure GPIO pin : G_LED_Pin */
	GPIO_InitStruct.Pin = G_LED_Pin;
 80003d2:	2320      	movs	r3, #32
 80003d4:	613b      	str	r3, [r7, #16]
	GPIO_InitStruct.Mode = GPIO_MODE_OUTPUT_PP;
 80003d6:	2301      	movs	r3, #1
 80003d8:	617b      	str	r3, [r7, #20]
	GPIO_InitStruct.Pull = GPIO_NOPULL;
 80003da:	2300      	movs	r3, #0
 80003dc:	61bb      	str	r3, [r7, #24]
	GPIO_InitStruct.Speed = GPIO_SPEED_FREQ_LOW;
 80003de:	2302      	movs	r3, #2
 80003e0:	61fb      	str	r3, [r7, #28]
	HAL_GPIO_Init(G_LED_GPIO_Port, &GPIO_InitStruct);
 80003e2:	f107 0310 	add.w	r3, r7, #16
 80003e6:	4619      	mov	r1, r3
 80003e8:	4804      	ldr	r0, [pc, #16]	@ (80003fc <MX_GPIO_Init+0x90>)
 80003ea:	f006 f915 	bl	8006618 <HAL_GPIO_Init>

	/* USER CODE BEGIN MX_GPIO_Init_2 */

	/* USER CODE END MX_GPIO_Init_2 */
}
 80003ee:	bf00      	nop
 80003f0:	3720      	adds	r7, #32
 80003f2:	46bd      	mov	sp, r7
 80003f4:	bd80      	pop	{r7, pc}
 80003f6:	bf00      	nop
 80003f8:	40021000 	.word	0x40021000
 80003fc:	40010c00 	.word	0x40010c00

08000400 <Error_Handler>:

/**
 * @brief  This function is executed in case of error occurrence.
 * @retval None
 */
void Error_Handler(void) {
 8000400:	b480      	push	{r7}
 8000402:	af00      	add	r7, sp, #0
  \details Disables IRQ interrupts by setting the I-bit in the CPSR.
           Can only be executed in Privileged modes.
 */
__STATIC_FORCEINLINE void __disable_irq(void)
{
  __ASM volatile ("cpsid i" : : : "memory");
 8000404:	b672      	cpsid	i
}
 8000406:	bf00      	nop
	/* USER CODE BEGIN Error_Handler_Debug */
	/* User can add his own implementation to report the HAL error return state */
	__disable_irq();
	while (1) {
 8000408:	bf00      	nop
 800040a:	e7fd      	b.n	8000408 <Error_Handler+0x8>

0800040c <HAL_MspInit>:
/* USER CODE END 0 */
/**
  * Initializes the Global MSP.
  */
void HAL_MspInit(void)
{
 800040c:	b480      	push	{r7}
 800040e:	b085      	sub	sp, #20
 8000410:	af00      	add	r7, sp, #0

  /* USER CODE BEGIN MspInit 0 */

  /* USER CODE END MspInit 0 */

  __HAL_RCC_AFIO_CLK_ENABLE();
 8000412:	4b15      	ldr	r3, [pc, #84]	@ (8000468 <HAL_MspInit+0x5c>)
 8000414:	699b      	ldr	r3, [r3, #24]
 8000416:	4a14      	ldr	r2, [pc, #80]	@ (8000468 <HAL_MspInit+0x5c>)
 8000418:	f043 0301 	orr.w	r3, r3, #1
 800041c:	6193      	str	r3, [r2, #24]
 800041e:	4b12      	ldr	r3, [pc, #72]	@ (8000468 <HAL_MspInit+0x5c>)
 8000420:	699b      	ldr	r3, [r3, #24]
 8000422:	f003 0301 	and.w	r3, r3, #1
 8000426:	60bb      	str	r3, [r7, #8]
 8000428:	68bb      	ldr	r3, [r7, #8]
  __HAL_RCC_PWR_CLK_ENABLE();
 800042a:	4b0f      	ldr	r3, [pc, #60]	@ (8000468 <HAL_MspInit+0x5c>)
 800042c:	69db      	ldr	r3, [r3, #28]
 800042e:	4a0e      	ldr	r2, [pc, #56]	@ (8000468 <HAL_MspInit+0x5c>)
 8000430:	f043 5380 	orr.w	r3, r3, #268435456	@ 0x10000000
 8000434:	61d3      	str	r3, [r2, #28]
 8000436:	4b0c      	ldr	r3, [pc, #48]	@ (8000468 <HAL_MspInit+0x5c>)
 8000438:	69db      	ldr	r3, [r3, #28]
 800043a:	f003 5380 	and.w	r3, r3, #268435456	@ 0x10000000
 800043e:	607b      	str	r3, [r7, #4]
 8000440:	687b      	ldr	r3, [r7, #4]

  /* System interrupt init*/

  /** NOJTAG: JTAG-DP Disabled and SW-DP Enabled
  */
  __HAL_AFIO_REMAP_SWJ_NOJTAG();
 8000442:	4b0a      	ldr	r3, [pc, #40]	@ (800046c <HAL_MspInit+0x60>)
 8000444:	685b      	ldr	r3, [r3, #4]
 8000446:	60fb      	str	r3, [r7, #12]
 8000448:	68fb      	ldr	r3, [r7, #12]
 800044a:	f023 63e0 	bic.w	r3, r3, #117440512	@ 0x7000000
 800044e:	60fb      	str	r3, [r7, #12]
 8000450:	68fb      	ldr	r3, [r7, #12]
 8000452:	f043 7300 	orr.w	r3, r3, #33554432	@ 0x2000000
 8000456:	60fb      	str	r3, [r7, #12]
 8000458:	4a04      	ldr	r2, [pc, #16]	@ (800046c <HAL_MspInit+0x60>)
 800045a:	68fb      	ldr	r3, [r7, #12]
 800045c:	6053      	str	r3, [r2, #4]

  /* USER CODE BEGIN MspInit 1 */

  /* USER CODE END MspInit 1 */
}
 800045e:	bf00      	nop
 8000460:	3714      	adds	r7, #20
 8000462:	46bd      	mov	sp, r7
 8000464:	bc80      	pop	{r7}
 8000466:	4770      	bx	lr
 8000468:	40021000 	.word	0x40021000
 800046c:	40010000 	.word	0x40010000

08000470 <HAL_PCD_MspInit>:
  * This function configures the hardware resources used in this example
  * @param hpcd: PCD handle pointer
  * @retval None
  */
void HAL_PCD_MspInit(PCD_HandleTypeDef* hpcd)
{
 8000470:	b580      	push	{r7, lr}
 8000472:	b084      	sub	sp, #16
 8000474:	af00      	add	r7, sp, #0
 8000476:	6078      	str	r0, [r7, #4]
  if(hpcd->Instance==USB)
 8000478:	687b      	ldr	r3, [r7, #4]
 800047a:	681b      	ldr	r3, [r3, #0]
 800047c:	4a0d      	ldr	r2, [pc, #52]	@ (80004b4 <HAL_PCD_MspInit+0x44>)
 800047e:	4293      	cmp	r3, r2
 8000480:	d113      	bne.n	80004aa <HAL_PCD_MspInit+0x3a>
  {
    /* USER CODE BEGIN USB_MspInit 0 */

    /* USER CODE END USB_MspInit 0 */
    /* Peripheral clock enable */
    __HAL_RCC_USB_CLK_ENABLE();
 8000482:	4b0d      	ldr	r3, [pc, #52]	@ (80004b8 <HAL_PCD_MspInit+0x48>)
 8000484:	69db      	ldr	r3, [r3, #28]
 8000486:	4a0c      	ldr	r2, [pc, #48]	@ (80004b8 <HAL_PCD_MspInit+0x48>)
 8000488:	f443 0300 	orr.w	r3, r3, #8388608	@ 0x800000
 800048c:	61d3      	str	r3, [r2, #28]
 800048e:	4b0a      	ldr	r3, [pc, #40]	@ (80004b8 <HAL_PCD_MspInit+0x48>)
 8000490:	69db      	ldr	r3, [r3, #28]
 8000492:	f403 0300 	and.w	r3, r3, #8388608	@ 0x800000
 8000496:	60fb      	str	r3, [r7, #12]
 8000498:	68fb      	ldr	r3, [r7, #12]
    /* USB interrupt Init */
    HAL_NVIC_SetPriority(USB_LP_CAN1_RX0_IRQn, 0, 0);
 800049a:	2200      	movs	r2, #0
 800049c:	2100      	movs	r1, #0
 800049e:	2014      	movs	r0, #20
 80004a0:	f006 f883 	bl	80065aa <HAL_NVIC_SetPriority>
    HAL_NVIC_EnableIRQ(USB_LP_CAN1_RX0_IRQn);
 80004a4:	2014      	movs	r0, #20
 80004a6:	f006 f89c 	bl	80065e2 <HAL_NVIC_EnableIRQ>

    /* USER CODE END USB_MspInit 1 */

  }

}
 80004aa:	bf00      	nop
 80004ac:	3710      	adds	r7, #16
 80004ae:	46bd      	mov	sp, r7
 80004b0:	bd80      	pop	{r7, pc}
 80004b2:	bf00      	nop
 80004b4:	40005c00 	.word	0x40005c00
 80004b8:	40021000 	.word	0x40021000

080004bc <NMI_Handler>:
/******************************************************************************/
/**
  * @brief This function handles Non maskable interrupt.
  */
void NMI_Handler(void)
{
 80004bc:	b480      	push	{r7}
 80004be:	af00      	add	r7, sp, #0
  /* USER CODE BEGIN NonMaskableInt_IRQn 0 */

  /* USER CODE END NonMaskableInt_IRQn 0 */
  /* USER CODE BEGIN NonMaskableInt_IRQn 1 */
   while (1)
 80004c0:	bf00      	nop
 80004c2:	e7fd      	b.n	80004c0 <NMI_Handler+0x4>

080004c4 <HardFault_Handler>:

/**
  * @brief This function handles Hard fault interrupt.
  */
void HardFault_Handler(void)
{
 80004c4:	b480      	push	{r7}
 80004c6:	af00      	add	r7, sp, #0
  /* USER CODE BEGIN HardFault_IRQn 0 */

  /* USER CODE END HardFault_IRQn 0 */
  while (1)
 80004c8:	bf00      	nop
 80004ca:	e7fd      	b.n	80004c8 <HardFault_Handler+0x4>

080004cc <MemManage_Handler>:

/**
  * @brief This function handles Memory management fault.
  */
void MemManage_Handler(void)
{
 80004cc:	b480      	push	{r7}
 80004ce:	af00      	add	r7, sp, #0
  /* USER CODE BEGIN MemoryManagement_IRQn 0 */

  /* USER CODE END MemoryManagement_IRQn 0 */
  while (1)
 80004d0:	bf00      	nop
 80004d2:	e7fd      	b.n	80004d0 <MemManage_Handler+0x4>

080004d4 <BusFault_Handler>:

/**
  * @brief This function handles Prefetch fault, memory access fault.
  */
void BusFault_Handler(void)
{
 80004d4:	b480      	push	{r7}
 80004d6:	af00      	add	r7, sp, #0
  /* USER CODE BEGIN BusFault_IRQn 0 */

  /* USER CODE END BusFault_IRQn 0 */
  while (1)
 80004d8:	bf00      	nop
 80004da:	e7fd      	b.n	80004d8 <BusFault_Handler+0x4>

080004dc <UsageFault_Handler>:

/**
  * @brief This function handles Undefined instruction or illegal state.
  */
void UsageFault_Handler(void)
{
 80004dc:	b480      	push	{r7}
 80004de:	af00      	add	r7, sp, #0
  /* USER CODE BEGIN UsageFault_IRQn 0 */

  /* USER CODE END UsageFault_IRQn 0 */
  while (1)
 80004e0:	bf00      	nop
 80004e2:	e7fd      	b.n	80004e0 <UsageFault_Handler+0x4>

080004e4 <SVC_Handler>:

/**
  * @brief This function handles System service call via SWI instruction.
  */
void SVC_Handler(void)
{
 80004e4:	b480      	push	{r7}
 80004e6:	af00      	add	r7, sp, #0

  /* USER CODE END SVCall_IRQn 0 */
  /* USER CODE BEGIN SVCall_IRQn 1 */

  /* USER CODE END SVCall_IRQn 1 */
}
 80004e8:	bf00      	nop
 80004ea:	46bd      	mov	sp, r7
 80004ec:	bc80      	pop	{r7}
 80004ee:	4770      	bx	lr

080004f0 <DebugMon_Handler>:

/**
  * @brief This function handles Debug monitor.
  */
void DebugMon_Handler(void)
{
 80004f0:	b480      	push	{r7}
 80004f2:	af00      	add	r7, sp, #0

  /* USER CODE END DebugMonitor_IRQn 0 */
  /* USER CODE BEGIN DebugMonitor_IRQn 1 */

  /* USER CODE END DebugMonitor_IRQn 1 */
}
 80004f4:	bf00      	nop
 80004f6:	46bd      	mov	sp, r7
 80004f8:	bc80      	pop	{r7}
 80004fa:	4770      	bx	lr

080004fc <PendSV_Handler>:

/**
  * @brief This function handles Pendable request for system service.
  */
void PendSV_Handler(void)
{
 80004fc:	b480      	push	{r7}
 80004fe:	af00      	add	r7, sp, #0

  /* USER CODE END PendSV_IRQn 0 */
  /* USER CODE BEGIN PendSV_IRQn 1 */

  /* USER CODE END PendSV_IRQn 1 */
}
 8000500:	bf00      	nop
 8000502:	46bd      	mov	sp, r7
 8000504:	bc80      	pop	{r7}
 8000506:	4770      	bx	lr

08000508 <SysTick_Handler>:

/**
  * @brief This function handles System tick timer.
  */
void SysTick_Handler(void)
{
 8000508:	b580      	push	{r7, lr}
 800050a:	af00      	add	r7, sp, #0
  /* USER CODE BEGIN SysTick_IRQn 0 */

  /* USER CODE END SysTick_IRQn 0 */
  HAL_IncTick();
 800050c:	f005 ff36 	bl	800637c <HAL_IncTick>
  /* USER CODE BEGIN SysTick_IRQn 1 */

  /* USER CODE END SysTick_IRQn 1 */
}
 8000510:	bf00      	nop
 8000512:	bd80      	pop	{r7, pc}

08000514 <USB_LP_CAN1_RX0_IRQHandler>:

/**
  * @brief This function handles USB low priority or CAN RX0 interrupts.
  */
void USB_LP_CAN1_RX0_IRQHandler(void)
{
 8000514:	b580      	push	{r7, lr}
 8000516:	af00      	add	r7, sp, #0
  /* USER CODE BEGIN USB_LP_CAN1_RX0_IRQn 0 */
	tud_int_handler(0);
 8000518:	2000      	movs	r0, #0
 800051a:	f003 fff1 	bl	8004500 <dcd_int_handler>
	return;
 800051e:	bf00      	nop
  /* USER CODE END USB_LP_CAN1_RX0_IRQn 0 */
  HAL_PCD_IRQHandler(&hpcd_USB_FS);
  /* USER CODE BEGIN USB_LP_CAN1_RX0_IRQn 1 */

  /* USER CODE END USB_LP_CAN1_RX0_IRQn 1 */
}
 8000520:	bd80      	pop	{r7, pc}

08000522 <SystemInit>:
  * @note   This function should be used only after reset.
  * @param  None
  * @retval None
  */
void SystemInit (void)
{
 8000522:	b480      	push	{r7}
 8000524:	af00      	add	r7, sp, #0

  /* Configure the Vector Table location -------------------------------------*/
#if defined(USER_VECT_TAB_ADDRESS)
  SCB->VTOR = VECT_TAB_BASE_ADDRESS | VECT_TAB_OFFSET; /* Vector Table Relocation in Internal SRAM. */
#endif /* USER_VECT_TAB_ADDRESS */
}
 8000526:	bf00      	nop
 8000528:	46bd      	mov	sp, r7
 800052a:	bc80      	pop	{r7}
 800052c:	4770      	bx	lr
	...

08000530 <board_get_unique_id>:

#include "tusb.h"
#include "stm32f1xx.h"
#include "tusb_config.h"

size_t board_get_unique_id(uint8_t id[], size_t max_len) {
 8000530:	b480      	push	{r7}
 8000532:	b087      	sub	sp, #28
 8000534:	af00      	add	r7, sp, #0
 8000536:	6078      	str	r0, [r7, #4]
 8000538:	6039      	str	r1, [r7, #0]
  (void) max_len;
  volatile uint32_t * stm32_uuid = (volatile uint32_t *) UID_BASE;
 800053a:	4b0e      	ldr	r3, [pc, #56]	@ (8000574 <board_get_unique_id+0x44>)
 800053c:	617b      	str	r3, [r7, #20]
  uint32_t* id32 = (uint32_t*) (uintptr_t) id;
 800053e:	687b      	ldr	r3, [r7, #4]
 8000540:	613b      	str	r3, [r7, #16]
  uint8_t const len = 12;
 8000542:	230c      	movs	r3, #12
 8000544:	73fb      	strb	r3, [r7, #15]

  id32[0] = stm32_uuid[0];
 8000546:	697b      	ldr	r3, [r7, #20]
 8000548:	681a      	ldr	r2, [r3, #0]
 800054a:	693b      	ldr	r3, [r7, #16]
 800054c:	601a      	str	r2, [r3, #0]
  id32[1] = stm32_uuid[1];
 800054e:	697b      	ldr	r3, [r7, #20]
 8000550:	1d1a      	adds	r2, r3, #4
 8000552:	693b      	ldr	r3, [r7, #16]
 8000554:	3304      	adds	r3, #4
 8000556:	6812      	ldr	r2, [r2, #0]
 8000558:	601a      	str	r2, [r3, #0]
  id32[2] = stm32_uuid[2];
 800055a:	697b      	ldr	r3, [r7, #20]
 800055c:	f103 0208 	add.w	r2, r3, #8
 8000560:	693b      	ldr	r3, [r7, #16]
 8000562:	3308      	adds	r3, #8
 8000564:	6812      	ldr	r2, [r2, #0]
 8000566:	601a      	str	r2, [r3, #0]

  return len;
 8000568:	7bfb      	ldrb	r3, [r7, #15]
}
 800056a:	4618      	mov	r0, r3
 800056c:	371c      	adds	r7, #28
 800056e:	46bd      	mov	sp, r7
 8000570:	bc80      	pop	{r7}
 8000572:	4770      	bx	lr
 8000574:	1ffff7e8 	.word	0x1ffff7e8

08000578 <board_usb_get_serial>:

static inline size_t board_usb_get_serial(uint16_t desc_str1[], size_t max_chars) {
 8000578:	b590      	push	{r4, r7, lr}
 800057a:	b08f      	sub	sp, #60	@ 0x3c
 800057c:	af00      	add	r7, sp, #0
 800057e:	6078      	str	r0, [r7, #4]
 8000580:	6039      	str	r1, [r7, #0]
  uint8_t uid[16] TU_ATTR_ALIGNED(4);
  size_t uid_len;

  // TODO work with make, but not working with esp32s3 cmake
  uid_len = board_get_unique_id(uid, sizeof(uid));
 8000582:	f107 0318 	add.w	r3, r7, #24
 8000586:	2110      	movs	r1, #16
 8000588:	4618      	mov	r0, r3
 800058a:	f7ff ffd1 	bl	8000530 <board_get_unique_id>
 800058e:	6378      	str	r0, [r7, #52]	@ 0x34

  if ( uid_len > max_chars / 2u ) {
 8000590:	683b      	ldr	r3, [r7, #0]
 8000592:	085b      	lsrs	r3, r3, #1
 8000594:	6b7a      	ldr	r2, [r7, #52]	@ 0x34
 8000596:	429a      	cmp	r2, r3
 8000598:	d902      	bls.n	80005a0 <board_usb_get_serial+0x28>
    uid_len = max_chars / 2u;
 800059a:	683b      	ldr	r3, [r7, #0]
 800059c:	085b      	lsrs	r3, r3, #1
 800059e:	637b      	str	r3, [r7, #52]	@ 0x34
  }

  for ( size_t i = 0; i < uid_len; i++ ) {
 80005a0:	2300      	movs	r3, #0
 80005a2:	633b      	str	r3, [r7, #48]	@ 0x30
 80005a4:	e030      	b.n	8000608 <board_usb_get_serial+0x90>
    for ( size_t j = 0; j < 2; j++ ) {
 80005a6:	2300      	movs	r3, #0
 80005a8:	62fb      	str	r3, [r7, #44]	@ 0x2c
 80005aa:	e027      	b.n	80005fc <board_usb_get_serial+0x84>
      const unsigned char nibble_to_hex[16] = {
 80005ac:	4b1b      	ldr	r3, [pc, #108]	@ (800061c <board_usb_get_serial+0xa4>)
 80005ae:	f107 0408 	add.w	r4, r7, #8
 80005b2:	cb0f      	ldmia	r3, {r0, r1, r2, r3}
 80005b4:	e884 000f 	stmia.w	r4, {r0, r1, r2, r3}
          '0', '1', '2', '3', '4', '5', '6', '7',
          '8', '9', 'A', 'B', 'C', 'D', 'E', 'F'
      };
      const uint8_t nibble = (uint8_t) ((uid[i] >> (j * 4u)) & 0xfu);
 80005b8:	f107 0218 	add.w	r2, r7, #24
 80005bc:	6b3b      	ldr	r3, [r7, #48]	@ 0x30
 80005be:	4413      	add	r3, r2
 80005c0:	781b      	ldrb	r3, [r3, #0]
 80005c2:	461a      	mov	r2, r3
 80005c4:	6afb      	ldr	r3, [r7, #44]	@ 0x2c
 80005c6:	009b      	lsls	r3, r3, #2
 80005c8:	fa42 f303 	asr.w	r3, r2, r3
 80005cc:	b2db      	uxtb	r3, r3
 80005ce:	f003 030f 	and.w	r3, r3, #15
 80005d2:	f887 302b 	strb.w	r3, [r7, #43]	@ 0x2b
      desc_str1[i * 2 + (1 - j)] = nibble_to_hex[nibble]; // UTF-16-LE
 80005d6:	f897 302b 	ldrb.w	r3, [r7, #43]	@ 0x2b
 80005da:	3338      	adds	r3, #56	@ 0x38
 80005dc:	443b      	add	r3, r7
 80005de:	f813 1c30 	ldrb.w	r1, [r3, #-48]
 80005e2:	6b3b      	ldr	r3, [r7, #48]	@ 0x30
 80005e4:	005a      	lsls	r2, r3, #1
 80005e6:	6afb      	ldr	r3, [r7, #44]	@ 0x2c
 80005e8:	1ad3      	subs	r3, r2, r3
 80005ea:	3301      	adds	r3, #1
 80005ec:	005b      	lsls	r3, r3, #1
 80005ee:	687a      	ldr	r2, [r7, #4]
 80005f0:	4413      	add	r3, r2
 80005f2:	460a      	mov	r2, r1
 80005f4:	801a      	strh	r2, [r3, #0]
    for ( size_t j = 0; j < 2; j++ ) {
 80005f6:	6afb      	ldr	r3, [r7, #44]	@ 0x2c
 80005f8:	3301      	adds	r3, #1
 80005fa:	62fb      	str	r3, [r7, #44]	@ 0x2c
 80005fc:	6afb      	ldr	r3, [r7, #44]	@ 0x2c
 80005fe:	2b01      	cmp	r3, #1
 8000600:	d9d4      	bls.n	80005ac <board_usb_get_serial+0x34>
  for ( size_t i = 0; i < uid_len; i++ ) {
 8000602:	6b3b      	ldr	r3, [r7, #48]	@ 0x30
 8000604:	3301      	adds	r3, #1
 8000606:	633b      	str	r3, [r7, #48]	@ 0x30
 8000608:	6b3a      	ldr	r2, [r7, #48]	@ 0x30
 800060a:	6b7b      	ldr	r3, [r7, #52]	@ 0x34
 800060c:	429a      	cmp	r2, r3
 800060e:	d3ca      	bcc.n	80005a6 <board_usb_get_serial+0x2e>
    }
  }

  return 2 * uid_len;
 8000610:	6b7b      	ldr	r3, [r7, #52]	@ 0x34
 8000612:	005b      	lsls	r3, r3, #1
}
 8000614:	4618      	mov	r0, r3
 8000616:	373c      	adds	r7, #60	@ 0x3c
 8000618:	46bd      	mov	sp, r7
 800061a:	bd90      	pop	{r4, r7, pc}
 800061c:	08007754 	.word	0x08007754

08000620 <tud_descriptor_device_cb>:
    .bNumConfigurations = 0x01
};

// Invoked when received GET DEVICE DESCRIPTOR
// Application return pointer to descriptor
uint8_t const *tud_descriptor_device_cb(void) {
 8000620:	b480      	push	{r7}
 8000622:	af00      	add	r7, sp, #0
  return (uint8_t const *) &desc_device;
 8000624:	4b02      	ldr	r3, [pc, #8]	@ (8000630 <tud_descriptor_device_cb+0x10>)
}
 8000626:	4618      	mov	r0, r3
 8000628:	46bd      	mov	sp, r7
 800062a:	bc80      	pop	{r7}
 800062c:	4770      	bx	lr
 800062e:	bf00      	nop
 8000630:	08007798 	.word	0x08007798

08000634 <tud_descriptor_configuration_cb>:
#endif// highspeed

// Invoked when received GET CONFIGURATION DESCRIPTOR
// Application return pointer to descriptor
// Descriptor contents must exist long enough for transfer to complete
uint8_t const *tud_descriptor_configuration_cb(uint8_t index) {
 8000634:	b480      	push	{r7}
 8000636:	b083      	sub	sp, #12
 8000638:	af00      	add	r7, sp, #0
 800063a:	4603      	mov	r3, r0
 800063c:	71fb      	strb	r3, [r7, #7]

#if TUD_OPT_HIGH_SPEED
  // Although we are highspeed, host may be fullspeed.
  return (tud_speed_get() == TUSB_SPEED_HIGH) ? desc_hs_configuration : desc_fs_configuration;
#else
  return desc_fs_configuration;
 800063e:	4b03      	ldr	r3, [pc, #12]	@ (800064c <tud_descriptor_configuration_cb+0x18>)
#endif
}
 8000640:	4618      	mov	r0, r3
 8000642:	370c      	adds	r7, #12
 8000644:	46bd      	mov	sp, r7
 8000646:	bc80      	pop	{r7}
 8000648:	4770      	bx	lr
 800064a:	bf00      	nop
 800064c:	080077ac 	.word	0x080077ac

08000650 <tud_descriptor_string_cb>:

static uint16_t _desc_str[32 + 1];

// Invoked when received GET STRING DESCRIPTOR request
// Application return pointer to descriptor, whose contents must exist long enough for transfer to complete
uint16_t const *tud_descriptor_string_cb(uint8_t index, uint16_t langid) {
 8000650:	b580      	push	{r7, lr}
 8000652:	b086      	sub	sp, #24
 8000654:	af00      	add	r7, sp, #0
 8000656:	4603      	mov	r3, r0
 8000658:	460a      	mov	r2, r1
 800065a:	71fb      	strb	r3, [r7, #7]
 800065c:	4613      	mov	r3, r2
 800065e:	80bb      	strh	r3, [r7, #4]
  (void) langid;
  size_t chr_count;

  switch ( index ) {
 8000660:	79fb      	ldrb	r3, [r7, #7]
 8000662:	2b00      	cmp	r3, #0
 8000664:	d002      	beq.n	800066c <tud_descriptor_string_cb+0x1c>
 8000666:	2b03      	cmp	r3, #3
 8000668:	d009      	beq.n	800067e <tud_descriptor_string_cb+0x2e>
 800066a:	e00f      	b.n	800068c <tud_descriptor_string_cb+0x3c>
    case STRID_LANGID:
      memcpy(&_desc_str[1], string_desc_arr[0], 2);
 800066c:	4b25      	ldr	r3, [pc, #148]	@ (8000704 <tud_descriptor_string_cb+0xb4>)
 800066e:	681b      	ldr	r3, [r3, #0]
 8000670:	881b      	ldrh	r3, [r3, #0]
 8000672:	b29a      	uxth	r2, r3
 8000674:	4b24      	ldr	r3, [pc, #144]	@ (8000708 <tud_descriptor_string_cb+0xb8>)
 8000676:	805a      	strh	r2, [r3, #2]
      chr_count = 1;
 8000678:	2301      	movs	r3, #1
 800067a:	617b      	str	r3, [r7, #20]
      break;
 800067c:	e031      	b.n	80006e2 <tud_descriptor_string_cb+0x92>

    case STRID_SERIAL:
      chr_count = board_usb_get_serial(_desc_str + 1, 32);
 800067e:	4b23      	ldr	r3, [pc, #140]	@ (800070c <tud_descriptor_string_cb+0xbc>)
 8000680:	2120      	movs	r1, #32
 8000682:	4618      	mov	r0, r3
 8000684:	f7ff ff78 	bl	8000578 <board_usb_get_serial>
 8000688:	6178      	str	r0, [r7, #20]
      break;
 800068a:	e02a      	b.n	80006e2 <tud_descriptor_string_cb+0x92>

    default:
      // Note: the 0xEE index string is a Microsoft OS 1.0 Descriptors.
      // https://docs.microsoft.com/en-us/windows-hardware/drivers/usbcon/microsoft-defined-usb-descriptors

      if ( !(index < sizeof(string_desc_arr) / sizeof(string_desc_arr[0])) ) { return NULL; }
 800068c:	79fb      	ldrb	r3, [r7, #7]
 800068e:	2b04      	cmp	r3, #4
 8000690:	d901      	bls.n	8000696 <tud_descriptor_string_cb+0x46>
 8000692:	2300      	movs	r3, #0
 8000694:	e031      	b.n	80006fa <tud_descriptor_string_cb+0xaa>

      const char *str = string_desc_arr[index];
 8000696:	79fb      	ldrb	r3, [r7, #7]
 8000698:	4a1a      	ldr	r2, [pc, #104]	@ (8000704 <tud_descriptor_string_cb+0xb4>)
 800069a:	f852 3023 	ldr.w	r3, [r2, r3, lsl #2]
 800069e:	60fb      	str	r3, [r7, #12]

      // Cap at max char
      chr_count = strlen(str);
 80006a0:	68f8      	ldr	r0, [r7, #12]
 80006a2:	f7ff fd53 	bl	800014c <strlen>
 80006a6:	6178      	str	r0, [r7, #20]
      size_t const max_count = sizeof(_desc_str) / sizeof(_desc_str[0]) - 1; // -1 for string type
 80006a8:	2320      	movs	r3, #32
 80006aa:	60bb      	str	r3, [r7, #8]
      if ( chr_count > max_count ) { chr_count = max_count; }
 80006ac:	697a      	ldr	r2, [r7, #20]
 80006ae:	68bb      	ldr	r3, [r7, #8]
 80006b0:	429a      	cmp	r2, r3
 80006b2:	d901      	bls.n	80006b8 <tud_descriptor_string_cb+0x68>
 80006b4:	68bb      	ldr	r3, [r7, #8]
 80006b6:	617b      	str	r3, [r7, #20]

      // Convert ASCII string into UTF-16
      for ( size_t i = 0; i < chr_count; i++ ) {
 80006b8:	2300      	movs	r3, #0
 80006ba:	613b      	str	r3, [r7, #16]
 80006bc:	e00c      	b.n	80006d8 <tud_descriptor_string_cb+0x88>
        _desc_str[1 + i] = str[i];
 80006be:	68fa      	ldr	r2, [r7, #12]
 80006c0:	693b      	ldr	r3, [r7, #16]
 80006c2:	4413      	add	r3, r2
 80006c4:	781a      	ldrb	r2, [r3, #0]
 80006c6:	693b      	ldr	r3, [r7, #16]
 80006c8:	3301      	adds	r3, #1
 80006ca:	4611      	mov	r1, r2
 80006cc:	4a0e      	ldr	r2, [pc, #56]	@ (8000708 <tud_descriptor_string_cb+0xb8>)
 80006ce:	f822 1013 	strh.w	r1, [r2, r3, lsl #1]
      for ( size_t i = 0; i < chr_count; i++ ) {
 80006d2:	693b      	ldr	r3, [r7, #16]
 80006d4:	3301      	adds	r3, #1
 80006d6:	613b      	str	r3, [r7, #16]
 80006d8:	693a      	ldr	r2, [r7, #16]
 80006da:	697b      	ldr	r3, [r7, #20]
 80006dc:	429a      	cmp	r2, r3
 80006de:	d3ee      	bcc.n	80006be <tud_descriptor_string_cb+0x6e>
      }
      break;
 80006e0:	bf00      	nop
  }

  // first byte is length (including header), second byte is string type
  _desc_str[0] = (uint16_t) ((TUSB_DESC_STRING << 8) | (2 * chr_count + 2));
 80006e2:	697b      	ldr	r3, [r7, #20]
 80006e4:	b29b      	uxth	r3, r3
 80006e6:	3301      	adds	r3, #1
 80006e8:	b29b      	uxth	r3, r3
 80006ea:	005b      	lsls	r3, r3, #1
 80006ec:	b29b      	uxth	r3, r3
 80006ee:	f443 7340 	orr.w	r3, r3, #768	@ 0x300
 80006f2:	b29a      	uxth	r2, r3
 80006f4:	4b04      	ldr	r3, [pc, #16]	@ (8000708 <tud_descriptor_string_cb+0xb8>)
 80006f6:	801a      	strh	r2, [r3, #0]
  return _desc_str;
 80006f8:	4b03      	ldr	r3, [pc, #12]	@ (8000708 <tud_descriptor_string_cb+0xb8>)
}
 80006fa:	4618      	mov	r0, r3
 80006fc:	3718      	adds	r7, #24
 80006fe:	46bd      	mov	sp, r7
 8000700:	bd80      	pop	{r7, pc}
 8000702:	bf00      	nop
 8000704:	20000004 	.word	0x20000004
 8000708:	20000334 	.word	0x20000334
 800070c:	20000336 	.word	0x20000336

08000710 <Reset_Handler>:
  .weak Reset_Handler
  .type Reset_Handler, %function
Reset_Handler:

/* Call the clock system initialization function.*/
    bl  SystemInit
 8000710:	f7ff ff07 	bl	8000522 <SystemInit>

/* Copy the data segment initializers from flash to SRAM */
  ldr r0, =_sdata
 8000714:	480b      	ldr	r0, [pc, #44]	@ (8000744 <LoopFillZerobss+0xe>)
  ldr r1, =_edata
 8000716:	490c      	ldr	r1, [pc, #48]	@ (8000748 <LoopFillZerobss+0x12>)
  ldr r2, =_sidata
 8000718:	4a0c      	ldr	r2, [pc, #48]	@ (800074c <LoopFillZerobss+0x16>)
  movs r3, #0
 800071a:	2300      	movs	r3, #0
  b LoopCopyDataInit
 800071c:	e002      	b.n	8000724 <LoopCopyDataInit>

0800071e <CopyDataInit>:

CopyDataInit:
  ldr r4, [r2, r3]
 800071e:	58d4      	ldr	r4, [r2, r3]
  str r4, [r0, r3]
 8000720:	50c4      	str	r4, [r0, r3]
  adds r3, r3, #4
 8000722:	3304      	adds	r3, #4

08000724 <LoopCopyDataInit>:

LoopCopyDataInit:
  adds r4, r0, r3
 8000724:	18c4      	adds	r4, r0, r3
  cmp r4, r1
 8000726:	428c      	cmp	r4, r1
  bcc CopyDataInit
 8000728:	d3f9      	bcc.n	800071e <CopyDataInit>
  
/* Zero fill the bss segment. */
  ldr r2, =_sbss
 800072a:	4a09      	ldr	r2, [pc, #36]	@ (8000750 <LoopFillZerobss+0x1a>)
  ldr r4, =_ebss
 800072c:	4c09      	ldr	r4, [pc, #36]	@ (8000754 <LoopFillZerobss+0x1e>)
  movs r3, #0
 800072e:	2300      	movs	r3, #0
  b LoopFillZerobss
 8000730:	e001      	b.n	8000736 <LoopFillZerobss>

08000732 <FillZerobss>:

FillZerobss:
  str  r3, [r2]
 8000732:	6013      	str	r3, [r2, #0]
  adds r2, r2, #4
 8000734:	3204      	adds	r2, #4

08000736 <LoopFillZerobss>:

LoopFillZerobss:
  cmp r2, r4
 8000736:	42a2      	cmp	r2, r4
  bcc FillZerobss
 8000738:	d3fb      	bcc.n	8000732 <FillZerobss>

/* Call static constructors */
    bl __libc_init_array
 800073a:	f006 ffcd 	bl	80076d8 <__libc_init_array>
/* Call the application's entry point.*/
  bl main
 800073e:	f7ff fd0d 	bl	800015c <main>
  bx lr
 8000742:	4770      	bx	lr
  ldr r0, =_sdata
 8000744:	20000000 	.word	0x20000000
  ldr r1, =_edata
 8000748:	20000040 	.word	0x20000040
  ldr r2, =_sidata
 800074c:	08007848 	.word	0x08007848
  ldr r2, =_sbss
 8000750:	20000040 	.word	0x20000040
  ldr r4, =_ebss
 8000754:	200006b8 	.word	0x200006b8

08000758 <ADC1_2_IRQHandler>:
 * @retval : None
*/
    .section .text.Default_Handler,"ax",%progbits
Default_Handler:
Infinite_Loop:
  b Infinite_Loop
 8000758:	e7fe      	b.n	8000758 <ADC1_2_IRQHandler>

0800075a <tud_cdc_rx_cb>:
#endif

//--------------------------------------------------------------------+
// Weak stubs: invoked if no strong implementation is available
//--------------------------------------------------------------------+
TU_ATTR_WEAK void tud_cdc_rx_cb(uint8_t itf) {
 800075a:	b480      	push	{r7}
 800075c:	b083      	sub	sp, #12
 800075e:	af00      	add	r7, sp, #0
 8000760:	4603      	mov	r3, r0
 8000762:	71fb      	strb	r3, [r7, #7]
  (void)itf;
}
 8000764:	bf00      	nop
 8000766:	370c      	adds	r7, #12
 8000768:	46bd      	mov	sp, r7
 800076a:	bc80      	pop	{r7}
 800076c:	4770      	bx	lr

0800076e <tud_cdc_rx_wanted_cb>:

TU_ATTR_WEAK void tud_cdc_rx_wanted_cb(uint8_t itf, char wanted_char) {
 800076e:	b480      	push	{r7}
 8000770:	b083      	sub	sp, #12
 8000772:	af00      	add	r7, sp, #0
 8000774:	4603      	mov	r3, r0
 8000776:	460a      	mov	r2, r1
 8000778:	71fb      	strb	r3, [r7, #7]
 800077a:	4613      	mov	r3, r2
 800077c:	71bb      	strb	r3, [r7, #6]
  (void)itf;
  (void)wanted_char;
}
 800077e:	bf00      	nop
 8000780:	370c      	adds	r7, #12
 8000782:	46bd      	mov	sp, r7
 8000784:	bc80      	pop	{r7}
 8000786:	4770      	bx	lr

08000788 <tud_cdc_tx_complete_cb>:

TU_ATTR_WEAK void tud_cdc_tx_complete_cb(uint8_t itf) {
 8000788:	b480      	push	{r7}
 800078a:	b083      	sub	sp, #12
 800078c:	af00      	add	r7, sp, #0
 800078e:	4603      	mov	r3, r0
 8000790:	71fb      	strb	r3, [r7, #7]
  (void)itf;
}
 8000792:	bf00      	nop
 8000794:	370c      	adds	r7, #12
 8000796:	46bd      	mov	sp, r7
 8000798:	bc80      	pop	{r7}
 800079a:	4770      	bx	lr

0800079c <tud_cdc_notify_complete_cb>:

TU_ATTR_WEAK void tud_cdc_notify_complete_cb(uint8_t itf) {
 800079c:	b480      	push	{r7}
 800079e:	b083      	sub	sp, #12
 80007a0:	af00      	add	r7, sp, #0
 80007a2:	4603      	mov	r3, r0
 80007a4:	71fb      	strb	r3, [r7, #7]
  (void)itf;
}
 80007a6:	bf00      	nop
 80007a8:	370c      	adds	r7, #12
 80007aa:	46bd      	mov	sp, r7
 80007ac:	bc80      	pop	{r7}
 80007ae:	4770      	bx	lr

080007b0 <tud_cdc_line_state_cb>:

TU_ATTR_WEAK void tud_cdc_line_state_cb(uint8_t itf, bool dtr, bool rts) {
 80007b0:	b480      	push	{r7}
 80007b2:	b083      	sub	sp, #12
 80007b4:	af00      	add	r7, sp, #0
 80007b6:	4603      	mov	r3, r0
 80007b8:	71fb      	strb	r3, [r7, #7]
 80007ba:	460b      	mov	r3, r1
 80007bc:	71bb      	strb	r3, [r7, #6]
 80007be:	4613      	mov	r3, r2
 80007c0:	717b      	strb	r3, [r7, #5]
  (void)itf;
  (void)dtr;
  (void)rts;
}
 80007c2:	bf00      	nop
 80007c4:	370c      	adds	r7, #12
 80007c6:	46bd      	mov	sp, r7
 80007c8:	bc80      	pop	{r7}
 80007ca:	4770      	bx	lr

080007cc <tud_cdc_line_coding_cb>:

TU_ATTR_WEAK void tud_cdc_line_coding_cb(uint8_t itf, const cdc_line_coding_t *p_line_coding) {
 80007cc:	b480      	push	{r7}
 80007ce:	b083      	sub	sp, #12
 80007d0:	af00      	add	r7, sp, #0
 80007d2:	4603      	mov	r3, r0
 80007d4:	6039      	str	r1, [r7, #0]
 80007d6:	71fb      	strb	r3, [r7, #7]
  (void)itf;
  (void)p_line_coding;
}
 80007d8:	bf00      	nop
 80007da:	370c      	adds	r7, #12
 80007dc:	46bd      	mov	sp, r7
 80007de:	bc80      	pop	{r7}
 80007e0:	4770      	bx	lr

080007e2 <tud_cdc_send_break_cb>:

TU_ATTR_WEAK void tud_cdc_send_break_cb(uint8_t itf, uint16_t duration_ms) {
 80007e2:	b480      	push	{r7}
 80007e4:	b083      	sub	sp, #12
 80007e6:	af00      	add	r7, sp, #0
 80007e8:	4603      	mov	r3, r0
 80007ea:	460a      	mov	r2, r1
 80007ec:	71fb      	strb	r3, [r7, #7]
 80007ee:	4613      	mov	r3, r2
 80007f0:	80bb      	strh	r3, [r7, #4]
  (void)itf;
  (void)duration_ms;
}
 80007f2:	bf00      	nop
 80007f4:	370c      	adds	r7, #12
 80007f6:	46bd      	mov	sp, r7
 80007f8:	bc80      	pop	{r7}
 80007fa:	4770      	bx	lr

080007fc <tud_cdc_n_available>:
}

//--------------------------------------------------------------------+
// READ API
//--------------------------------------------------------------------+
uint32_t tud_cdc_n_available(uint8_t itf) {
 80007fc:	b480      	push	{r7}
 80007fe:	b08b      	sub	sp, #44	@ 0x2c
 8000800:	af00      	add	r7, sp, #0
 8000802:	4603      	mov	r3, r0
 8000804:	71fb      	strb	r3, [r7, #7]
  TU_VERIFY(itf < CFG_TUD_CDC, 0);
 8000806:	79fb      	ldrb	r3, [r7, #7]
 8000808:	2b00      	cmp	r3, #0
 800080a:	d001      	beq.n	8000810 <tud_cdc_n_available+0x14>
 800080c:	2300      	movs	r3, #0
 800080e:	e035      	b.n	800087c <tud_cdc_n_available+0x80>
  return tu_edpt_stream_read_available(&_cdcd_itf[itf].rx_stream);
 8000810:	79fb      	ldrb	r3, [r7, #7]
 8000812:	22bc      	movs	r2, #188	@ 0xbc
 8000814:	fb02 f303 	mul.w	r3, r2, r3
 8000818:	3320      	adds	r3, #32
 800081a:	4a1b      	ldr	r2, [pc, #108]	@ (8000888 <tud_cdc_n_available+0x8c>)
 800081c:	4413      	add	r3, r2
 800081e:	3304      	adds	r3, #4
 8000820:	627b      	str	r3, [r7, #36]	@ 0x24
  tu_fifo_write_n(&s->ff, buf, (uint16_t)xferred_bytes);
}

// Get the number of bytes available for reading
TU_ATTR_ALWAYS_INLINE static inline uint32_t tu_edpt_stream_read_available(const tu_edpt_stream_t *s) {
  return (uint32_t) tu_fifo_count(&s->ff);
 8000822:	6a7b      	ldr	r3, [r7, #36]	@ 0x24
 8000824:	330c      	adds	r3, #12
 8000826:	623b      	str	r3, [r7, #32]
  return wr_idx == rd_idx;
}

// return number of items in fifo, capped to fifo's depth
TU_ATTR_ALWAYS_INLINE static inline uint16_t tu_fifo_count(const tu_fifo_t *f) {
  const uint16_t wr_idx = f->wr_idx;
 8000828:	6a3b      	ldr	r3, [r7, #32]
 800082a:	891b      	ldrh	r3, [r3, #8]
 800082c:	83fb      	strh	r3, [r7, #30]
  const uint16_t rd_idx = f->rd_idx;
 800082e:	6a3b      	ldr	r3, [r7, #32]
 8000830:	895b      	ldrh	r3, [r3, #10]
 8000832:	83bb      	strh	r3, [r7, #28]
  return tu_min16(tu_ff_overflow_count(f->depth, wr_idx, rd_idx), f->depth);
 8000834:	6a3b      	ldr	r3, [r7, #32]
 8000836:	889b      	ldrh	r3, [r3, #4]
 8000838:	837b      	strh	r3, [r7, #26]
 800083a:	8bfb      	ldrh	r3, [r7, #30]
 800083c:	833b      	strh	r3, [r7, #24]
 800083e:	8bbb      	ldrh	r3, [r7, #28]
 8000840:	82fb      	strh	r3, [r7, #22]
  const int32_t diff = (int32_t)wr_idx - (int32_t)rd_idx;
 8000842:	8b3a      	ldrh	r2, [r7, #24]
 8000844:	8afb      	ldrh	r3, [r7, #22]
 8000846:	1ad3      	subs	r3, r2, r3
 8000848:	613b      	str	r3, [r7, #16]
  if (diff >= 0) {
 800084a:	693b      	ldr	r3, [r7, #16]
 800084c:	2b00      	cmp	r3, #0
 800084e:	db02      	blt.n	8000856 <tud_cdc_n_available+0x5a>
    return (uint16_t)diff;
 8000850:	693b      	ldr	r3, [r7, #16]
 8000852:	b29b      	uxth	r3, r3
 8000854:	e006      	b.n	8000864 <tud_cdc_n_available+0x68>
    return (uint16_t)(2 * depth + diff);
 8000856:	8b7b      	ldrh	r3, [r7, #26]
 8000858:	005b      	lsls	r3, r3, #1
 800085a:	b29a      	uxth	r2, r3
 800085c:	693b      	ldr	r3, [r7, #16]
 800085e:	b29b      	uxth	r3, r3
 8000860:	4413      	add	r3, r2
 8000862:	b29b      	uxth	r3, r3
  return tu_min16(tu_ff_overflow_count(f->depth, wr_idx, rd_idx), f->depth);
 8000864:	6a3a      	ldr	r2, [r7, #32]
 8000866:	8892      	ldrh	r2, [r2, #4]
 8000868:	81fb      	strh	r3, [r7, #14]
 800086a:	4613      	mov	r3, r2
 800086c:	81bb      	strh	r3, [r7, #12]
TU_ATTR_ALWAYS_INLINE static inline uint32_t tu_bit_clear(uint32_t value, uint8_t pos) { return value & (~TU_BIT(pos)); }
TU_ATTR_ALWAYS_INLINE static inline bool     tu_bit_test (uint32_t value, uint8_t pos) { return (value & TU_BIT(pos)) ? true : false; }

//------------- Min -------------//
TU_ATTR_ALWAYS_INLINE static inline uint8_t  tu_min8  (uint8_t  x, uint8_t y ) { return (x < y) ? x : y; }
TU_ATTR_ALWAYS_INLINE static inline uint16_t tu_min16 (uint16_t x, uint16_t y) { return (x < y) ? x : y; }
 800086e:	89fa      	ldrh	r2, [r7, #14]
 8000870:	89bb      	ldrh	r3, [r7, #12]
 8000872:	4293      	cmp	r3, r2
 8000874:	bf28      	it	cs
 8000876:	4613      	movcs	r3, r2
 8000878:	b29b      	uxth	r3, r3
 800087a:	bf00      	nop
}
 800087c:	4618      	mov	r0, r3
 800087e:	372c      	adds	r7, #44	@ 0x2c
 8000880:	46bd      	mov	sp, r7
 8000882:	bc80      	pop	{r7}
 8000884:	4770      	bx	lr
 8000886:	bf00      	nop
 8000888:	20000378 	.word	0x20000378

0800088c <tud_cdc_n_read>:

uint32_t tud_cdc_n_read(uint8_t itf, void* buffer, uint32_t bufsize) {
 800088c:	b580      	push	{r7, lr}
 800088e:	b086      	sub	sp, #24
 8000890:	af00      	add	r7, sp, #0
 8000892:	4603      	mov	r3, r0
 8000894:	60b9      	str	r1, [r7, #8]
 8000896:	607a      	str	r2, [r7, #4]
 8000898:	73fb      	strb	r3, [r7, #15]
  TU_VERIFY(itf < CFG_TUD_CDC, 0);
 800089a:	7bfb      	ldrb	r3, [r7, #15]
 800089c:	2b00      	cmp	r3, #0
 800089e:	d001      	beq.n	80008a4 <tud_cdc_n_read+0x18>
 80008a0:	2300      	movs	r3, #0
 80008a2:	e00e      	b.n	80008c2 <tud_cdc_n_read+0x36>
  cdcd_interface_t *p_cdc = &_cdcd_itf[itf];
 80008a4:	7bfb      	ldrb	r3, [r7, #15]
 80008a6:	22bc      	movs	r2, #188	@ 0xbc
 80008a8:	fb02 f303 	mul.w	r3, r2, r3
 80008ac:	4a07      	ldr	r2, [pc, #28]	@ (80008cc <tud_cdc_n_read+0x40>)
 80008ae:	4413      	add	r3, r2
 80008b0:	617b      	str	r3, [r7, #20]
  return tu_edpt_stream_read(&p_cdc->rx_stream, buffer, bufsize);
 80008b2:	697b      	ldr	r3, [r7, #20]
 80008b4:	3324      	adds	r3, #36	@ 0x24
 80008b6:	687a      	ldr	r2, [r7, #4]
 80008b8:	68b9      	ldr	r1, [r7, #8]
 80008ba:	4618      	mov	r0, r3
 80008bc:	f005 fcf8 	bl	80062b0 <tu_edpt_stream_read>
 80008c0:	4603      	mov	r3, r0
}
 80008c2:	4618      	mov	r0, r3
 80008c4:	3718      	adds	r7, #24
 80008c6:	46bd      	mov	sp, r7
 80008c8:	bd80      	pop	{r7, pc}
 80008ca:	bf00      	nop
 80008cc:	20000378 	.word	0x20000378

080008d0 <tud_cdc_n_write>:
}

//--------------------------------------------------------------------+
// WRITE API
//--------------------------------------------------------------------+
uint32_t tud_cdc_n_write(uint8_t itf, const void* buffer, uint32_t bufsize) {
 80008d0:	b580      	push	{r7, lr}
 80008d2:	b086      	sub	sp, #24
 80008d4:	af00      	add	r7, sp, #0
 80008d6:	4603      	mov	r3, r0
 80008d8:	60b9      	str	r1, [r7, #8]
 80008da:	607a      	str	r2, [r7, #4]
 80008dc:	73fb      	strb	r3, [r7, #15]
  TU_VERIFY(itf < CFG_TUD_CDC, 0);
 80008de:	7bfb      	ldrb	r3, [r7, #15]
 80008e0:	2b00      	cmp	r3, #0
 80008e2:	d001      	beq.n	80008e8 <tud_cdc_n_write+0x18>
 80008e4:	2300      	movs	r3, #0
 80008e6:	e00e      	b.n	8000906 <tud_cdc_n_write+0x36>
  cdcd_interface_t *p_cdc = &_cdcd_itf[itf];
 80008e8:	7bfb      	ldrb	r3, [r7, #15]
 80008ea:	22bc      	movs	r2, #188	@ 0xbc
 80008ec:	fb02 f303 	mul.w	r3, r2, r3
 80008f0:	4a07      	ldr	r2, [pc, #28]	@ (8000910 <tud_cdc_n_write+0x40>)
 80008f2:	4413      	add	r3, r2
 80008f4:	617b      	str	r3, [r7, #20]
  return tu_edpt_stream_write(&p_cdc->tx_stream, buffer, bufsize);
 80008f6:	697b      	ldr	r3, [r7, #20]
 80008f8:	330c      	adds	r3, #12
 80008fa:	687a      	ldr	r2, [r7, #4]
 80008fc:	68b9      	ldr	r1, [r7, #8]
 80008fe:	4618      	mov	r0, r3
 8000900:	f005 fbb0 	bl	8006064 <tu_edpt_stream_write>
 8000904:	4603      	mov	r3, r0
}
 8000906:	4618      	mov	r0, r3
 8000908:	3718      	adds	r7, #24
 800090a:	46bd      	mov	sp, r7
 800090c:	bd80      	pop	{r7, pc}
 800090e:	bf00      	nop
 8000910:	20000378 	.word	0x20000378

08000914 <tud_cdc_n_write_flush>:

uint32_t tud_cdc_n_write_flush(uint8_t itf) {
 8000914:	b580      	push	{r7, lr}
 8000916:	b084      	sub	sp, #16
 8000918:	af00      	add	r7, sp, #0
 800091a:	4603      	mov	r3, r0
 800091c:	71fb      	strb	r3, [r7, #7]
  TU_VERIFY(itf < CFG_TUD_CDC, 0);
 800091e:	79fb      	ldrb	r3, [r7, #7]
 8000920:	2b00      	cmp	r3, #0
 8000922:	d001      	beq.n	8000928 <tud_cdc_n_write_flush+0x14>
 8000924:	2300      	movs	r3, #0
 8000926:	e00c      	b.n	8000942 <tud_cdc_n_write_flush+0x2e>
  cdcd_interface_t *p_cdc = &_cdcd_itf[itf];
 8000928:	79fb      	ldrb	r3, [r7, #7]
 800092a:	22bc      	movs	r2, #188	@ 0xbc
 800092c:	fb02 f303 	mul.w	r3, r2, r3
 8000930:	4a06      	ldr	r2, [pc, #24]	@ (800094c <tud_cdc_n_write_flush+0x38>)
 8000932:	4413      	add	r3, r2
 8000934:	60fb      	str	r3, [r7, #12]
  return tu_edpt_stream_write_xfer(&p_cdc->tx_stream);
 8000936:	68fb      	ldr	r3, [r7, #12]
 8000938:	330c      	adds	r3, #12
 800093a:	4618      	mov	r0, r3
 800093c:	f005 fadc 	bl	8005ef8 <tu_edpt_stream_write_xfer>
 8000940:	4603      	mov	r3, r0
}
 8000942:	4618      	mov	r0, r3
 8000944:	3710      	adds	r7, #16
 8000946:	46bd      	mov	sp, r7
 8000948:	bd80      	pop	{r7, pc}
 800094a:	bf00      	nop
 800094c:	20000378 	.word	0x20000378

08000950 <cdcd_init>:
}

//--------------------------------------------------------------------+
// USBD Driver API
//--------------------------------------------------------------------+
void cdcd_init(void) {
 8000950:	b580      	push	{r7, lr}
 8000952:	b088      	sub	sp, #32
 8000954:	af04      	add	r7, sp, #16
  tu_memclr(_cdcd_itf, sizeof(_cdcd_itf));
 8000956:	22bc      	movs	r2, #188	@ 0xbc
 8000958:	2100      	movs	r1, #0
 800095a:	4825      	ldr	r0, [pc, #148]	@ (80009f0 <cdcd_init+0xa0>)
 800095c:	f006 feb4 	bl	80076c8 <memset>
  for (uint8_t i = 0; i < CFG_TUD_CDC; i++) {
 8000960:	2300      	movs	r3, #0
 8000962:	73fb      	strb	r3, [r7, #15]
 8000964:	e03b      	b.n	80009de <cdcd_init+0x8e>
    cdcd_interface_t *p_cdc   = &_cdcd_itf[i];
 8000966:	7bfb      	ldrb	r3, [r7, #15]
 8000968:	22bc      	movs	r2, #188	@ 0xbc
 800096a:	fb02 f303 	mul.w	r3, r2, r3
 800096e:	4a20      	ldr	r2, [pc, #128]	@ (80009f0 <cdcd_init+0xa0>)
 8000970:	4413      	add	r3, r2
 8000972:	60bb      	str	r3, [r7, #8]
    p_cdc->wanted_char = (char) -1;
 8000974:	68bb      	ldr	r3, [r7, #8]
 8000976:	22ff      	movs	r2, #255	@ 0xff
 8000978:	72da      	strb	r2, [r3, #11]

    // default line coding is : stop bit = 1, parity = none, data bits = 8
    p_cdc->line_coding.bit_rate = 115200;
 800097a:	68bb      	ldr	r3, [r7, #8]
 800097c:	f44f 32e1 	mov.w	r2, #115200	@ 0x1c200
 8000980:	605a      	str	r2, [r3, #4]
    p_cdc->line_coding.stop_bits = 0;
 8000982:	68bb      	ldr	r3, [r7, #8]
 8000984:	2200      	movs	r2, #0
 8000986:	721a      	strb	r2, [r3, #8]
    p_cdc->line_coding.parity = 0;
 8000988:	68bb      	ldr	r3, [r7, #8]
 800098a:	2200      	movs	r2, #0
 800098c:	725a      	strb	r2, [r3, #9]
    p_cdc->line_coding.data_bits = 8;
 800098e:	68bb      	ldr	r3, [r7, #8]
 8000990:	2208      	movs	r2, #8
 8000992:	729a      	strb	r2, [r3, #10]

  #if CFG_TUD_EDPT_DEDICATED_HWFIFO
    uint8_t *epout_buf = NULL;
 8000994:	2300      	movs	r3, #0
 8000996:	607b      	str	r3, [r7, #4]
    uint8_t *epin_buf  = NULL;
 8000998:	2300      	movs	r3, #0
 800099a:	603b      	str	r3, [r7, #0]
  #else
    uint8_t *epout_buf = _cdcd_epbuf[i].epout;
    uint8_t *epin_buf  = _cdcd_epbuf[i].epin;
  #endif

    tu_edpt_stream_init(&p_cdc->rx_stream, false, false, false, p_cdc->rx_ff_buf, CFG_TUD_CDC_RX_BUFSIZE, epout_buf);
 800099c:	68bb      	ldr	r3, [r7, #8]
 800099e:	f103 0024 	add.w	r0, r3, #36	@ 0x24
 80009a2:	68bb      	ldr	r3, [r7, #8]
 80009a4:	337c      	adds	r3, #124	@ 0x7c
 80009a6:	687a      	ldr	r2, [r7, #4]
 80009a8:	9202      	str	r2, [sp, #8]
 80009aa:	2240      	movs	r2, #64	@ 0x40
 80009ac:	9201      	str	r2, [sp, #4]
 80009ae:	9300      	str	r3, [sp, #0]
 80009b0:	2300      	movs	r3, #0
 80009b2:	2200      	movs	r2, #0
 80009b4:	2100      	movs	r1, #0
 80009b6:	f005 f9c1 	bl	8005d3c <tu_edpt_stream_init>

    // TX fifo can be configured to change to overwritable if not connected (DTR bit not set). Without DTR we do not
    // know if data is actually polled by terminal. This way the most current data is prioritized.
    // Default: is overwritable
    tu_edpt_stream_init(&p_cdc->tx_stream, false, true, CFG_TUD_CDC_TX_OVERWRITABLE_IF_NOT_CONNECTED, p_cdc->tx_ff_buf,
 80009ba:	68bb      	ldr	r3, [r7, #8]
 80009bc:	f103 000c 	add.w	r0, r3, #12
 80009c0:	68bb      	ldr	r3, [r7, #8]
 80009c2:	333c      	adds	r3, #60	@ 0x3c
 80009c4:	683a      	ldr	r2, [r7, #0]
 80009c6:	9202      	str	r2, [sp, #8]
 80009c8:	2240      	movs	r2, #64	@ 0x40
 80009ca:	9201      	str	r2, [sp, #4]
 80009cc:	9300      	str	r3, [sp, #0]
 80009ce:	2301      	movs	r3, #1
 80009d0:	2201      	movs	r2, #1
 80009d2:	2100      	movs	r1, #0
 80009d4:	f005 f9b2 	bl	8005d3c <tu_edpt_stream_init>
  for (uint8_t i = 0; i < CFG_TUD_CDC; i++) {
 80009d8:	7bfb      	ldrb	r3, [r7, #15]
 80009da:	3301      	adds	r3, #1
 80009dc:	73fb      	strb	r3, [r7, #15]
 80009de:	7bfb      	ldrb	r3, [r7, #15]
 80009e0:	2b00      	cmp	r3, #0
 80009e2:	d0c0      	beq.n	8000966 <cdcd_init+0x16>
                        CFG_TUD_CDC_TX_BUFSIZE, epin_buf);
  }
}
 80009e4:	bf00      	nop
 80009e6:	bf00      	nop
 80009e8:	3710      	adds	r7, #16
 80009ea:	46bd      	mov	sp, r7
 80009ec:	bd80      	pop	{r7, pc}
 80009ee:	bf00      	nop
 80009f0:	20000378 	.word	0x20000378

080009f4 <cdcd_deinit>:

bool cdcd_deinit(void) {
 80009f4:	b480      	push	{r7}
 80009f6:	b085      	sub	sp, #20
 80009f8:	af00      	add	r7, sp, #0
  for (uint8_t i = 0; i < CFG_TUD_CDC; i++) {
 80009fa:	2300      	movs	r3, #0
 80009fc:	73fb      	strb	r3, [r7, #15]
 80009fe:	e011      	b.n	8000a24 <cdcd_deinit+0x30>
    cdcd_interface_t* p_cdc = &_cdcd_itf[i];
 8000a00:	7bfb      	ldrb	r3, [r7, #15]
 8000a02:	22bc      	movs	r2, #188	@ 0xbc
 8000a04:	fb02 f303 	mul.w	r3, r2, r3
 8000a08:	4a0b      	ldr	r2, [pc, #44]	@ (8000a38 <cdcd_deinit+0x44>)
 8000a0a:	4413      	add	r3, r2
 8000a0c:	60bb      	str	r3, [r7, #8]
    tu_edpt_stream_deinit(&p_cdc->rx_stream);
 8000a0e:	68bb      	ldr	r3, [r7, #8]
 8000a10:	3324      	adds	r3, #36	@ 0x24
 8000a12:	603b      	str	r3, [r7, #0]
}
 8000a14:	bf00      	nop
    tu_edpt_stream_deinit(&p_cdc->tx_stream);
 8000a16:	68bb      	ldr	r3, [r7, #8]
 8000a18:	330c      	adds	r3, #12
 8000a1a:	607b      	str	r3, [r7, #4]
 8000a1c:	bf00      	nop
  for (uint8_t i = 0; i < CFG_TUD_CDC; i++) {
 8000a1e:	7bfb      	ldrb	r3, [r7, #15]
 8000a20:	3301      	adds	r3, #1
 8000a22:	73fb      	strb	r3, [r7, #15]
 8000a24:	7bfb      	ldrb	r3, [r7, #15]
 8000a26:	2b00      	cmp	r3, #0
 8000a28:	d0ea      	beq.n	8000a00 <cdcd_deinit+0xc>
  }
  return true;
 8000a2a:	2301      	movs	r3, #1
}
 8000a2c:	4618      	mov	r0, r3
 8000a2e:	3714      	adds	r7, #20
 8000a30:	46bd      	mov	sp, r7
 8000a32:	bc80      	pop	{r7}
 8000a34:	4770      	bx	lr
 8000a36:	bf00      	nop
 8000a38:	20000378 	.word	0x20000378

08000a3c <cdcd_reset>:

void cdcd_reset(uint8_t rhport) {
 8000a3c:	b580      	push	{r7, lr}
 8000a3e:	b086      	sub	sp, #24
 8000a40:	af00      	add	r7, sp, #0
 8000a42:	4603      	mov	r3, r0
 8000a44:	71fb      	strb	r3, [r7, #7]
  (void) rhport;

  for (uint8_t i = 0; i < CFG_TUD_CDC; i++) {
 8000a46:	2300      	movs	r3, #0
 8000a48:	75fb      	strb	r3, [r7, #23]
 8000a4a:	e022      	b.n	8000a92 <cdcd_reset+0x56>
    cdcd_interface_t* p_cdc = &_cdcd_itf[i];
 8000a4c:	7dfb      	ldrb	r3, [r7, #23]
 8000a4e:	22bc      	movs	r2, #188	@ 0xbc
 8000a50:	fb02 f303 	mul.w	r3, r2, r3
 8000a54:	4a13      	ldr	r2, [pc, #76]	@ (8000aa4 <cdcd_reset+0x68>)
 8000a56:	4413      	add	r3, r2
 8000a58:	613b      	str	r3, [r7, #16]
    tu_memclr(p_cdc, ITF_MEM_RESET_SIZE);
 8000a5a:	2204      	movs	r2, #4
 8000a5c:	2100      	movs	r1, #0
 8000a5e:	6938      	ldr	r0, [r7, #16]
 8000a60:	f006 fe32 	bl	80076c8 <memset>

    tu_fifo_set_overwritable(&p_cdc->tx_stream.ff, CFG_TUD_CDC_TX_OVERWRITABLE_IF_NOT_CONNECTED); // back to default
 8000a64:	693b      	ldr	r3, [r7, #16]
 8000a66:	3318      	adds	r3, #24
 8000a68:	2101      	movs	r1, #1
 8000a6a:	4618      	mov	r0, r3
 8000a6c:	f000 fc71 	bl	8001352 <tu_fifo_set_overwritable>
    tu_edpt_stream_close(&p_cdc->rx_stream);
 8000a70:	693b      	ldr	r3, [r7, #16]
 8000a72:	3324      	adds	r3, #36	@ 0x24
 8000a74:	60bb      	str	r3, [r7, #8]
  s->ep_addr = 0;
 8000a76:	68bb      	ldr	r3, [r7, #8]
 8000a78:	2200      	movs	r2, #0
 8000a7a:	709a      	strb	r2, [r3, #2]
}
 8000a7c:	bf00      	nop
    tu_edpt_stream_close(&p_cdc->tx_stream);
 8000a7e:	693b      	ldr	r3, [r7, #16]
 8000a80:	330c      	adds	r3, #12
 8000a82:	60fb      	str	r3, [r7, #12]
  s->ep_addr = 0;
 8000a84:	68fb      	ldr	r3, [r7, #12]
 8000a86:	2200      	movs	r2, #0
 8000a88:	709a      	strb	r2, [r3, #2]
}
 8000a8a:	bf00      	nop
  for (uint8_t i = 0; i < CFG_TUD_CDC; i++) {
 8000a8c:	7dfb      	ldrb	r3, [r7, #23]
 8000a8e:	3301      	adds	r3, #1
 8000a90:	75fb      	strb	r3, [r7, #23]
 8000a92:	7dfb      	ldrb	r3, [r7, #23]
 8000a94:	2b00      	cmp	r3, #0
 8000a96:	d0d9      	beq.n	8000a4c <cdcd_reset+0x10>
  }
}
 8000a98:	bf00      	nop
 8000a9a:	bf00      	nop
 8000a9c:	3718      	adds	r7, #24
 8000a9e:	46bd      	mov	sp, r7
 8000aa0:	bd80      	pop	{r7, pc}
 8000aa2:	bf00      	nop
 8000aa4:	20000378 	.word	0x20000378

08000aa8 <cdcd_open>:

uint16_t cdcd_open(uint8_t rhport, const tusb_desc_interface_t* itf_desc, uint16_t max_len) {
 8000aa8:	b580      	push	{r7, lr}
 8000aaa:	b0b6      	sub	sp, #216	@ 0xd8
 8000aac:	af00      	add	r7, sp, #0
 8000aae:	4603      	mov	r3, r0
 8000ab0:	6039      	str	r1, [r7, #0]
 8000ab2:	71fb      	strb	r3, [r7, #7]
 8000ab4:	4613      	mov	r3, r2
 8000ab6:	80bb      	strh	r3, [r7, #4]
  // Only support ACM subclass
  TU_VERIFY(TUSB_CLASS_CDC == itf_desc->bInterfaceClass &&
 8000ab8:	683b      	ldr	r3, [r7, #0]
 8000aba:	795b      	ldrb	r3, [r3, #5]
 8000abc:	2b02      	cmp	r3, #2
 8000abe:	d103      	bne.n	8000ac8 <cdcd_open+0x20>
 8000ac0:	683b      	ldr	r3, [r7, #0]
 8000ac2:	799b      	ldrb	r3, [r3, #6]
 8000ac4:	2b02      	cmp	r3, #2
 8000ac6:	d001      	beq.n	8000acc <cdcd_open+0x24>
 8000ac8:	2300      	movs	r3, #0
 8000aca:	e210      	b.n	8000eee <cdcd_open+0x446>
 8000acc:	2300      	movs	r3, #0
 8000ace:	f887 309b 	strb.w	r3, [r7, #155]	@ 0x9b
  for (uint8_t idx = 0; idx < CFG_TUD_CDC; idx++) {
 8000ad2:	2300      	movs	r3, #0
 8000ad4:	f887 309a 	strb.w	r3, [r7, #154]	@ 0x9a
 8000ad8:	e02a      	b.n	8000b30 <cdcd_open+0x88>
    const cdcd_interface_t *p_cdc = &_cdcd_itf[idx];
 8000ada:	f897 309a 	ldrb.w	r3, [r7, #154]	@ 0x9a
 8000ade:	22bc      	movs	r2, #188	@ 0xbc
 8000ae0:	fb02 f303 	mul.w	r3, r2, r3
 8000ae4:	4aab      	ldr	r2, [pc, #684]	@ (8000d94 <cdcd_open+0x2ec>)
 8000ae6:	4413      	add	r3, r2
 8000ae8:	f8c7 3094 	str.w	r3, [r7, #148]	@ 0x94
    if (ep_addr == p_cdc->rx_stream.ep_addr || ep_addr == p_cdc->tx_stream.ep_addr ||
 8000aec:	f8d7 3094 	ldr.w	r3, [r7, #148]	@ 0x94
 8000af0:	f893 3026 	ldrb.w	r3, [r3, #38]	@ 0x26
 8000af4:	f897 209b 	ldrb.w	r2, [r7, #155]	@ 0x9b
 8000af8:	429a      	cmp	r2, r3
 8000afa:	d011      	beq.n	8000b20 <cdcd_open+0x78>
 8000afc:	f8d7 3094 	ldr.w	r3, [r7, #148]	@ 0x94
 8000b00:	7b9b      	ldrb	r3, [r3, #14]
 8000b02:	f897 209b 	ldrb.w	r2, [r7, #155]	@ 0x9b
 8000b06:	429a      	cmp	r2, r3
 8000b08:	d00a      	beq.n	8000b20 <cdcd_open+0x78>
        (ep_addr == p_cdc->ep_notify && ep_addr != 0)) {
 8000b0a:	f8d7 3094 	ldr.w	r3, [r7, #148]	@ 0x94
 8000b0e:	789b      	ldrb	r3, [r3, #2]
    if (ep_addr == p_cdc->rx_stream.ep_addr || ep_addr == p_cdc->tx_stream.ep_addr ||
 8000b10:	f897 209b 	ldrb.w	r2, [r7, #155]	@ 0x9b
 8000b14:	429a      	cmp	r2, r3
 8000b16:	d106      	bne.n	8000b26 <cdcd_open+0x7e>
        (ep_addr == p_cdc->ep_notify && ep_addr != 0)) {
 8000b18:	f897 309b 	ldrb.w	r3, [r7, #155]	@ 0x9b
 8000b1c:	2b00      	cmp	r3, #0
 8000b1e:	d002      	beq.n	8000b26 <cdcd_open+0x7e>
      return idx;
 8000b20:	f897 309a 	ldrb.w	r3, [r7, #154]	@ 0x9a
 8000b24:	e009      	b.n	8000b3a <cdcd_open+0x92>
  for (uint8_t idx = 0; idx < CFG_TUD_CDC; idx++) {
 8000b26:	f897 309a 	ldrb.w	r3, [r7, #154]	@ 0x9a
 8000b2a:	3301      	adds	r3, #1
 8000b2c:	f887 309a 	strb.w	r3, [r7, #154]	@ 0x9a
 8000b30:	f897 309a 	ldrb.w	r3, [r7, #154]	@ 0x9a
 8000b34:	2b00      	cmp	r3, #0
 8000b36:	d0d0      	beq.n	8000ada <cdcd_open+0x32>
  return TUSB_INDEX_INVALID_8;
 8000b38:	23ff      	movs	r3, #255	@ 0xff
              CDC_COMM_SUBCLASS_ABSTRACT_CONTROL_MODEL == itf_desc->bInterfaceSubClass,
            0);

  const uint8_t cdc_id = find_cdc_itf(0); // Find available interface
 8000b3a:	f887 30d2 	strb.w	r3, [r7, #210]	@ 0xd2
  TU_ASSERT(cdc_id < CFG_TUD_CDC, 0);
 8000b3e:	f897 30d2 	ldrb.w	r3, [r7, #210]	@ 0xd2
 8000b42:	2b00      	cmp	r3, #0
 8000b44:	d00c      	beq.n	8000b60 <cdcd_open+0xb8>
 8000b46:	4b94      	ldr	r3, [pc, #592]	@ (8000d98 <cdcd_open+0x2f0>)
 8000b48:	f8c7 309c 	str.w	r3, [r7, #156]	@ 0x9c
 8000b4c:	f8d7 309c 	ldr.w	r3, [r7, #156]	@ 0x9c
 8000b50:	681b      	ldr	r3, [r3, #0]
 8000b52:	f003 0301 	and.w	r3, r3, #1
 8000b56:	2b00      	cmp	r3, #0
 8000b58:	d000      	beq.n	8000b5c <cdcd_open+0xb4>
 8000b5a:	be00      	bkpt	0x0000
 8000b5c:	2300      	movs	r3, #0
 8000b5e:	e1c6      	b.n	8000eee <cdcd_open+0x446>
  cdcd_interface_t *p_cdc = &_cdcd_itf[cdc_id];
 8000b60:	f897 30d2 	ldrb.w	r3, [r7, #210]	@ 0xd2
 8000b64:	22bc      	movs	r2, #188	@ 0xbc
 8000b66:	fb02 f303 	mul.w	r3, r2, r3
 8000b6a:	4a8a      	ldr	r2, [pc, #552]	@ (8000d94 <cdcd_open+0x2ec>)
 8000b6c:	4413      	add	r3, r2
 8000b6e:	f8c7 30cc 	str.w	r3, [r7, #204]	@ 0xcc

  //------------- Control Interface -------------//
  p_cdc->rhport = rhport;
 8000b72:	f8d7 30cc 	ldr.w	r3, [r7, #204]	@ 0xcc
 8000b76:	79fa      	ldrb	r2, [r7, #7]
 8000b78:	701a      	strb	r2, [r3, #0]
  p_cdc->itf_num = itf_desc->bInterfaceNumber;
 8000b7a:	683b      	ldr	r3, [r7, #0]
 8000b7c:	789a      	ldrb	r2, [r3, #2]
 8000b7e:	f8d7 30cc 	ldr.w	r3, [r7, #204]	@ 0xcc
 8000b82:	705a      	strb	r2, [r3, #1]

  const uint8_t *p_desc   = (const uint8_t *)itf_desc;
 8000b84:	683b      	ldr	r3, [r7, #0]
 8000b86:	f8c7 30d4 	str.w	r3, [r7, #212]	@ 0xd4
  const uint8_t *desc_end = p_desc + max_len;
 8000b8a:	88bb      	ldrh	r3, [r7, #4]
 8000b8c:	f8d7 20d4 	ldr.w	r2, [r7, #212]	@ 0xd4
 8000b90:	4413      	add	r3, r2
 8000b92:	f8c7 30c8 	str.w	r3, [r7, #200]	@ 0xc8
 8000b96:	683b      	ldr	r3, [r7, #0]
 8000b98:	f8c7 3090 	str.w	r3, [r7, #144]	@ 0x90
// Descriptor helper
//--------------------------------------------------------------------+

// return next descriptor
TU_ATTR_ALWAYS_INLINE static inline uint8_t const * tu_desc_next(void const* desc) {
  uint8_t const* desc8 = (uint8_t const*) desc;
 8000b9c:	f8d7 3090 	ldr.w	r3, [r7, #144]	@ 0x90
 8000ba0:	f8c7 308c 	str.w	r3, [r7, #140]	@ 0x8c
  return desc8 + desc8[DESC_OFFSET_LEN];
 8000ba4:	f8d7 308c 	ldr.w	r3, [r7, #140]	@ 0x8c
 8000ba8:	781b      	ldrb	r3, [r3, #0]
 8000baa:	461a      	mov	r2, r3
 8000bac:	f8d7 308c 	ldr.w	r3, [r7, #140]	@ 0x8c
 8000bb0:	4413      	add	r3, r2

  // Skip all class-specific descriptor
  p_desc = tu_desc_next(itf_desc);
 8000bb2:	f8c7 30d4 	str.w	r3, [r7, #212]	@ 0xd4
  while (tu_desc_in_bounds(p_desc, desc_end) && TUSB_DESC_CS_INTERFACE == tu_desc_type(p_desc)) {
 8000bb6:	e010      	b.n	8000bda <cdcd_open+0x132>
 8000bb8:	f8d7 30d4 	ldr.w	r3, [r7, #212]	@ 0xd4
 8000bbc:	f8c7 3088 	str.w	r3, [r7, #136]	@ 0x88
  uint8_t const* desc8 = (uint8_t const*) desc;
 8000bc0:	f8d7 3088 	ldr.w	r3, [r7, #136]	@ 0x88
 8000bc4:	f8c7 3084 	str.w	r3, [r7, #132]	@ 0x84
  return desc8 + desc8[DESC_OFFSET_LEN];
 8000bc8:	f8d7 3084 	ldr.w	r3, [r7, #132]	@ 0x84
 8000bcc:	781b      	ldrb	r3, [r3, #0]
 8000bce:	461a      	mov	r2, r3
 8000bd0:	f8d7 3084 	ldr.w	r3, [r7, #132]	@ 0x84
 8000bd4:	4413      	add	r3, r2
    p_desc = tu_desc_next(p_desc);
 8000bd6:	f8c7 30d4 	str.w	r3, [r7, #212]	@ 0xd4
 8000bda:	f8d7 30d4 	ldr.w	r3, [r7, #212]	@ 0xd4
 8000bde:	f8c7 3080 	str.w	r3, [r7, #128]	@ 0x80
 8000be2:	f8d7 30c8 	ldr.w	r3, [r7, #200]	@ 0xc8
 8000be6:	67fb      	str	r3, [r7, #124]	@ 0x7c
TU_ATTR_ALWAYS_INLINE static inline uint8_t tu_desc_subtype(void const* desc) {
  return ((uint8_t const*) desc)[DESC_OFFSET_SUBTYPE];
}

TU_ATTR_ALWAYS_INLINE static inline bool tu_desc_in_bounds(const uint8_t *p_desc, const uint8_t *desc_end) {
  return p_desc < desc_end && tu_desc_next(p_desc) <= desc_end;
 8000be8:	f8d7 2080 	ldr.w	r2, [r7, #128]	@ 0x80
 8000bec:	6ffb      	ldr	r3, [r7, #124]	@ 0x7c
 8000bee:	429a      	cmp	r2, r3
 8000bf0:	d20e      	bcs.n	8000c10 <cdcd_open+0x168>
 8000bf2:	f8d7 3080 	ldr.w	r3, [r7, #128]	@ 0x80
 8000bf6:	67bb      	str	r3, [r7, #120]	@ 0x78
  uint8_t const* desc8 = (uint8_t const*) desc;
 8000bf8:	6fbb      	ldr	r3, [r7, #120]	@ 0x78
 8000bfa:	677b      	str	r3, [r7, #116]	@ 0x74
  return desc8 + desc8[DESC_OFFSET_LEN];
 8000bfc:	6f7b      	ldr	r3, [r7, #116]	@ 0x74
 8000bfe:	781b      	ldrb	r3, [r3, #0]
 8000c00:	461a      	mov	r2, r3
 8000c02:	6f7b      	ldr	r3, [r7, #116]	@ 0x74
 8000c04:	4413      	add	r3, r2
  return p_desc < desc_end && tu_desc_next(p_desc) <= desc_end;
 8000c06:	6ffa      	ldr	r2, [r7, #124]	@ 0x7c
 8000c08:	429a      	cmp	r2, r3
 8000c0a:	d301      	bcc.n	8000c10 <cdcd_open+0x168>
 8000c0c:	2301      	movs	r3, #1
 8000c0e:	e000      	b.n	8000c12 <cdcd_open+0x16a>
 8000c10:	2300      	movs	r3, #0
 8000c12:	f003 0301 	and.w	r3, r3, #1
 8000c16:	b2db      	uxtb	r3, r3
  while (tu_desc_in_bounds(p_desc, desc_end) && TUSB_DESC_CS_INTERFACE == tu_desc_type(p_desc)) {
 8000c18:	2b00      	cmp	r3, #0
 8000c1a:	d007      	beq.n	8000c2c <cdcd_open+0x184>
 8000c1c:	f8d7 30d4 	ldr.w	r3, [r7, #212]	@ 0xd4
 8000c20:	673b      	str	r3, [r7, #112]	@ 0x70
  return ((uint8_t const*) desc)[DESC_OFFSET_TYPE];
 8000c22:	6f3b      	ldr	r3, [r7, #112]	@ 0x70
 8000c24:	3301      	adds	r3, #1
 8000c26:	781b      	ldrb	r3, [r3, #0]
 8000c28:	2b24      	cmp	r3, #36	@ 0x24
 8000c2a:	d0c5      	beq.n	8000bb8 <cdcd_open+0x110>
 8000c2c:	f8d7 30d4 	ldr.w	r3, [r7, #212]	@ 0xd4
 8000c30:	66fb      	str	r3, [r7, #108]	@ 0x6c
 8000c32:	6efb      	ldr	r3, [r7, #108]	@ 0x6c
 8000c34:	3301      	adds	r3, #1
 8000c36:	781b      	ldrb	r3, [r3, #0]
  }

  // notification endpoint (optional)
  if (TUSB_DESC_ENDPOINT == tu_desc_type(p_desc)) {
 8000c38:	2b05      	cmp	r3, #5
 8000c3a:	d12e      	bne.n	8000c9a <cdcd_open+0x1f2>
    const tusb_desc_endpoint_t* desc_ep = (const tusb_desc_endpoint_t*) p_desc;
 8000c3c:	f8d7 30d4 	ldr.w	r3, [r7, #212]	@ 0xd4
 8000c40:	f8c7 30c4 	str.w	r3, [r7, #196]	@ 0xc4
    TU_ASSERT(usbd_edpt_open(rhport, desc_ep), 0);
 8000c44:	79fb      	ldrb	r3, [r7, #7]
 8000c46:	f8d7 10c4 	ldr.w	r1, [r7, #196]	@ 0xc4
 8000c4a:	4618      	mov	r0, r3
 8000c4c:	f002 fc00 	bl	8003450 <usbd_edpt_open>
 8000c50:	4603      	mov	r3, r0
 8000c52:	f083 0301 	eor.w	r3, r3, #1
 8000c56:	b2db      	uxtb	r3, r3
 8000c58:	2b00      	cmp	r3, #0
 8000c5a:	d00c      	beq.n	8000c76 <cdcd_open+0x1ce>
 8000c5c:	4b4e      	ldr	r3, [pc, #312]	@ (8000d98 <cdcd_open+0x2f0>)
 8000c5e:	f8c7 30c0 	str.w	r3, [r7, #192]	@ 0xc0
 8000c62:	f8d7 30c0 	ldr.w	r3, [r7, #192]	@ 0xc0
 8000c66:	681b      	ldr	r3, [r3, #0]
 8000c68:	f003 0301 	and.w	r3, r3, #1
 8000c6c:	2b00      	cmp	r3, #0
 8000c6e:	d000      	beq.n	8000c72 <cdcd_open+0x1ca>
 8000c70:	be00      	bkpt	0x0000
 8000c72:	2300      	movs	r3, #0
 8000c74:	e13b      	b.n	8000eee <cdcd_open+0x446>
    p_cdc->ep_notify = desc_ep->bEndpointAddress;
 8000c76:	f8d7 30c4 	ldr.w	r3, [r7, #196]	@ 0xc4
 8000c7a:	789a      	ldrb	r2, [r3, #2]
 8000c7c:	f8d7 30cc 	ldr.w	r3, [r7, #204]	@ 0xcc
 8000c80:	709a      	strb	r2, [r3, #2]
 8000c82:	f8d7 30d4 	ldr.w	r3, [r7, #212]	@ 0xd4
 8000c86:	66bb      	str	r3, [r7, #104]	@ 0x68
  uint8_t const* desc8 = (uint8_t const*) desc;
 8000c88:	6ebb      	ldr	r3, [r7, #104]	@ 0x68
 8000c8a:	667b      	str	r3, [r7, #100]	@ 0x64
  return desc8 + desc8[DESC_OFFSET_LEN];
 8000c8c:	6e7b      	ldr	r3, [r7, #100]	@ 0x64
 8000c8e:	781b      	ldrb	r3, [r3, #0]
 8000c90:	461a      	mov	r2, r3
 8000c92:	6e7b      	ldr	r3, [r7, #100]	@ 0x64
 8000c94:	4413      	add	r3, r2

    p_desc = tu_desc_next(p_desc);
 8000c96:	f8c7 30d4 	str.w	r3, [r7, #212]	@ 0xd4
 8000c9a:	f8d7 30d4 	ldr.w	r3, [r7, #212]	@ 0xd4
 8000c9e:	663b      	str	r3, [r7, #96]	@ 0x60
  return ((uint8_t const*) desc)[DESC_OFFSET_TYPE];
 8000ca0:	6e3b      	ldr	r3, [r7, #96]	@ 0x60
 8000ca2:	3301      	adds	r3, #1
 8000ca4:	781b      	ldrb	r3, [r3, #0]
  }

  //------------- Data Interface (optional) -------------//
  if (TUSB_DESC_INTERFACE == tu_desc_type(p_desc)) {
 8000ca6:	2b04      	cmp	r3, #4
 8000ca8:	f040 811c 	bne.w	8000ee4 <cdcd_open+0x43c>
    const tusb_desc_interface_t *data_itf_desc = (const tusb_desc_interface_t *)p_desc;
 8000cac:	f8d7 30d4 	ldr.w	r3, [r7, #212]	@ 0xd4
 8000cb0:	f8c7 30bc 	str.w	r3, [r7, #188]	@ 0xbc
    if (TUSB_CLASS_CDC_DATA == data_itf_desc->bInterfaceClass) {
 8000cb4:	f8d7 30bc 	ldr.w	r3, [r7, #188]	@ 0xbc
 8000cb8:	795b      	ldrb	r3, [r3, #5]
 8000cba:	2b0a      	cmp	r3, #10
 8000cbc:	f040 8112 	bne.w	8000ee4 <cdcd_open+0x43c>
      for (uint8_t e = 0; e < data_itf_desc->bNumEndpoints; e++) {
 8000cc0:	2300      	movs	r3, #0
 8000cc2:	f887 30d3 	strb.w	r3, [r7, #211]	@ 0xd3
 8000cc6:	e0f7      	b.n	8000eb8 <cdcd_open+0x410>
 8000cc8:	f8d7 30d4 	ldr.w	r3, [r7, #212]	@ 0xd4
 8000ccc:	65fb      	str	r3, [r7, #92]	@ 0x5c
 8000cce:	f8d7 30c8 	ldr.w	r3, [r7, #200]	@ 0xc8
 8000cd2:	65bb      	str	r3, [r7, #88]	@ 0x58
  return p_desc < desc_end && tu_desc_next(p_desc) <= desc_end;
 8000cd4:	6dfa      	ldr	r2, [r7, #92]	@ 0x5c
 8000cd6:	6dbb      	ldr	r3, [r7, #88]	@ 0x58
 8000cd8:	429a      	cmp	r2, r3
 8000cda:	d20d      	bcs.n	8000cf8 <cdcd_open+0x250>
 8000cdc:	6dfb      	ldr	r3, [r7, #92]	@ 0x5c
 8000cde:	657b      	str	r3, [r7, #84]	@ 0x54
  uint8_t const* desc8 = (uint8_t const*) desc;
 8000ce0:	6d7b      	ldr	r3, [r7, #84]	@ 0x54
 8000ce2:	653b      	str	r3, [r7, #80]	@ 0x50
  return desc8 + desc8[DESC_OFFSET_LEN];
 8000ce4:	6d3b      	ldr	r3, [r7, #80]	@ 0x50
 8000ce6:	781b      	ldrb	r3, [r3, #0]
 8000ce8:	461a      	mov	r2, r3
 8000cea:	6d3b      	ldr	r3, [r7, #80]	@ 0x50
 8000cec:	4413      	add	r3, r2
  return p_desc < desc_end && tu_desc_next(p_desc) <= desc_end;
 8000cee:	6dba      	ldr	r2, [r7, #88]	@ 0x58
 8000cf0:	429a      	cmp	r2, r3
 8000cf2:	d301      	bcc.n	8000cf8 <cdcd_open+0x250>
 8000cf4:	2301      	movs	r3, #1
 8000cf6:	e000      	b.n	8000cfa <cdcd_open+0x252>
 8000cf8:	2300      	movs	r3, #0
 8000cfa:	f003 0301 	and.w	r3, r3, #1
 8000cfe:	b2db      	uxtb	r3, r3
        if (!tu_desc_in_bounds(p_desc, desc_end)) {
 8000d00:	f083 0301 	eor.w	r3, r3, #1
 8000d04:	b2db      	uxtb	r3, r3
 8000d06:	2b00      	cmp	r3, #0
 8000d08:	f040 80df 	bne.w	8000eca <cdcd_open+0x422>
 8000d0c:	f8d7 30d4 	ldr.w	r3, [r7, #212]	@ 0xd4
 8000d10:	64fb      	str	r3, [r7, #76]	@ 0x4c
  uint8_t const* desc8 = (uint8_t const*) desc;
 8000d12:	6cfb      	ldr	r3, [r7, #76]	@ 0x4c
 8000d14:	64bb      	str	r3, [r7, #72]	@ 0x48
  return desc8 + desc8[DESC_OFFSET_LEN];
 8000d16:	6cbb      	ldr	r3, [r7, #72]	@ 0x48
 8000d18:	781b      	ldrb	r3, [r3, #0]
 8000d1a:	461a      	mov	r2, r3
 8000d1c:	6cbb      	ldr	r3, [r7, #72]	@ 0x48
 8000d1e:	4413      	add	r3, r2
          break;
        }
        p_desc = tu_desc_next(p_desc);
 8000d20:	f8c7 30d4 	str.w	r3, [r7, #212]	@ 0xd4

        const tusb_desc_endpoint_t *desc_ep = (const tusb_desc_endpoint_t *)p_desc;
 8000d24:	f8d7 30d4 	ldr.w	r3, [r7, #212]	@ 0xd4
 8000d28:	f8c7 30b8 	str.w	r3, [r7, #184]	@ 0xb8
        TU_ASSERT(TUSB_DESC_ENDPOINT == desc_ep->bDescriptorType && TUSB_XFER_BULK == desc_ep->bmAttributes.xfer, 0);
 8000d2c:	f8d7 30b8 	ldr.w	r3, [r7, #184]	@ 0xb8
 8000d30:	785b      	ldrb	r3, [r3, #1]
 8000d32:	2b05      	cmp	r3, #5
 8000d34:	d107      	bne.n	8000d46 <cdcd_open+0x29e>
 8000d36:	f8d7 30b8 	ldr.w	r3, [r7, #184]	@ 0xb8
 8000d3a:	78db      	ldrb	r3, [r3, #3]
 8000d3c:	f003 0303 	and.w	r3, r3, #3
 8000d40:	b2db      	uxtb	r3, r3
 8000d42:	2b02      	cmp	r3, #2
 8000d44:	d00c      	beq.n	8000d60 <cdcd_open+0x2b8>
 8000d46:	4b14      	ldr	r3, [pc, #80]	@ (8000d98 <cdcd_open+0x2f0>)
 8000d48:	f8c7 30a0 	str.w	r3, [r7, #160]	@ 0xa0
 8000d4c:	f8d7 30a0 	ldr.w	r3, [r7, #160]	@ 0xa0
 8000d50:	681b      	ldr	r3, [r3, #0]
 8000d52:	f003 0301 	and.w	r3, r3, #1
 8000d56:	2b00      	cmp	r3, #0
 8000d58:	d000      	beq.n	8000d5c <cdcd_open+0x2b4>
 8000d5a:	be00      	bkpt	0x0000
 8000d5c:	2300      	movs	r3, #0
 8000d5e:	e0c6      	b.n	8000eee <cdcd_open+0x446>

        TU_ASSERT(usbd_edpt_open(rhport, desc_ep), 0);
 8000d60:	79fb      	ldrb	r3, [r7, #7]
 8000d62:	f8d7 10b8 	ldr.w	r1, [r7, #184]	@ 0xb8
 8000d66:	4618      	mov	r0, r3
 8000d68:	f002 fb72 	bl	8003450 <usbd_edpt_open>
 8000d6c:	4603      	mov	r3, r0
 8000d6e:	f083 0301 	eor.w	r3, r3, #1
 8000d72:	b2db      	uxtb	r3, r3
 8000d74:	2b00      	cmp	r3, #0
 8000d76:	d011      	beq.n	8000d9c <cdcd_open+0x2f4>
 8000d78:	4b07      	ldr	r3, [pc, #28]	@ (8000d98 <cdcd_open+0x2f0>)
 8000d7a:	f8c7 30a4 	str.w	r3, [r7, #164]	@ 0xa4
 8000d7e:	f8d7 30a4 	ldr.w	r3, [r7, #164]	@ 0xa4
 8000d82:	681b      	ldr	r3, [r3, #0]
 8000d84:	f003 0301 	and.w	r3, r3, #1
 8000d88:	2b00      	cmp	r3, #0
 8000d8a:	d000      	beq.n	8000d8e <cdcd_open+0x2e6>
 8000d8c:	be00      	bkpt	0x0000
 8000d8e:	2300      	movs	r3, #0
 8000d90:	e0ad      	b.n	8000eee <cdcd_open+0x446>
 8000d92:	bf00      	nop
 8000d94:	20000378 	.word	0x20000378
 8000d98:	e000edf0 	.word	0xe000edf0
        if (tu_edpt_dir(desc_ep->bEndpointAddress) == TUSB_DIR_IN) {
 8000d9c:	f8d7 30b8 	ldr.w	r3, [r7, #184]	@ 0xb8
 8000da0:	789b      	ldrb	r3, [r3, #2]
 8000da2:	f887 3047 	strb.w	r3, [r7, #71]	@ 0x47
// Endpoint helper
//--------------------------------------------------------------------+

// Get direction from Endpoint address
TU_ATTR_ALWAYS_INLINE static inline tusb_dir_t tu_edpt_dir(uint8_t addr) {
  return (addr & TUSB_DIR_IN_MASK) ? TUSB_DIR_IN : TUSB_DIR_OUT;
 8000da6:	f897 3047 	ldrb.w	r3, [r7, #71]	@ 0x47
 8000daa:	09db      	lsrs	r3, r3, #7
 8000dac:	b2db      	uxtb	r3, r3
 8000dae:	2b01      	cmp	r3, #1
 8000db0:	d12e      	bne.n	8000e10 <cdcd_open+0x368>
          tu_edpt_stream_t *stream_tx = &p_cdc->tx_stream;
 8000db2:	f8d7 30cc 	ldr.w	r3, [r7, #204]	@ 0xcc
 8000db6:	330c      	adds	r3, #12
 8000db8:	f8c7 30a8 	str.w	r3, [r7, #168]	@ 0xa8
 8000dbc:	f8d7 30a8 	ldr.w	r3, [r7, #168]	@ 0xa8
 8000dc0:	63fb      	str	r3, [r7, #60]	@ 0x3c
 8000dc2:	79fb      	ldrb	r3, [r7, #7]
 8000dc4:	f887 303b 	strb.w	r3, [r7, #59]	@ 0x3b
 8000dc8:	f8d7 30b8 	ldr.w	r3, [r7, #184]	@ 0xb8
 8000dcc:	637b      	str	r3, [r7, #52]	@ 0x34
 8000dce:	2340      	movs	r3, #64	@ 0x40
 8000dd0:	867b      	strh	r3, [r7, #50]	@ 0x32
  s->hwid    = hwid;
 8000dd2:	6bfb      	ldr	r3, [r7, #60]	@ 0x3c
 8000dd4:	f897 203b 	ldrb.w	r2, [r7, #59]	@ 0x3b
 8000dd8:	701a      	strb	r2, [r3, #0]
  s->ep_addr = desc_ep->bEndpointAddress;
 8000dda:	6b7b      	ldr	r3, [r7, #52]	@ 0x34
 8000ddc:	789a      	ldrb	r2, [r3, #2]
 8000dde:	6bfb      	ldr	r3, [r7, #60]	@ 0x3c
 8000de0:	709a      	strb	r2, [r3, #2]
 8000de2:	6b7b      	ldr	r3, [r7, #52]	@ 0x34
 8000de4:	62fb      	str	r3, [r7, #44]	@ 0x2c
TU_ATTR_ALWAYS_INLINE static inline uint8_t tu_edpt_addr(uint8_t num, uint8_t dir) {
  return (uint8_t) (num | (dir == (uint8_t)TUSB_DIR_IN ? (uint8_t)TUSB_DIR_IN_MASK : 0u));
}

TU_ATTR_ALWAYS_INLINE static inline uint16_t tu_edpt_packet_size(tusb_desc_endpoint_t const* desc_ep) {
  return tu_le16toh(desc_ep->wMaxPacketSize) & 0x7FF;
 8000de6:	6afb      	ldr	r3, [r7, #44]	@ 0x2c
 8000de8:	889b      	ldrh	r3, [r3, #4]
 8000dea:	b29b      	uxth	r3, r3
 8000dec:	f3c3 030a 	ubfx	r3, r3, #0, #11
 8000df0:	b29a      	uxth	r2, r3
  s->mps = tu_edpt_packet_size(desc_ep);
 8000df2:	6bfb      	ldr	r3, [r7, #60]	@ 0x3c
 8000df4:	809a      	strh	r2, [r3, #4]
  s->xfer_len = xfer_len;
 8000df6:	6bfb      	ldr	r3, [r7, #60]	@ 0x3c
 8000df8:	8e7a      	ldrh	r2, [r7, #50]	@ 0x32
 8000dfa:	80da      	strh	r2, [r3, #6]
}
 8000dfc:	bf00      	nop
 8000dfe:	f8d7 30a8 	ldr.w	r3, [r7, #168]	@ 0xa8
 8000e02:	643b      	str	r3, [r7, #64]	@ 0x40
  tu_fifo_clear(&s->ff);
 8000e04:	6c3b      	ldr	r3, [r7, #64]	@ 0x40
 8000e06:	330c      	adds	r3, #12
 8000e08:	4618      	mov	r0, r3
 8000e0a:	f000 fa93 	bl	8001334 <tu_fifo_clear>
}
 8000e0e:	e04e      	b.n	8000eae <cdcd_open+0x406>
          tu_edpt_stream_write_xfer(stream_tx); // flush pending data
  #else
          tu_edpt_stream_clear(stream_tx);
  #endif
        } else {
          tu_edpt_stream_t *stream_rx = &p_cdc->rx_stream;
 8000e10:	f8d7 30cc 	ldr.w	r3, [r7, #204]	@ 0xcc
 8000e14:	3324      	adds	r3, #36	@ 0x24
 8000e16:	f8c7 30b4 	str.w	r3, [r7, #180]	@ 0xb4
 8000e1a:	f8d7 30b8 	ldr.w	r3, [r7, #184]	@ 0xb8
 8000e1e:	613b      	str	r3, [r7, #16]
 8000e20:	693b      	ldr	r3, [r7, #16]
 8000e22:	889b      	ldrh	r3, [r3, #4]
 8000e24:	b29b      	uxth	r3, r3
 8000e26:	f3c3 030a 	ubfx	r3, r3, #0, #11
 8000e2a:	b29b      	uxth	r3, r3
  #if CFG_TUD_CDC_RX_NEED_ZLP
          const uint16_t xfer_len = CFG_TUD_CDC_RX_EPSIZE;
  #else
          const uint16_t xfer_len = tu_edpt_packet_size(desc_ep);
 8000e2c:	f8a7 30b2 	strh.w	r3, [r7, #178]	@ 0xb2
 8000e30:	f8d7 30b4 	ldr.w	r3, [r7, #180]	@ 0xb4
 8000e34:	627b      	str	r3, [r7, #36]	@ 0x24
 8000e36:	79fb      	ldrb	r3, [r7, #7]
 8000e38:	f887 3023 	strb.w	r3, [r7, #35]	@ 0x23
 8000e3c:	f8d7 30b8 	ldr.w	r3, [r7, #184]	@ 0xb8
 8000e40:	61fb      	str	r3, [r7, #28]
 8000e42:	f8b7 30b2 	ldrh.w	r3, [r7, #178]	@ 0xb2
 8000e46:	837b      	strh	r3, [r7, #26]
  s->hwid    = hwid;
 8000e48:	6a7b      	ldr	r3, [r7, #36]	@ 0x24
 8000e4a:	f897 2023 	ldrb.w	r2, [r7, #35]	@ 0x23
 8000e4e:	701a      	strb	r2, [r3, #0]
  s->ep_addr = desc_ep->bEndpointAddress;
 8000e50:	69fb      	ldr	r3, [r7, #28]
 8000e52:	789a      	ldrb	r2, [r3, #2]
 8000e54:	6a7b      	ldr	r3, [r7, #36]	@ 0x24
 8000e56:	709a      	strb	r2, [r3, #2]
 8000e58:	69fb      	ldr	r3, [r7, #28]
 8000e5a:	617b      	str	r3, [r7, #20]
 8000e5c:	697b      	ldr	r3, [r7, #20]
 8000e5e:	889b      	ldrh	r3, [r3, #4]
 8000e60:	b29b      	uxth	r3, r3
 8000e62:	f3c3 030a 	ubfx	r3, r3, #0, #11
 8000e66:	b29a      	uxth	r2, r3
  s->mps = tu_edpt_packet_size(desc_ep);
 8000e68:	6a7b      	ldr	r3, [r7, #36]	@ 0x24
 8000e6a:	809a      	strh	r2, [r3, #4]
  s->xfer_len = xfer_len;
 8000e6c:	6a7b      	ldr	r3, [r7, #36]	@ 0x24
 8000e6e:	8b7a      	ldrh	r2, [r7, #26]
 8000e70:	80da      	strh	r2, [r3, #6]
}
 8000e72:	bf00      	nop
 8000e74:	f8d7 30b4 	ldr.w	r3, [r7, #180]	@ 0xb4
 8000e78:	62bb      	str	r3, [r7, #40]	@ 0x28
  tu_fifo_clear(&s->ff);
 8000e7a:	6abb      	ldr	r3, [r7, #40]	@ 0x28
 8000e7c:	330c      	adds	r3, #12
 8000e7e:	4618      	mov	r0, r3
 8000e80:	f000 fa58 	bl	8001334 <tu_fifo_clear>
}
 8000e84:	bf00      	nop

  #if !CFG_TUD_CDC_RX_PERSISTENT
          tu_edpt_stream_clear(stream_rx);
  #endif

          TU_ASSERT(tu_edpt_stream_read_xfer(stream_rx) > 0, 0); // prepare for incoming data
 8000e86:	f8d7 00b4 	ldr.w	r0, [r7, #180]	@ 0xb4
 8000e8a:	f005 f949 	bl	8006120 <tu_edpt_stream_read_xfer>
 8000e8e:	4603      	mov	r3, r0
 8000e90:	2b00      	cmp	r3, #0
 8000e92:	d10c      	bne.n	8000eae <cdcd_open+0x406>
 8000e94:	4b18      	ldr	r3, [pc, #96]	@ (8000ef8 <cdcd_open+0x450>)
 8000e96:	f8c7 30ac 	str.w	r3, [r7, #172]	@ 0xac
 8000e9a:	f8d7 30ac 	ldr.w	r3, [r7, #172]	@ 0xac
 8000e9e:	681b      	ldr	r3, [r3, #0]
 8000ea0:	f003 0301 	and.w	r3, r3, #1
 8000ea4:	2b00      	cmp	r3, #0
 8000ea6:	d000      	beq.n	8000eaa <cdcd_open+0x402>
 8000ea8:	be00      	bkpt	0x0000
 8000eaa:	2300      	movs	r3, #0
 8000eac:	e01f      	b.n	8000eee <cdcd_open+0x446>
      for (uint8_t e = 0; e < data_itf_desc->bNumEndpoints; e++) {
 8000eae:	f897 30d3 	ldrb.w	r3, [r7, #211]	@ 0xd3
 8000eb2:	3301      	adds	r3, #1
 8000eb4:	f887 30d3 	strb.w	r3, [r7, #211]	@ 0xd3
 8000eb8:	f8d7 30bc 	ldr.w	r3, [r7, #188]	@ 0xbc
 8000ebc:	791b      	ldrb	r3, [r3, #4]
 8000ebe:	f897 20d3 	ldrb.w	r2, [r7, #211]	@ 0xd3
 8000ec2:	429a      	cmp	r2, r3
 8000ec4:	f4ff af00 	bcc.w	8000cc8 <cdcd_open+0x220>
 8000ec8:	e000      	b.n	8000ecc <cdcd_open+0x424>
          break;
 8000eca:	bf00      	nop
 8000ecc:	f8d7 30d4 	ldr.w	r3, [r7, #212]	@ 0xd4
 8000ed0:	60fb      	str	r3, [r7, #12]
  uint8_t const* desc8 = (uint8_t const*) desc;
 8000ed2:	68fb      	ldr	r3, [r7, #12]
 8000ed4:	60bb      	str	r3, [r7, #8]
  return desc8 + desc8[DESC_OFFSET_LEN];
 8000ed6:	68bb      	ldr	r3, [r7, #8]
 8000ed8:	781b      	ldrb	r3, [r3, #0]
 8000eda:	461a      	mov	r2, r3
 8000edc:	68bb      	ldr	r3, [r7, #8]
 8000ede:	4413      	add	r3, r2
        }
      }

      p_desc = tu_desc_next(p_desc);
 8000ee0:	f8c7 30d4 	str.w	r3, [r7, #212]	@ 0xd4
    }
  }

  return (uint16_t)(p_desc - (const uint8_t *)itf_desc);
 8000ee4:	f8d7 20d4 	ldr.w	r2, [r7, #212]	@ 0xd4
 8000ee8:	683b      	ldr	r3, [r7, #0]
 8000eea:	1ad3      	subs	r3, r2, r3
 8000eec:	b29b      	uxth	r3, r3
}
 8000eee:	4618      	mov	r0, r3
 8000ef0:	37d8      	adds	r7, #216	@ 0xd8
 8000ef2:	46bd      	mov	sp, r7
 8000ef4:	bd80      	pop	{r7, pc}
 8000ef6:	bf00      	nop
 8000ef8:	e000edf0 	.word	0xe000edf0

08000efc <cdcd_control_xfer_cb>:

// Invoked when a control transfer occurred on an interface of this class
// Driver response accordingly to the request and the transfer stage (setup/data/ack)
// return false to stall control endpoint (e.g unsupported request)
bool cdcd_control_xfer_cb(uint8_t rhport, uint8_t stage, const tusb_control_request_t* request) {
 8000efc:	b580      	push	{r7, lr}
 8000efe:	b08a      	sub	sp, #40	@ 0x28
 8000f00:	af00      	add	r7, sp, #0
 8000f02:	4603      	mov	r3, r0
 8000f04:	603a      	str	r2, [r7, #0]
 8000f06:	71fb      	strb	r3, [r7, #7]
 8000f08:	460b      	mov	r3, r1
 8000f0a:	71bb      	strb	r3, [r7, #6]
  // Handle class request only
  TU_VERIFY(request->bmRequestType_bit.type == TUSB_REQ_TYPE_CLASS);
 8000f0c:	683b      	ldr	r3, [r7, #0]
 8000f0e:	781b      	ldrb	r3, [r3, #0]
 8000f10:	f003 0360 	and.w	r3, r3, #96	@ 0x60
 8000f14:	b2db      	uxtb	r3, r3
 8000f16:	2b20      	cmp	r3, #32
 8000f18:	d001      	beq.n	8000f1e <cdcd_control_xfer_cb+0x22>
 8000f1a:	2300      	movs	r3, #0
 8000f1c:	e0cb      	b.n	80010b6 <cdcd_control_xfer_cb+0x1ba>

  uint8_t itf;
  cdcd_interface_t* p_cdc;

  // Identify which interface to use
  for (itf = 0; itf < CFG_TUD_CDC; itf++) {
 8000f1e:	2300      	movs	r3, #0
 8000f20:	f887 3027 	strb.w	r3, [r7, #39]	@ 0x27
 8000f24:	e014      	b.n	8000f50 <cdcd_control_xfer_cb+0x54>
    p_cdc = &_cdcd_itf[itf];
 8000f26:	f897 3027 	ldrb.w	r3, [r7, #39]	@ 0x27
 8000f2a:	22bc      	movs	r2, #188	@ 0xbc
 8000f2c:	fb02 f303 	mul.w	r3, r2, r3
 8000f30:	4a63      	ldr	r2, [pc, #396]	@ (80010c0 <cdcd_control_xfer_cb+0x1c4>)
 8000f32:	4413      	add	r3, r2
 8000f34:	623b      	str	r3, [r7, #32]
    if (p_cdc->itf_num == request->wIndex) {
 8000f36:	6a3b      	ldr	r3, [r7, #32]
 8000f38:	785b      	ldrb	r3, [r3, #1]
 8000f3a:	461a      	mov	r2, r3
 8000f3c:	683b      	ldr	r3, [r7, #0]
 8000f3e:	889b      	ldrh	r3, [r3, #4]
 8000f40:	b29b      	uxth	r3, r3
 8000f42:	429a      	cmp	r2, r3
 8000f44:	d009      	beq.n	8000f5a <cdcd_control_xfer_cb+0x5e>
  for (itf = 0; itf < CFG_TUD_CDC; itf++) {
 8000f46:	f897 3027 	ldrb.w	r3, [r7, #39]	@ 0x27
 8000f4a:	3301      	adds	r3, #1
 8000f4c:	f887 3027 	strb.w	r3, [r7, #39]	@ 0x27
 8000f50:	f897 3027 	ldrb.w	r3, [r7, #39]	@ 0x27
 8000f54:	2b00      	cmp	r3, #0
 8000f56:	d0e6      	beq.n	8000f26 <cdcd_control_xfer_cb+0x2a>
 8000f58:	e000      	b.n	8000f5c <cdcd_control_xfer_cb+0x60>
      break;
 8000f5a:	bf00      	nop
    }
  }
  TU_VERIFY(itf < CFG_TUD_CDC);
 8000f5c:	f897 3027 	ldrb.w	r3, [r7, #39]	@ 0x27
 8000f60:	2b00      	cmp	r3, #0
 8000f62:	d001      	beq.n	8000f68 <cdcd_control_xfer_cb+0x6c>
 8000f64:	2300      	movs	r3, #0
 8000f66:	e0a6      	b.n	80010b6 <cdcd_control_xfer_cb+0x1ba>

  switch (request->bRequest) {
 8000f68:	683b      	ldr	r3, [r7, #0]
 8000f6a:	785b      	ldrb	r3, [r3, #1]
 8000f6c:	3b20      	subs	r3, #32
 8000f6e:	2b03      	cmp	r3, #3
 8000f70:	f200 8097 	bhi.w	80010a2 <cdcd_control_xfer_cb+0x1a6>
 8000f74:	a201      	add	r2, pc, #4	@ (adr r2, 8000f7c <cdcd_control_xfer_cb+0x80>)
 8000f76:	f852 f023 	ldr.w	pc, [r2, r3, lsl #2]
 8000f7a:	bf00      	nop
 8000f7c:	08000f8d 	.word	0x08000f8d
 8000f80:	08000fbb 	.word	0x08000fbb
 8000f84:	08000fd1 	.word	0x08000fd1
 8000f88:	08001077 	.word	0x08001077
    case CDC_REQUEST_SET_LINE_CODING:
      if (stage == CONTROL_STAGE_SETUP) {
 8000f8c:	79bb      	ldrb	r3, [r7, #6]
 8000f8e:	2b01      	cmp	r3, #1
 8000f90:	d107      	bne.n	8000fa2 <cdcd_control_xfer_cb+0xa6>
        TU_LOG_DRV("  Set Line Coding\r\n");
        tud_control_xfer(rhport, request, &p_cdc->line_coding, sizeof(cdc_line_coding_t));
 8000f92:	6a3b      	ldr	r3, [r7, #32]
 8000f94:	1d1a      	adds	r2, r3, #4
 8000f96:	79f8      	ldrb	r0, [r7, #7]
 8000f98:	2307      	movs	r3, #7
 8000f9a:	6839      	ldr	r1, [r7, #0]
 8000f9c:	f002 fd40 	bl	8003a20 <tud_control_xfer>
      } else if (stage == CONTROL_STAGE_ACK) {
        tud_cdc_line_coding_cb(itf, &p_cdc->line_coding);
      } else {
        // nothing to do
      }
      break;
 8000fa0:	e081      	b.n	80010a6 <cdcd_control_xfer_cb+0x1aa>
      } else if (stage == CONTROL_STAGE_ACK) {
 8000fa2:	79bb      	ldrb	r3, [r7, #6]
 8000fa4:	2b03      	cmp	r3, #3
 8000fa6:	d17e      	bne.n	80010a6 <cdcd_control_xfer_cb+0x1aa>
        tud_cdc_line_coding_cb(itf, &p_cdc->line_coding);
 8000fa8:	6a3b      	ldr	r3, [r7, #32]
 8000faa:	1d1a      	adds	r2, r3, #4
 8000fac:	f897 3027 	ldrb.w	r3, [r7, #39]	@ 0x27
 8000fb0:	4611      	mov	r1, r2
 8000fb2:	4618      	mov	r0, r3
 8000fb4:	f7ff fc0a 	bl	80007cc <tud_cdc_line_coding_cb>
      break;
 8000fb8:	e075      	b.n	80010a6 <cdcd_control_xfer_cb+0x1aa>

    case CDC_REQUEST_GET_LINE_CODING:
      if (stage == CONTROL_STAGE_SETUP) {
 8000fba:	79bb      	ldrb	r3, [r7, #6]
 8000fbc:	2b01      	cmp	r3, #1
 8000fbe:	d174      	bne.n	80010aa <cdcd_control_xfer_cb+0x1ae>
        TU_LOG_DRV("  Get Line Coding\r\n");
        tud_control_xfer(rhport, request, &p_cdc->line_coding, sizeof(cdc_line_coding_t));
 8000fc0:	6a3b      	ldr	r3, [r7, #32]
 8000fc2:	1d1a      	adds	r2, r3, #4
 8000fc4:	79f8      	ldrb	r0, [r7, #7]
 8000fc6:	2307      	movs	r3, #7
 8000fc8:	6839      	ldr	r1, [r7, #0]
 8000fca:	f002 fd29 	bl	8003a20 <tud_control_xfer>
      }
      break;
 8000fce:	e06c      	b.n	80010aa <cdcd_control_xfer_cb+0x1ae>

    case CDC_REQUEST_SET_CONTROL_LINE_STATE:
      if (stage == CONTROL_STAGE_SETUP) {
 8000fd0:	79bb      	ldrb	r3, [r7, #6]
 8000fd2:	2b01      	cmp	r3, #1
 8000fd4:	d105      	bne.n	8000fe2 <cdcd_control_xfer_cb+0xe6>
        tud_control_status(rhport, request);
 8000fd6:	79fb      	ldrb	r3, [r7, #7]
 8000fd8:	6839      	ldr	r1, [r7, #0]
 8000fda:	4618      	mov	r0, r3
 8000fdc:	f002 fc96 	bl	800390c <tud_control_status>
        TU_LOG_DRV("  Set Control Line State: DTR = %d, RTS = %d\r\n", dtr, rts);
        tud_cdc_line_state_cb(itf, dtr, rts); // invoke callback
      } else {
        // nothing to do
      }
      break;
 8000fe0:	e065      	b.n	80010ae <cdcd_control_xfer_cb+0x1b2>
      } else if (stage == CONTROL_STAGE_ACK) {
 8000fe2:	79bb      	ldrb	r3, [r7, #6]
 8000fe4:	2b03      	cmp	r3, #3
 8000fe6:	d162      	bne.n	80010ae <cdcd_control_xfer_cb+0x1b2>
        bool const dtr = tu_bit_test(request->wValue, 0);
 8000fe8:	683b      	ldr	r3, [r7, #0]
 8000fea:	885b      	ldrh	r3, [r3, #2]
 8000fec:	b29b      	uxth	r3, r3
 8000fee:	613b      	str	r3, [r7, #16]
 8000ff0:	2300      	movs	r3, #0
 8000ff2:	73fb      	strb	r3, [r7, #15]
TU_ATTR_ALWAYS_INLINE static inline bool     tu_bit_test (uint32_t value, uint8_t pos) { return (value & TU_BIT(pos)) ? true : false; }
 8000ff4:	7bfb      	ldrb	r3, [r7, #15]
 8000ff6:	693a      	ldr	r2, [r7, #16]
 8000ff8:	fa22 f303 	lsr.w	r3, r2, r3
 8000ffc:	f003 0301 	and.w	r3, r3, #1
 8001000:	2b00      	cmp	r3, #0
 8001002:	bf14      	ite	ne
 8001004:	2301      	movne	r3, #1
 8001006:	2300      	moveq	r3, #0
 8001008:	b2db      	uxtb	r3, r3
 800100a:	77fb      	strb	r3, [r7, #31]
        bool const rts = tu_bit_test(request->wValue, 1);
 800100c:	683b      	ldr	r3, [r7, #0]
 800100e:	885b      	ldrh	r3, [r3, #2]
 8001010:	b29b      	uxth	r3, r3
 8001012:	61bb      	str	r3, [r7, #24]
 8001014:	2301      	movs	r3, #1
 8001016:	75fb      	strb	r3, [r7, #23]
 8001018:	7dfb      	ldrb	r3, [r7, #23]
 800101a:	69ba      	ldr	r2, [r7, #24]
 800101c:	fa22 f303 	lsr.w	r3, r2, r3
 8001020:	f003 0301 	and.w	r3, r3, #1
 8001024:	2b00      	cmp	r3, #0
 8001026:	bf14      	ite	ne
 8001028:	2301      	movne	r3, #1
 800102a:	2300      	moveq	r3, #0
 800102c:	b2db      	uxtb	r3, r3
 800102e:	77bb      	strb	r3, [r7, #30]
        p_cdc->line_state = (uint8_t) request->wValue;
 8001030:	683b      	ldr	r3, [r7, #0]
 8001032:	885b      	ldrh	r3, [r3, #2]
 8001034:	b29b      	uxth	r3, r3
 8001036:	b2da      	uxtb	r2, r3
 8001038:	6a3b      	ldr	r3, [r7, #32]
 800103a:	70da      	strb	r2, [r3, #3]
        const bool is_overwritable = !dtr;
 800103c:	7ffb      	ldrb	r3, [r7, #31]
 800103e:	2b00      	cmp	r3, #0
 8001040:	bf14      	ite	ne
 8001042:	2301      	movne	r3, #1
 8001044:	2300      	moveq	r3, #0
 8001046:	b2db      	uxtb	r3, r3
 8001048:	f083 0301 	eor.w	r3, r3, #1
 800104c:	b2db      	uxtb	r3, r3
 800104e:	777b      	strb	r3, [r7, #29]
 8001050:	7f7b      	ldrb	r3, [r7, #29]
 8001052:	f003 0301 	and.w	r3, r3, #1
 8001056:	777b      	strb	r3, [r7, #29]
        tu_fifo_set_overwritable(&p_cdc->tx_stream.ff, is_overwritable);
 8001058:	6a3b      	ldr	r3, [r7, #32]
 800105a:	3318      	adds	r3, #24
 800105c:	7f7a      	ldrb	r2, [r7, #29]
 800105e:	4611      	mov	r1, r2
 8001060:	4618      	mov	r0, r3
 8001062:	f000 f976 	bl	8001352 <tu_fifo_set_overwritable>
        tud_cdc_line_state_cb(itf, dtr, rts); // invoke callback
 8001066:	7fba      	ldrb	r2, [r7, #30]
 8001068:	7ff9      	ldrb	r1, [r7, #31]
 800106a:	f897 3027 	ldrb.w	r3, [r7, #39]	@ 0x27
 800106e:	4618      	mov	r0, r3
 8001070:	f7ff fb9e 	bl	80007b0 <tud_cdc_line_state_cb>
      break;
 8001074:	e01b      	b.n	80010ae <cdcd_control_xfer_cb+0x1b2>

    case CDC_REQUEST_SEND_BREAK:
      if (stage == CONTROL_STAGE_SETUP) {
 8001076:	79bb      	ldrb	r3, [r7, #6]
 8001078:	2b01      	cmp	r3, #1
 800107a:	d105      	bne.n	8001088 <cdcd_control_xfer_cb+0x18c>
        tud_control_status(rhport, request);
 800107c:	79fb      	ldrb	r3, [r7, #7]
 800107e:	6839      	ldr	r1, [r7, #0]
 8001080:	4618      	mov	r0, r3
 8001082:	f002 fc43 	bl	800390c <tud_control_status>
        TU_LOG_DRV("  Send Break\r\n");
        tud_cdc_send_break_cb(itf, request->wValue);
      } else {
        // nothing to do
      }
      break;
 8001086:	e014      	b.n	80010b2 <cdcd_control_xfer_cb+0x1b6>
      } else if (stage == CONTROL_STAGE_ACK) {
 8001088:	79bb      	ldrb	r3, [r7, #6]
 800108a:	2b03      	cmp	r3, #3
 800108c:	d111      	bne.n	80010b2 <cdcd_control_xfer_cb+0x1b6>
        tud_cdc_send_break_cb(itf, request->wValue);
 800108e:	683b      	ldr	r3, [r7, #0]
 8001090:	885b      	ldrh	r3, [r3, #2]
 8001092:	b29a      	uxth	r2, r3
 8001094:	f897 3027 	ldrb.w	r3, [r7, #39]	@ 0x27
 8001098:	4611      	mov	r1, r2
 800109a:	4618      	mov	r0, r3
 800109c:	f7ff fba1 	bl	80007e2 <tud_cdc_send_break_cb>
      break;
 80010a0:	e007      	b.n	80010b2 <cdcd_control_xfer_cb+0x1b6>

    default:
      return false; // stall unsupported request
 80010a2:	2300      	movs	r3, #0
 80010a4:	e007      	b.n	80010b6 <cdcd_control_xfer_cb+0x1ba>
      break;
 80010a6:	bf00      	nop
 80010a8:	e004      	b.n	80010b4 <cdcd_control_xfer_cb+0x1b8>
      break;
 80010aa:	bf00      	nop
 80010ac:	e002      	b.n	80010b4 <cdcd_control_xfer_cb+0x1b8>
      break;
 80010ae:	bf00      	nop
 80010b0:	e000      	b.n	80010b4 <cdcd_control_xfer_cb+0x1b8>
      break;
 80010b2:	bf00      	nop
  }

  return true;
 80010b4:	2301      	movs	r3, #1
}
 80010b6:	4618      	mov	r0, r3
 80010b8:	3728      	adds	r7, #40	@ 0x28
 80010ba:	46bd      	mov	sp, r7
 80010bc:	bd80      	pop	{r7, pc}
 80010be:	bf00      	nop
 80010c0:	20000378 	.word	0x20000378

080010c4 <cdcd_xfer_cb>:

bool cdcd_xfer_cb(uint8_t rhport, uint8_t ep_addr, xfer_result_t result, uint32_t xferred_bytes) {
 80010c4:	b580      	push	{r7, lr}
 80010c6:	b098      	sub	sp, #96	@ 0x60
 80010c8:	af00      	add	r7, sp, #0
 80010ca:	603b      	str	r3, [r7, #0]
 80010cc:	4603      	mov	r3, r0
 80010ce:	71fb      	strb	r3, [r7, #7]
 80010d0:	460b      	mov	r3, r1
 80010d2:	71bb      	strb	r3, [r7, #6]
 80010d4:	4613      	mov	r3, r2
 80010d6:	717b      	strb	r3, [r7, #5]
 80010d8:	79bb      	ldrb	r3, [r7, #6]
 80010da:	f887 3043 	strb.w	r3, [r7, #67]	@ 0x43
  for (uint8_t idx = 0; idx < CFG_TUD_CDC; idx++) {
 80010de:	2300      	movs	r3, #0
 80010e0:	f887 3042 	strb.w	r3, [r7, #66]	@ 0x42
 80010e4:	e026      	b.n	8001134 <cdcd_xfer_cb+0x70>
    const cdcd_interface_t *p_cdc = &_cdcd_itf[idx];
 80010e6:	f897 3042 	ldrb.w	r3, [r7, #66]	@ 0x42
 80010ea:	22bc      	movs	r2, #188	@ 0xbc
 80010ec:	fb02 f303 	mul.w	r3, r2, r3
 80010f0:	4a7b      	ldr	r2, [pc, #492]	@ (80012e0 <cdcd_xfer_cb+0x21c>)
 80010f2:	4413      	add	r3, r2
 80010f4:	63fb      	str	r3, [r7, #60]	@ 0x3c
    if (ep_addr == p_cdc->rx_stream.ep_addr || ep_addr == p_cdc->tx_stream.ep_addr ||
 80010f6:	6bfb      	ldr	r3, [r7, #60]	@ 0x3c
 80010f8:	f893 3026 	ldrb.w	r3, [r3, #38]	@ 0x26
 80010fc:	f897 2043 	ldrb.w	r2, [r7, #67]	@ 0x43
 8001100:	429a      	cmp	r2, r3
 8001102:	d00f      	beq.n	8001124 <cdcd_xfer_cb+0x60>
 8001104:	6bfb      	ldr	r3, [r7, #60]	@ 0x3c
 8001106:	7b9b      	ldrb	r3, [r3, #14]
 8001108:	f897 2043 	ldrb.w	r2, [r7, #67]	@ 0x43
 800110c:	429a      	cmp	r2, r3
 800110e:	d009      	beq.n	8001124 <cdcd_xfer_cb+0x60>
        (ep_addr == p_cdc->ep_notify && ep_addr != 0)) {
 8001110:	6bfb      	ldr	r3, [r7, #60]	@ 0x3c
 8001112:	789b      	ldrb	r3, [r3, #2]
    if (ep_addr == p_cdc->rx_stream.ep_addr || ep_addr == p_cdc->tx_stream.ep_addr ||
 8001114:	f897 2043 	ldrb.w	r2, [r7, #67]	@ 0x43
 8001118:	429a      	cmp	r2, r3
 800111a:	d106      	bne.n	800112a <cdcd_xfer_cb+0x66>
        (ep_addr == p_cdc->ep_notify && ep_addr != 0)) {
 800111c:	f897 3043 	ldrb.w	r3, [r7, #67]	@ 0x43
 8001120:	2b00      	cmp	r3, #0
 8001122:	d002      	beq.n	800112a <cdcd_xfer_cb+0x66>
      return idx;
 8001124:	f897 3042 	ldrb.w	r3, [r7, #66]	@ 0x42
 8001128:	e009      	b.n	800113e <cdcd_xfer_cb+0x7a>
  for (uint8_t idx = 0; idx < CFG_TUD_CDC; idx++) {
 800112a:	f897 3042 	ldrb.w	r3, [r7, #66]	@ 0x42
 800112e:	3301      	adds	r3, #1
 8001130:	f887 3042 	strb.w	r3, [r7, #66]	@ 0x42
 8001134:	f897 3042 	ldrb.w	r3, [r7, #66]	@ 0x42
 8001138:	2b00      	cmp	r3, #0
 800113a:	d0d4      	beq.n	80010e6 <cdcd_xfer_cb+0x22>
  return TUSB_INDEX_INVALID_8;
 800113c:	23ff      	movs	r3, #255	@ 0xff
  (void)rhport;
  (void)result;

  uint8_t itf = find_cdc_itf(ep_addr);
 800113e:	f887 3057 	strb.w	r3, [r7, #87]	@ 0x57
  TU_ASSERT(itf < CFG_TUD_CDC);
 8001142:	f897 3057 	ldrb.w	r3, [r7, #87]	@ 0x57
 8001146:	2b00      	cmp	r3, #0
 8001148:	d00a      	beq.n	8001160 <cdcd_xfer_cb+0x9c>
 800114a:	4b66      	ldr	r3, [pc, #408]	@ (80012e4 <cdcd_xfer_cb+0x220>)
 800114c:	647b      	str	r3, [r7, #68]	@ 0x44
 800114e:	6c7b      	ldr	r3, [r7, #68]	@ 0x44
 8001150:	681b      	ldr	r3, [r3, #0]
 8001152:	f003 0301 	and.w	r3, r3, #1
 8001156:	2b00      	cmp	r3, #0
 8001158:	d000      	beq.n	800115c <cdcd_xfer_cb+0x98>
 800115a:	be00      	bkpt	0x0000
 800115c:	2300      	movs	r3, #0
 800115e:	e0ba      	b.n	80012d6 <cdcd_xfer_cb+0x212>
  cdcd_interface_t *p_cdc     = &_cdcd_itf[itf];
 8001160:	f897 3057 	ldrb.w	r3, [r7, #87]	@ 0x57
 8001164:	22bc      	movs	r2, #188	@ 0xbc
 8001166:	fb02 f303 	mul.w	r3, r2, r3
 800116a:	4a5d      	ldr	r2, [pc, #372]	@ (80012e0 <cdcd_xfer_cb+0x21c>)
 800116c:	4413      	add	r3, r2
 800116e:	653b      	str	r3, [r7, #80]	@ 0x50
  tu_edpt_stream_t *stream_rx = &p_cdc->rx_stream;
 8001170:	6d3b      	ldr	r3, [r7, #80]	@ 0x50
 8001172:	3324      	adds	r3, #36	@ 0x24
 8001174:	64fb      	str	r3, [r7, #76]	@ 0x4c
  tu_edpt_stream_t *stream_tx = &p_cdc->tx_stream;
 8001176:	6d3b      	ldr	r3, [r7, #80]	@ 0x50
 8001178:	330c      	adds	r3, #12
 800117a:	64bb      	str	r3, [r7, #72]	@ 0x48

  // Received new data, move to fifo
  if (ep_addr == stream_rx->ep_addr) {
 800117c:	6cfb      	ldr	r3, [r7, #76]	@ 0x4c
 800117e:	789b      	ldrb	r3, [r3, #2]
 8001180:	79ba      	ldrb	r2, [r7, #6]
 8001182:	429a      	cmp	r2, r3
 8001184:	f040 8088 	bne.w	8001298 <cdcd_xfer_cb+0x1d4>
 8001188:	6cfb      	ldr	r3, [r7, #76]	@ 0x4c
 800118a:	63bb      	str	r3, [r7, #56]	@ 0x38
 800118c:	683b      	ldr	r3, [r7, #0]
 800118e:	637b      	str	r3, [r7, #52]	@ 0x34
  if (s->ep_buf != NULL) {
 8001190:	6bbb      	ldr	r3, [r7, #56]	@ 0x38
 8001192:	689b      	ldr	r3, [r3, #8]
 8001194:	2b00      	cmp	r3, #0
 8001196:	d010      	beq.n	80011ba <cdcd_xfer_cb+0xf6>
    tu_fifo_write_n(&s->ff, s->ep_buf, (uint16_t)xferred_bytes);
 8001198:	6bbb      	ldr	r3, [r7, #56]	@ 0x38
 800119a:	f103 020c 	add.w	r2, r3, #12
 800119e:	6bbb      	ldr	r3, [r7, #56]	@ 0x38
 80011a0:	689b      	ldr	r3, [r3, #8]
 80011a2:	6b79      	ldr	r1, [r7, #52]	@ 0x34
 80011a4:	b289      	uxth	r1, r1
 80011a6:	633a      	str	r2, [r7, #48]	@ 0x30
 80011a8:	62fb      	str	r3, [r7, #44]	@ 0x2c
 80011aa:	460b      	mov	r3, r1
 80011ac:	857b      	strh	r3, [r7, #42]	@ 0x2a
  return tu_fifo_write_n_access_mode(f, data, n, NULL);
 80011ae:	8d7a      	ldrh	r2, [r7, #42]	@ 0x2a
 80011b0:	2300      	movs	r3, #0
 80011b2:	6af9      	ldr	r1, [r7, #44]	@ 0x2c
 80011b4:	6b38      	ldr	r0, [r7, #48]	@ 0x30
 80011b6:	f000 fc59 	bl	8001a6c <tu_fifo_write_n_access_mode>
}
 80011ba:	bf00      	nop
    tu_edpt_stream_read_xfer_complete(stream_rx, xferred_bytes);

    // Check for wanted char and invoke wanted callback
    if (((signed char)p_cdc->wanted_char) != -1) {
 80011bc:	6d3b      	ldr	r3, [r7, #80]	@ 0x50
 80011be:	7adb      	ldrb	r3, [r3, #11]
 80011c0:	2bff      	cmp	r3, #255	@ 0xff
 80011c2:	d04a      	beq.n	800125a <cdcd_xfer_cb+0x196>
      tu_fifo_buffer_info_t buf_info;
      tu_fifo_get_read_info(&stream_rx->ff, &buf_info);
 80011c4:	6cfb      	ldr	r3, [r7, #76]	@ 0x4c
 80011c6:	330c      	adds	r3, #12
 80011c8:	f107 020c 	add.w	r2, r7, #12
 80011cc:	4611      	mov	r1, r2
 80011ce:	4618      	mov	r0, r3
 80011d0:	f000 fd1f 	bl	8001c12 <tu_fifo_get_read_info>

      // find backward
      uint8_t *ptr;
      if (buf_info.wrapped.len > 0) {
 80011d4:	8abb      	ldrh	r3, [r7, #20]
 80011d6:	2b00      	cmp	r3, #0
 80011d8:	d005      	beq.n	80011e6 <cdcd_xfer_cb+0x122>
        ptr = buf_info.wrapped.ptr + buf_info.wrapped.len - 1; // last byte of wrap buffer
 80011da:	69ba      	ldr	r2, [r7, #24]
 80011dc:	8abb      	ldrh	r3, [r7, #20]
 80011de:	3b01      	subs	r3, #1
 80011e0:	4413      	add	r3, r2
 80011e2:	65fb      	str	r3, [r7, #92]	@ 0x5c
 80011e4:	e00a      	b.n	80011fc <cdcd_xfer_cb+0x138>
      } else if (buf_info.linear.len > 0) {
 80011e6:	89bb      	ldrh	r3, [r7, #12]
 80011e8:	2b00      	cmp	r3, #0
 80011ea:	d005      	beq.n	80011f8 <cdcd_xfer_cb+0x134>
        ptr = buf_info.linear.ptr + buf_info.linear.len - 1;   // last byte of linear buffer
 80011ec:	693a      	ldr	r2, [r7, #16]
 80011ee:	89bb      	ldrh	r3, [r7, #12]
 80011f0:	3b01      	subs	r3, #1
 80011f2:	4413      	add	r3, r2
 80011f4:	65fb      	str	r3, [r7, #92]	@ 0x5c
 80011f6:	e001      	b.n	80011fc <cdcd_xfer_cb+0x138>
      } else {
        ptr = NULL;                                      // no data
 80011f8:	2300      	movs	r3, #0
 80011fa:	65fb      	str	r3, [r7, #92]	@ 0x5c
      }

      if (ptr != NULL) {
 80011fc:	6dfb      	ldr	r3, [r7, #92]	@ 0x5c
 80011fe:	2b00      	cmp	r3, #0
 8001200:	d02b      	beq.n	800125a <cdcd_xfer_cb+0x196>
        for (uint32_t i = 0; i < xferred_bytes; i++) {
 8001202:	2300      	movs	r3, #0
 8001204:	65bb      	str	r3, [r7, #88]	@ 0x58
 8001206:	e022      	b.n	800124e <cdcd_xfer_cb+0x18a>
          if (p_cdc->wanted_char == (char)*ptr) {
 8001208:	6d3b      	ldr	r3, [r7, #80]	@ 0x50
 800120a:	7ada      	ldrb	r2, [r3, #11]
 800120c:	6dfb      	ldr	r3, [r7, #92]	@ 0x5c
 800120e:	781b      	ldrb	r3, [r3, #0]
 8001210:	429a      	cmp	r2, r3
 8001212:	d108      	bne.n	8001226 <cdcd_xfer_cb+0x162>
            tud_cdc_rx_wanted_cb(itf, p_cdc->wanted_char);
 8001214:	6d3b      	ldr	r3, [r7, #80]	@ 0x50
 8001216:	7ada      	ldrb	r2, [r3, #11]
 8001218:	f897 3057 	ldrb.w	r3, [r7, #87]	@ 0x57
 800121c:	4611      	mov	r1, r2
 800121e:	4618      	mov	r0, r3
 8001220:	f7ff faa5 	bl	800076e <tud_cdc_rx_wanted_cb>
            break; // only invoke once per transfer, even if multiple wanted chars are present
 8001224:	e019      	b.n	800125a <cdcd_xfer_cb+0x196>
          }

          if (ptr == buf_info.wrapped.ptr) {
 8001226:	69bb      	ldr	r3, [r7, #24]
 8001228:	6dfa      	ldr	r2, [r7, #92]	@ 0x5c
 800122a:	429a      	cmp	r2, r3
 800122c:	d105      	bne.n	800123a <cdcd_xfer_cb+0x176>
            ptr = buf_info.linear.ptr + buf_info.linear.len - 1; // last byte of linear buffer
 800122e:	693a      	ldr	r2, [r7, #16]
 8001230:	89bb      	ldrh	r3, [r7, #12]
 8001232:	3b01      	subs	r3, #1
 8001234:	4413      	add	r3, r2
 8001236:	65fb      	str	r3, [r7, #92]	@ 0x5c
 8001238:	e006      	b.n	8001248 <cdcd_xfer_cb+0x184>
          } else if (ptr == buf_info.linear.ptr) {
 800123a:	693b      	ldr	r3, [r7, #16]
 800123c:	6dfa      	ldr	r2, [r7, #92]	@ 0x5c
 800123e:	429a      	cmp	r2, r3
 8001240:	d00a      	beq.n	8001258 <cdcd_xfer_cb+0x194>
            break;                                         // reached the beginning
          } else {
            ptr--;
 8001242:	6dfb      	ldr	r3, [r7, #92]	@ 0x5c
 8001244:	3b01      	subs	r3, #1
 8001246:	65fb      	str	r3, [r7, #92]	@ 0x5c
        for (uint32_t i = 0; i < xferred_bytes; i++) {
 8001248:	6dbb      	ldr	r3, [r7, #88]	@ 0x58
 800124a:	3301      	adds	r3, #1
 800124c:	65bb      	str	r3, [r7, #88]	@ 0x58
 800124e:	6dba      	ldr	r2, [r7, #88]	@ 0x58
 8001250:	683b      	ldr	r3, [r7, #0]
 8001252:	429a      	cmp	r2, r3
 8001254:	d3d8      	bcc.n	8001208 <cdcd_xfer_cb+0x144>
 8001256:	e000      	b.n	800125a <cdcd_xfer_cb+0x196>
            break;                                         // reached the beginning
 8001258:	bf00      	nop
 800125a:	6cfb      	ldr	r3, [r7, #76]	@ 0x4c
 800125c:	627b      	str	r3, [r7, #36]	@ 0x24
  return tu_fifo_empty(&s->ff);
 800125e:	6a7b      	ldr	r3, [r7, #36]	@ 0x24
 8001260:	330c      	adds	r3, #12
 8001262:	623b      	str	r3, [r7, #32]
  const uint16_t wr_idx = f->wr_idx;
 8001264:	6a3b      	ldr	r3, [r7, #32]
 8001266:	891b      	ldrh	r3, [r3, #8]
 8001268:	83fb      	strh	r3, [r7, #30]
  const uint16_t rd_idx = f->rd_idx;
 800126a:	6a3b      	ldr	r3, [r7, #32]
 800126c:	895b      	ldrh	r3, [r3, #10]
 800126e:	83bb      	strh	r3, [r7, #28]
  return wr_idx == rd_idx;
 8001270:	8bfa      	ldrh	r2, [r7, #30]
 8001272:	8bbb      	ldrh	r3, [r7, #28]
 8001274:	429a      	cmp	r2, r3
 8001276:	bf0c      	ite	eq
 8001278:	2301      	moveq	r3, #1
 800127a:	2300      	movne	r3, #0
 800127c:	b2db      	uxtb	r3, r3
        }
      }
    }

    // invoke receive callback if there is still data
    if (!tu_edpt_stream_empty(stream_rx)) {
 800127e:	f083 0301 	eor.w	r3, r3, #1
 8001282:	b2db      	uxtb	r3, r3
 8001284:	2b00      	cmp	r3, #0
 8001286:	d004      	beq.n	8001292 <cdcd_xfer_cb+0x1ce>
      tud_cdc_rx_cb(itf);
 8001288:	f897 3057 	ldrb.w	r3, [r7, #87]	@ 0x57
 800128c:	4618      	mov	r0, r3
 800128e:	f7ff fa64 	bl	800075a <tud_cdc_rx_cb>
    }

    tu_edpt_stream_read_xfer(stream_rx); // prepare for more data
 8001292:	6cf8      	ldr	r0, [r7, #76]	@ 0x4c
 8001294:	f004 ff44 	bl	8006120 <tu_edpt_stream_read_xfer>
  }

  // Data sent to host, we continue to fetch from tx fifo to send.
  // Note: This will cause incorrect baudrate set in line coding. Though maybe the baudrate is not really important!
  if (ep_addr == stream_tx->ep_addr) {
 8001298:	6cbb      	ldr	r3, [r7, #72]	@ 0x48
 800129a:	789b      	ldrb	r3, [r3, #2]
 800129c:	79ba      	ldrb	r2, [r7, #6]
 800129e:	429a      	cmp	r2, r3
 80012a0:	d10e      	bne.n	80012c0 <cdcd_xfer_cb+0x1fc>
    tud_cdc_tx_complete_cb(itf); // invoke callback to possibly refill tx fifo
 80012a2:	f897 3057 	ldrb.w	r3, [r7, #87]	@ 0x57
 80012a6:	4618      	mov	r0, r3
 80012a8:	f7ff fa6e 	bl	8000788 <tud_cdc_tx_complete_cb>

    if (0 == tu_edpt_stream_write_xfer(stream_tx)) {
 80012ac:	6cb8      	ldr	r0, [r7, #72]	@ 0x48
 80012ae:	f004 fe23 	bl	8005ef8 <tu_edpt_stream_write_xfer>
 80012b2:	4603      	mov	r3, r0
 80012b4:	2b00      	cmp	r3, #0
 80012b6:	d103      	bne.n	80012c0 <cdcd_xfer_cb+0x1fc>
      // If there is no data left, a ZLP should be sent if needed
      tu_edpt_stream_write_zlp_if_needed(stream_tx, xferred_bytes);
 80012b8:	6839      	ldr	r1, [r7, #0]
 80012ba:	6cb8      	ldr	r0, [r7, #72]	@ 0x48
 80012bc:	f004 fdce 	bl	8005e5c <tu_edpt_stream_write_zlp_if_needed>
    }
  }

  // Sent notification to host
  if (ep_addr == p_cdc->ep_notify) {
 80012c0:	6d3b      	ldr	r3, [r7, #80]	@ 0x50
 80012c2:	789b      	ldrb	r3, [r3, #2]
 80012c4:	79ba      	ldrb	r2, [r7, #6]
 80012c6:	429a      	cmp	r2, r3
 80012c8:	d104      	bne.n	80012d4 <cdcd_xfer_cb+0x210>
    tud_cdc_notify_complete_cb(itf);
 80012ca:	f897 3057 	ldrb.w	r3, [r7, #87]	@ 0x57
 80012ce:	4618      	mov	r0, r3
 80012d0:	f7ff fa64 	bl	800079c <tud_cdc_notify_complete_cb>
  }

  return true;
 80012d4:	2301      	movs	r3, #1
}
 80012d6:	4618      	mov	r0, r3
 80012d8:	3760      	adds	r7, #96	@ 0x60
 80012da:	46bd      	mov	sp, r7
 80012dc:	bd80      	pop	{r7, pc}
 80012de:	bf00      	nop
 80012e0:	20000378 	.word	0x20000378
 80012e4:	e000edf0 	.word	0xe000edf0

080012e8 <tu_fifo_config>:
#endif

//--------------------------------------------------------------------+
// Setup API
//--------------------------------------------------------------------+
bool tu_fifo_config(tu_fifo_t *f, void *buffer, uint16_t depth, bool overwritable) {
 80012e8:	b480      	push	{r7}
 80012ea:	b085      	sub	sp, #20
 80012ec:	af00      	add	r7, sp, #0
 80012ee:	60f8      	str	r0, [r7, #12]
 80012f0:	60b9      	str	r1, [r7, #8]
 80012f2:	4611      	mov	r1, r2
 80012f4:	461a      	mov	r2, r3
 80012f6:	460b      	mov	r3, r1
 80012f8:	80fb      	strh	r3, [r7, #6]
 80012fa:	4613      	mov	r3, r2
 80012fc:	717b      	strb	r3, [r7, #5]
  // Limit index space to 2*depth - this allows for a fast "modulo" calculation
  // but limits the maximum depth to 2^16/2 = 2^15 and buffer overflows are detectable
  // only if overflow happens once (important for unsupervised DMA applications)
  if (depth > 0x8000) {
 80012fe:	88fb      	ldrh	r3, [r7, #6]
 8001300:	f5b3 4f00 	cmp.w	r3, #32768	@ 0x8000
 8001304:	d901      	bls.n	800130a <tu_fifo_config+0x22>
    return false;
 8001306:	2300      	movs	r3, #0
 8001308:	e00f      	b.n	800132a <tu_fifo_config+0x42>
  }

  ff_lock(f->mutex_wr);
  ff_lock(f->mutex_rd);

  f->buffer       = (uint8_t *)buffer;
 800130a:	68fb      	ldr	r3, [r7, #12]
 800130c:	68ba      	ldr	r2, [r7, #8]
 800130e:	601a      	str	r2, [r3, #0]
  f->depth        = depth;
 8001310:	68fb      	ldr	r3, [r7, #12]
 8001312:	88fa      	ldrh	r2, [r7, #6]
 8001314:	809a      	strh	r2, [r3, #4]
  f->overwritable = overwritable;
 8001316:	68fb      	ldr	r3, [r7, #12]
 8001318:	797a      	ldrb	r2, [r7, #5]
 800131a:	719a      	strb	r2, [r3, #6]
  f->rd_idx       = 0u;
 800131c:	68fb      	ldr	r3, [r7, #12]
 800131e:	2200      	movs	r2, #0
 8001320:	815a      	strh	r2, [r3, #10]
  f->wr_idx       = 0u;
 8001322:	68fb      	ldr	r3, [r7, #12]
 8001324:	2200      	movs	r2, #0
 8001326:	811a      	strh	r2, [r3, #8]

  ff_unlock(f->mutex_wr);
  ff_unlock(f->mutex_rd);

  return true;
 8001328:	2301      	movs	r3, #1
}
 800132a:	4618      	mov	r0, r3
 800132c:	3714      	adds	r7, #20
 800132e:	46bd      	mov	sp, r7
 8001330:	bc80      	pop	{r7}
 8001332:	4770      	bx	lr

08001334 <tu_fifo_clear>:

// clear fifo by resetting read and write indices
void tu_fifo_clear(tu_fifo_t *f) {
 8001334:	b480      	push	{r7}
 8001336:	b083      	sub	sp, #12
 8001338:	af00      	add	r7, sp, #0
 800133a:	6078      	str	r0, [r7, #4]
  ff_lock(f->mutex_wr);
  ff_lock(f->mutex_rd);

  f->rd_idx = 0;
 800133c:	687b      	ldr	r3, [r7, #4]
 800133e:	2200      	movs	r2, #0
 8001340:	815a      	strh	r2, [r3, #10]
  f->wr_idx = 0;
 8001342:	687b      	ldr	r3, [r7, #4]
 8001344:	2200      	movs	r2, #0
 8001346:	811a      	strh	r2, [r3, #8]

  ff_unlock(f->mutex_wr);
  ff_unlock(f->mutex_rd);
}
 8001348:	bf00      	nop
 800134a:	370c      	adds	r7, #12
 800134c:	46bd      	mov	sp, r7
 800134e:	bc80      	pop	{r7}
 8001350:	4770      	bx	lr

08001352 <tu_fifo_set_overwritable>:

// Change the fifo overwritable mode
void tu_fifo_set_overwritable(tu_fifo_t *f, bool overwritable) {
 8001352:	b480      	push	{r7}
 8001354:	b083      	sub	sp, #12
 8001356:	af00      	add	r7, sp, #0
 8001358:	6078      	str	r0, [r7, #4]
 800135a:	460b      	mov	r3, r1
 800135c:	70fb      	strb	r3, [r7, #3]
  if (f->overwritable == overwritable) {
 800135e:	687b      	ldr	r3, [r7, #4]
 8001360:	799b      	ldrb	r3, [r3, #6]
 8001362:	78fa      	ldrb	r2, [r7, #3]
 8001364:	429a      	cmp	r2, r3
 8001366:	d003      	beq.n	8001370 <tu_fifo_set_overwritable+0x1e>
  }

  ff_lock(f->mutex_wr);
  ff_lock(f->mutex_rd);

  f->overwritable = overwritable;
 8001368:	687b      	ldr	r3, [r7, #4]
 800136a:	78fa      	ldrb	r2, [r7, #3]
 800136c:	719a      	strb	r2, [r3, #6]
 800136e:	e000      	b.n	8001372 <tu_fifo_set_overwritable+0x20>
    return;
 8001370:	bf00      	nop

  ff_unlock(f->mutex_wr);
  ff_unlock(f->mutex_rd);
}
 8001372:	370c      	adds	r7, #12
 8001374:	46bd      	mov	sp, r7
 8001376:	bc80      	pop	{r7}
 8001378:	4770      	bx	lr

0800137a <tu_hwfifo_write>:
  *((volatile uint8_t *)hwfifo) = *(const uint8_t *)src;
    #endif
}

// Copy from fifo to fixed address buffer (usually a tx register) with TU_FIFO_FIXED_ADDR_RW32 mode
void tu_hwfifo_write(volatile void *hwfifo, const uint8_t *src, uint16_t len, const tu_hwfifo_access_t *access_mode) {
 800137a:	b580      	push	{r7, lr}
 800137c:	b08e      	sub	sp, #56	@ 0x38
 800137e:	af00      	add	r7, sp, #0
 8001380:	60f8      	str	r0, [r7, #12]
 8001382:	60b9      	str	r1, [r7, #8]
 8001384:	603b      	str	r3, [r7, #0]
 8001386:	4613      	mov	r3, r2
 8001388:	80fb      	strh	r3, [r7, #6]
  // Write full available 16/32 bit words to dest
  const uint8_t data_stride = (access_mode != NULL) ? access_mode->data_stride : CFG_TUSB_FIFO_HWFIFO_DATA_STRIDE;
 800138a:	683b      	ldr	r3, [r7, #0]
 800138c:	2b00      	cmp	r3, #0
 800138e:	d002      	beq.n	8001396 <tu_hwfifo_write+0x1c>
 8001390:	683b      	ldr	r3, [r7, #0]
 8001392:	781b      	ldrb	r3, [r3, #0]
 8001394:	e000      	b.n	8001398 <tu_hwfifo_write+0x1e>
 8001396:	2302      	movs	r3, #2
 8001398:	f887 3037 	strb.w	r3, [r7, #55]	@ 0x37
  while (len >= data_stride) {
 800139c:	e01c      	b.n	80013d8 <tu_hwfifo_write+0x5e>
 800139e:	68fb      	ldr	r3, [r7, #12]
 80013a0:	633b      	str	r3, [r7, #48]	@ 0x30
 80013a2:	68bb      	ldr	r3, [r7, #8]
 80013a4:	62fb      	str	r3, [r7, #44]	@ 0x2c
 80013a6:	f897 3037 	ldrb.w	r3, [r7, #55]	@ 0x37
 80013aa:	f887 302b 	strb.w	r3, [r7, #43]	@ 0x2b
 80013ae:	6afb      	ldr	r3, [r7, #44]	@ 0x2c
 80013b0:	627b      	str	r3, [r7, #36]	@ 0x24
  return *((uint16_t const *) mem);
 80013b2:	6a7b      	ldr	r3, [r7, #36]	@ 0x24
 80013b4:	881a      	ldrh	r2, [r3, #0]
    *((volatile uint16_t *)hwfifo) = tu_unaligned_read16(src);
 80013b6:	6b3b      	ldr	r3, [r7, #48]	@ 0x30
 80013b8:	801a      	strh	r2, [r3, #0]
}
 80013ba:	bf00      	nop
    stride_write(hwfifo, src, data_stride);
    src += data_stride;
 80013bc:	f897 3037 	ldrb.w	r3, [r7, #55]	@ 0x37
 80013c0:	68ba      	ldr	r2, [r7, #8]
 80013c2:	4413      	add	r3, r2
 80013c4:	60bb      	str	r3, [r7, #8]
    len -= data_stride;
 80013c6:	f897 3037 	ldrb.w	r3, [r7, #55]	@ 0x37
 80013ca:	b29b      	uxth	r3, r3
 80013cc:	88fa      	ldrh	r2, [r7, #6]
 80013ce:	1ad3      	subs	r3, r2, r3
 80013d0:	80fb      	strh	r3, [r7, #6]
    HWFIFO_ADDR_NEXT(hwfifo, );
 80013d2:	68fb      	ldr	r3, [r7, #12]
 80013d4:	3304      	adds	r3, #4
 80013d6:	60fb      	str	r3, [r7, #12]
  while (len >= data_stride) {
 80013d8:	f897 3037 	ldrb.w	r3, [r7, #55]	@ 0x37
 80013dc:	b29b      	uxth	r3, r3
 80013de:	88fa      	ldrh	r2, [r7, #6]
 80013e0:	429a      	cmp	r2, r3
 80013e2:	d2dc      	bcs.n	800139e <tu_hwfifo_write+0x24>
    HWFIFO_ADDR_NEXT_N(hwfifo, , 1);
  }
      #else

  // Write odd bytes i.e 1 byte for 16 bit or 1-3 bytes for 32 bit
  if (len > 0) {
 80013e4:	88fb      	ldrh	r3, [r7, #6]
 80013e6:	2b00      	cmp	r3, #0
 80013e8:	d01a      	beq.n	8001420 <tu_hwfifo_write+0xa6>
    uint32_t tmp = 0u;
 80013ea:	2300      	movs	r3, #0
 80013ec:	613b      	str	r3, [r7, #16]
    memcpy(&tmp, src, len);
 80013ee:	88fa      	ldrh	r2, [r7, #6]
 80013f0:	f107 0310 	add.w	r3, r7, #16
 80013f4:	68b9      	ldr	r1, [r7, #8]
 80013f6:	4618      	mov	r0, r3
 80013f8:	f006 f992 	bl	8007720 <memcpy>
 80013fc:	68fb      	ldr	r3, [r7, #12]
 80013fe:	623b      	str	r3, [r7, #32]
 8001400:	f107 0310 	add.w	r3, r7, #16
 8001404:	61fb      	str	r3, [r7, #28]
 8001406:	f897 3037 	ldrb.w	r3, [r7, #55]	@ 0x37
 800140a:	76fb      	strb	r3, [r7, #27]
 800140c:	69fb      	ldr	r3, [r7, #28]
 800140e:	617b      	str	r3, [r7, #20]
 8001410:	697b      	ldr	r3, [r7, #20]
 8001412:	881a      	ldrh	r2, [r3, #0]
    *((volatile uint16_t *)hwfifo) = tu_unaligned_read16(src);
 8001414:	6a3b      	ldr	r3, [r7, #32]
 8001416:	801a      	strh	r2, [r3, #0]
}
 8001418:	bf00      	nop
    stride_write(hwfifo, &tmp, data_stride);
    HWFIFO_ADDR_NEXT(hwfifo, );
 800141a:	68fb      	ldr	r3, [r7, #12]
 800141c:	3304      	adds	r3, #4
 800141e:	60fb      	str	r3, [r7, #12]
  }
      #endif
    #endif
}
 8001420:	bf00      	nop
 8001422:	3738      	adds	r7, #56	@ 0x38
 8001424:	46bd      	mov	sp, r7
 8001426:	bd80      	pop	{r7, pc}

08001428 <tu_hwfifo_read>:
    #if CFG_TUSB_FIFO_HWFIFO_DATA_STRIDE == 1
  *(uint8_t *)dest = *((const volatile uint8_t *)hwfifo);
    #endif
}

void tu_hwfifo_read(const volatile void *hwfifo, uint8_t *dest, uint16_t len, const tu_hwfifo_access_t *access_mode) {
 8001428:	b580      	push	{r7, lr}
 800142a:	b090      	sub	sp, #64	@ 0x40
 800142c:	af00      	add	r7, sp, #0
 800142e:	60f8      	str	r0, [r7, #12]
 8001430:	60b9      	str	r1, [r7, #8]
 8001432:	603b      	str	r3, [r7, #0]
 8001434:	4613      	mov	r3, r2
 8001436:	80fb      	strh	r3, [r7, #6]
  // Reading full available 16/32-bit hwfifo and write to fifo
  const uint8_t data_stride = (access_mode != NULL) ? access_mode->data_stride : CFG_TUSB_FIFO_HWFIFO_DATA_STRIDE;
 8001438:	683b      	ldr	r3, [r7, #0]
 800143a:	2b00      	cmp	r3, #0
 800143c:	d002      	beq.n	8001444 <tu_hwfifo_read+0x1c>
 800143e:	683b      	ldr	r3, [r7, #0]
 8001440:	781b      	ldrb	r3, [r3, #0]
 8001442:	e000      	b.n	8001446 <tu_hwfifo_read+0x1e>
 8001444:	2302      	movs	r3, #2
 8001446:	f887 303f 	strb.w	r3, [r7, #63]	@ 0x3f
  while (len >= data_stride) {
 800144a:	e021      	b.n	8001490 <tu_hwfifo_read+0x68>
 800144c:	68fb      	ldr	r3, [r7, #12]
 800144e:	63bb      	str	r3, [r7, #56]	@ 0x38
 8001450:	68bb      	ldr	r3, [r7, #8]
 8001452:	637b      	str	r3, [r7, #52]	@ 0x34
 8001454:	f897 303f 	ldrb.w	r3, [r7, #63]	@ 0x3f
 8001458:	f887 3033 	strb.w	r3, [r7, #51]	@ 0x33
    tu_unaligned_write16(dest, *((const volatile uint16_t *)hwfifo));
 800145c:	6bbb      	ldr	r3, [r7, #56]	@ 0x38
 800145e:	881b      	ldrh	r3, [r3, #0]
 8001460:	b29a      	uxth	r2, r3
 8001462:	6b7b      	ldr	r3, [r7, #52]	@ 0x34
 8001464:	62fb      	str	r3, [r7, #44]	@ 0x2c
 8001466:	4613      	mov	r3, r2
 8001468:	857b      	strh	r3, [r7, #42]	@ 0x2a
  *((uint16_t *) mem) = value;
 800146a:	6afb      	ldr	r3, [r7, #44]	@ 0x2c
 800146c:	8d7a      	ldrh	r2, [r7, #42]	@ 0x2a
 800146e:	801a      	strh	r2, [r3, #0]
}
 8001470:	bf00      	nop
}
 8001472:	bf00      	nop
    stride_read(hwfifo, dest, data_stride);
    dest += data_stride;
 8001474:	f897 303f 	ldrb.w	r3, [r7, #63]	@ 0x3f
 8001478:	68ba      	ldr	r2, [r7, #8]
 800147a:	4413      	add	r3, r2
 800147c:	60bb      	str	r3, [r7, #8]
    len -= data_stride;
 800147e:	f897 303f 	ldrb.w	r3, [r7, #63]	@ 0x3f
 8001482:	b29b      	uxth	r3, r3
 8001484:	88fa      	ldrh	r2, [r7, #6]
 8001486:	1ad3      	subs	r3, r2, r3
 8001488:	80fb      	strh	r3, [r7, #6]
    HWFIFO_ADDR_NEXT(hwfifo, const);
 800148a:	68fb      	ldr	r3, [r7, #12]
 800148c:	3304      	adds	r3, #4
 800148e:	60fb      	str	r3, [r7, #12]
  while (len >= data_stride) {
 8001490:	f897 303f 	ldrb.w	r3, [r7, #63]	@ 0x3f
 8001494:	b29b      	uxth	r3, r3
 8001496:	88fa      	ldrh	r2, [r7, #6]
 8001498:	429a      	cmp	r2, r3
 800149a:	d2d7      	bcs.n	800144c <tu_hwfifo_read+0x24>
    len--;
    HWFIFO_ADDR_NEXT_N(hwfifo, const, 1);
  }
      #else
  // Read odd bytes i.e 1 byte for 16 bit or 1-3 bytes for 32 bit
  if (len > 0) {
 800149c:	88fb      	ldrh	r3, [r7, #6]
 800149e:	2b00      	cmp	r3, #0
 80014a0:	d01d      	beq.n	80014de <tu_hwfifo_read+0xb6>
 80014a2:	68fb      	ldr	r3, [r7, #12]
 80014a4:	627b      	str	r3, [r7, #36]	@ 0x24
 80014a6:	f107 0310 	add.w	r3, r7, #16
 80014aa:	623b      	str	r3, [r7, #32]
 80014ac:	f897 303f 	ldrb.w	r3, [r7, #63]	@ 0x3f
 80014b0:	77fb      	strb	r3, [r7, #31]
    tu_unaligned_write16(dest, *((const volatile uint16_t *)hwfifo));
 80014b2:	6a7b      	ldr	r3, [r7, #36]	@ 0x24
 80014b4:	881b      	ldrh	r3, [r3, #0]
 80014b6:	b29a      	uxth	r2, r3
 80014b8:	6a3b      	ldr	r3, [r7, #32]
 80014ba:	61bb      	str	r3, [r7, #24]
 80014bc:	4613      	mov	r3, r2
 80014be:	82fb      	strh	r3, [r7, #22]
  *((uint16_t *) mem) = value;
 80014c0:	69bb      	ldr	r3, [r7, #24]
 80014c2:	8afa      	ldrh	r2, [r7, #22]
 80014c4:	801a      	strh	r2, [r3, #0]
}
 80014c6:	bf00      	nop
}
 80014c8:	bf00      	nop
    uint32_t tmp;
    stride_read(hwfifo, &tmp, data_stride);
    memcpy(dest, &tmp, len);
 80014ca:	88fa      	ldrh	r2, [r7, #6]
 80014cc:	f107 0310 	add.w	r3, r7, #16
 80014d0:	4619      	mov	r1, r3
 80014d2:	68b8      	ldr	r0, [r7, #8]
 80014d4:	f006 f924 	bl	8007720 <memcpy>
    HWFIFO_ADDR_NEXT(hwfifo, const);
 80014d8:	68fb      	ldr	r3, [r7, #12]
 80014da:	3304      	adds	r3, #4
 80014dc:	60fb      	str	r3, [r7, #12]
  }
      #endif
    #endif
}
 80014de:	bf00      	nop
 80014e0:	3740      	adds	r7, #64	@ 0x40
 80014e2:	46bd      	mov	sp, r7
 80014e4:	bd80      	pop	{r7, pc}

080014e6 <hwff_push_n>:
  #endif

// push to sw fifo from hwfifo
static void hwff_push_n(const tu_fifo_t *f, const void *app_buf, uint16_t n, uint16_t wr_ptr,
                        const tu_hwfifo_access_t *access_mode) {
 80014e6:	b580      	push	{r7, lr}
 80014e8:	b08e      	sub	sp, #56	@ 0x38
 80014ea:	af00      	add	r7, sp, #0
 80014ec:	60f8      	str	r0, [r7, #12]
 80014ee:	60b9      	str	r1, [r7, #8]
 80014f0:	4611      	mov	r1, r2
 80014f2:	461a      	mov	r2, r3
 80014f4:	460b      	mov	r3, r1
 80014f6:	80fb      	strh	r3, [r7, #6]
 80014f8:	4613      	mov	r3, r2
 80014fa:	80bb      	strh	r3, [r7, #4]
  uint16_t lin_bytes  = f->depth - wr_ptr;
 80014fc:	68fb      	ldr	r3, [r7, #12]
 80014fe:	889a      	ldrh	r2, [r3, #4]
 8001500:	88bb      	ldrh	r3, [r7, #4]
 8001502:	1ad3      	subs	r3, r2, r3
 8001504:	853b      	strh	r3, [r7, #40]	@ 0x28
  uint16_t wrap_bytes = n - lin_bytes;
 8001506:	88fa      	ldrh	r2, [r7, #6]
 8001508:	8d3b      	ldrh	r3, [r7, #40]	@ 0x28
 800150a:	1ad3      	subs	r3, r2, r3
 800150c:	86fb      	strh	r3, [r7, #54]	@ 0x36
  uint8_t *ff_buf     = f->buffer + wr_ptr;
 800150e:	68fb      	ldr	r3, [r7, #12]
 8001510:	681a      	ldr	r2, [r3, #0]
 8001512:	88bb      	ldrh	r3, [r7, #4]
 8001514:	4413      	add	r3, r2
 8001516:	633b      	str	r3, [r7, #48]	@ 0x30

  const volatile void *hwfifo = (const volatile void *)app_buf;
 8001518:	68bb      	ldr	r3, [r7, #8]
 800151a:	62fb      	str	r3, [r7, #44]	@ 0x2c
  if (n <= lin_bytes) {
 800151c:	88fa      	ldrh	r2, [r7, #6]
 800151e:	8d3b      	ldrh	r3, [r7, #40]	@ 0x28
 8001520:	429a      	cmp	r2, r3
 8001522:	d806      	bhi.n	8001532 <hwff_push_n+0x4c>
    // Linear only case
    tu_hwfifo_read(hwfifo, ff_buf, n, access_mode);
 8001524:	88fa      	ldrh	r2, [r7, #6]
 8001526:	6c3b      	ldr	r3, [r7, #64]	@ 0x40
 8001528:	6b39      	ldr	r1, [r7, #48]	@ 0x30
 800152a:	6af8      	ldr	r0, [r7, #44]	@ 0x2c
 800152c:	f7ff ff7c 	bl	8001428 <tu_hwfifo_read>
    if (wrap_bytes > 0) {
      tu_hwfifo_read(hwfifo, ff_buf, wrap_bytes, access_mode);
    }
  #endif
  }
}
 8001530:	e094      	b.n	800165c <hwff_push_n+0x176>
    const uint8_t  data_stride = access_mode->data_stride;
 8001532:	6c3b      	ldr	r3, [r7, #64]	@ 0x40
 8001534:	781b      	ldrb	r3, [r3, #0]
 8001536:	f887 3027 	strb.w	r3, [r7, #39]	@ 0x27
    const uint32_t odd_mask    = data_stride - 1;
 800153a:	f897 3027 	ldrb.w	r3, [r7, #39]	@ 0x27
 800153e:	3b01      	subs	r3, #1
 8001540:	623b      	str	r3, [r7, #32]
    uint16_t       lin_even    = lin_bytes & ~odd_mask;
 8001542:	6a3b      	ldr	r3, [r7, #32]
 8001544:	b29b      	uxth	r3, r3
 8001546:	43db      	mvns	r3, r3
 8001548:	b29a      	uxth	r2, r3
 800154a:	8d3b      	ldrh	r3, [r7, #40]	@ 0x28
 800154c:	4013      	ands	r3, r2
 800154e:	83fb      	strh	r3, [r7, #30]
    tu_hwfifo_read(hwfifo, ff_buf, lin_even, access_mode);
 8001550:	8bfa      	ldrh	r2, [r7, #30]
 8001552:	6c3b      	ldr	r3, [r7, #64]	@ 0x40
 8001554:	6b39      	ldr	r1, [r7, #48]	@ 0x30
 8001556:	6af8      	ldr	r0, [r7, #44]	@ 0x2c
 8001558:	f7ff ff66 	bl	8001428 <tu_hwfifo_read>
    HWFIFO_ADDR_NEXT_N(hwfifo, const, lin_even * HWFIFO_ADDR_DATA_RATIO);
 800155c:	8bfb      	ldrh	r3, [r7, #30]
 800155e:	005b      	lsls	r3, r3, #1
 8001560:	461a      	mov	r2, r3
 8001562:	6afb      	ldr	r3, [r7, #44]	@ 0x2c
 8001564:	4413      	add	r3, r2
 8001566:	62fb      	str	r3, [r7, #44]	@ 0x2c
    ff_buf += lin_even;
 8001568:	8bfb      	ldrh	r3, [r7, #30]
 800156a:	6b3a      	ldr	r2, [r7, #48]	@ 0x30
 800156c:	4413      	add	r3, r2
 800156e:	633b      	str	r3, [r7, #48]	@ 0x30
    const uint8_t lin_odd = lin_bytes & odd_mask;
 8001570:	8d3b      	ldrh	r3, [r7, #40]	@ 0x28
 8001572:	b2da      	uxtb	r2, r3
 8001574:	6a3b      	ldr	r3, [r7, #32]
 8001576:	b2db      	uxtb	r3, r3
 8001578:	4013      	ands	r3, r2
 800157a:	777b      	strb	r3, [r7, #29]
    if (lin_odd > 0) {
 800157c:	7f7b      	ldrb	r3, [r7, #29]
 800157e:	2b00      	cmp	r3, #0
 8001580:	d060      	beq.n	8001644 <hwff_push_n+0x15e>
      const uint8_t wrap_odd = (uint8_t)tu_min16(wrap_bytes, data_stride - lin_odd);
 8001582:	f897 3027 	ldrb.w	r3, [r7, #39]	@ 0x27
 8001586:	b29a      	uxth	r2, r3
 8001588:	7f7b      	ldrb	r3, [r7, #29]
 800158a:	b29b      	uxth	r3, r3
 800158c:	1ad3      	subs	r3, r2, r3
 800158e:	b29a      	uxth	r2, r3
 8001590:	8efb      	ldrh	r3, [r7, #54]	@ 0x36
 8001592:	837b      	strh	r3, [r7, #26]
 8001594:	4613      	mov	r3, r2
 8001596:	833b      	strh	r3, [r7, #24]
TU_ATTR_ALWAYS_INLINE static inline uint16_t tu_min16 (uint16_t x, uint16_t y) { return (x < y) ? x : y; }
 8001598:	8b7a      	ldrh	r2, [r7, #26]
 800159a:	8b3b      	ldrh	r3, [r7, #24]
 800159c:	4293      	cmp	r3, r2
 800159e:	bf28      	it	cs
 80015a0:	4613      	movcs	r3, r2
 80015a2:	b29b      	uxth	r3, r3
 80015a4:	773b      	strb	r3, [r7, #28]
      tu_hwfifo_read(hwfifo, buf_temp, lin_odd + wrap_odd, access_mode);
 80015a6:	7f7b      	ldrb	r3, [r7, #29]
 80015a8:	b29a      	uxth	r2, r3
 80015aa:	7f3b      	ldrb	r3, [r7, #28]
 80015ac:	b29b      	uxth	r3, r3
 80015ae:	4413      	add	r3, r2
 80015b0:	b29a      	uxth	r2, r3
 80015b2:	f107 0114 	add.w	r1, r7, #20
 80015b6:	6c3b      	ldr	r3, [r7, #64]	@ 0x40
 80015b8:	6af8      	ldr	r0, [r7, #44]	@ 0x2c
 80015ba:	f7ff ff35 	bl	8001428 <tu_hwfifo_read>
      HWFIFO_ADDR_NEXT(hwfifo, const);
 80015be:	6afb      	ldr	r3, [r7, #44]	@ 0x2c
 80015c0:	3304      	adds	r3, #4
 80015c2:	62fb      	str	r3, [r7, #44]	@ 0x2c
      for (uint8_t i = 0; i < lin_odd; ++i) {
 80015c4:	2300      	movs	r3, #0
 80015c6:	f887 302b 	strb.w	r3, [r7, #43]	@ 0x2b
 80015ca:	e00f      	b.n	80015ec <hwff_push_n+0x106>
        ff_buf[i] = buf_temp[i];
 80015cc:	f897 202b 	ldrb.w	r2, [r7, #43]	@ 0x2b
 80015d0:	f897 302b 	ldrb.w	r3, [r7, #43]	@ 0x2b
 80015d4:	6b39      	ldr	r1, [r7, #48]	@ 0x30
 80015d6:	440b      	add	r3, r1
 80015d8:	3238      	adds	r2, #56	@ 0x38
 80015da:	443a      	add	r2, r7
 80015dc:	f812 2c24 	ldrb.w	r2, [r2, #-36]
 80015e0:	701a      	strb	r2, [r3, #0]
      for (uint8_t i = 0; i < lin_odd; ++i) {
 80015e2:	f897 302b 	ldrb.w	r3, [r7, #43]	@ 0x2b
 80015e6:	3301      	adds	r3, #1
 80015e8:	f887 302b 	strb.w	r3, [r7, #43]	@ 0x2b
 80015ec:	f897 202b 	ldrb.w	r2, [r7, #43]	@ 0x2b
 80015f0:	7f7b      	ldrb	r3, [r7, #29]
 80015f2:	429a      	cmp	r2, r3
 80015f4:	d3ea      	bcc.n	80015cc <hwff_push_n+0xe6>
      for (uint8_t i = 0; i < wrap_odd; ++i) {
 80015f6:	2300      	movs	r3, #0
 80015f8:	f887 302a 	strb.w	r3, [r7, #42]	@ 0x2a
 80015fc:	e012      	b.n	8001624 <hwff_push_n+0x13e>
        f->buffer[i] = buf_temp[lin_odd + i];
 80015fe:	7f7a      	ldrb	r2, [r7, #29]
 8001600:	f897 302a 	ldrb.w	r3, [r7, #42]	@ 0x2a
 8001604:	441a      	add	r2, r3
 8001606:	68fb      	ldr	r3, [r7, #12]
 8001608:	6819      	ldr	r1, [r3, #0]
 800160a:	f897 302a 	ldrb.w	r3, [r7, #42]	@ 0x2a
 800160e:	440b      	add	r3, r1
 8001610:	3238      	adds	r2, #56	@ 0x38
 8001612:	443a      	add	r2, r7
 8001614:	f812 2c24 	ldrb.w	r2, [r2, #-36]
 8001618:	701a      	strb	r2, [r3, #0]
      for (uint8_t i = 0; i < wrap_odd; ++i) {
 800161a:	f897 302a 	ldrb.w	r3, [r7, #42]	@ 0x2a
 800161e:	3301      	adds	r3, #1
 8001620:	f887 302a 	strb.w	r3, [r7, #42]	@ 0x2a
 8001624:	f897 202a 	ldrb.w	r2, [r7, #42]	@ 0x2a
 8001628:	7f3b      	ldrb	r3, [r7, #28]
 800162a:	429a      	cmp	r2, r3
 800162c:	d3e7      	bcc.n	80015fe <hwff_push_n+0x118>
      wrap_bytes -= wrap_odd;
 800162e:	7f3b      	ldrb	r3, [r7, #28]
 8001630:	b29b      	uxth	r3, r3
 8001632:	8efa      	ldrh	r2, [r7, #54]	@ 0x36
 8001634:	1ad3      	subs	r3, r2, r3
 8001636:	86fb      	strh	r3, [r7, #54]	@ 0x36
      ff_buf = f->buffer + wrap_odd; // wrap around
 8001638:	68fb      	ldr	r3, [r7, #12]
 800163a:	681a      	ldr	r2, [r3, #0]
 800163c:	7f3b      	ldrb	r3, [r7, #28]
 800163e:	4413      	add	r3, r2
 8001640:	633b      	str	r3, [r7, #48]	@ 0x30
 8001642:	e002      	b.n	800164a <hwff_push_n+0x164>
      ff_buf = f->buffer;            // wrap around to beginning
 8001644:	68fb      	ldr	r3, [r7, #12]
 8001646:	681b      	ldr	r3, [r3, #0]
 8001648:	633b      	str	r3, [r7, #48]	@ 0x30
    if (wrap_bytes > 0) {
 800164a:	8efb      	ldrh	r3, [r7, #54]	@ 0x36
 800164c:	2b00      	cmp	r3, #0
 800164e:	d005      	beq.n	800165c <hwff_push_n+0x176>
      tu_hwfifo_read(hwfifo, ff_buf, wrap_bytes, access_mode);
 8001650:	8efa      	ldrh	r2, [r7, #54]	@ 0x36
 8001652:	6c3b      	ldr	r3, [r7, #64]	@ 0x40
 8001654:	6b39      	ldr	r1, [r7, #48]	@ 0x30
 8001656:	6af8      	ldr	r0, [r7, #44]	@ 0x2c
 8001658:	f7ff fee6 	bl	8001428 <tu_hwfifo_read>
}
 800165c:	bf00      	nop
 800165e:	3738      	adds	r7, #56	@ 0x38
 8001660:	46bd      	mov	sp, r7
 8001662:	bd80      	pop	{r7, pc}

08001664 <hwff_pull_n>:

// pull from sw fifo to hwfifo
static void hwff_pull_n(const tu_fifo_t *f, void *app_buf, uint16_t n, uint16_t rd_ptr,
                        const tu_hwfifo_access_t *access_mode) {
 8001664:	b580      	push	{r7, lr}
 8001666:	b08e      	sub	sp, #56	@ 0x38
 8001668:	af00      	add	r7, sp, #0
 800166a:	60f8      	str	r0, [r7, #12]
 800166c:	60b9      	str	r1, [r7, #8]
 800166e:	4611      	mov	r1, r2
 8001670:	461a      	mov	r2, r3
 8001672:	460b      	mov	r3, r1
 8001674:	80fb      	strh	r3, [r7, #6]
 8001676:	4613      	mov	r3, r2
 8001678:	80bb      	strh	r3, [r7, #4]
  uint16_t       lin_bytes  = f->depth - rd_ptr;
 800167a:	68fb      	ldr	r3, [r7, #12]
 800167c:	889a      	ldrh	r2, [r3, #4]
 800167e:	88bb      	ldrh	r3, [r7, #4]
 8001680:	1ad3      	subs	r3, r2, r3
 8001682:	853b      	strh	r3, [r7, #40]	@ 0x28
  uint16_t       wrap_bytes = n - lin_bytes; // only used if wrapped
 8001684:	88fa      	ldrh	r2, [r7, #6]
 8001686:	8d3b      	ldrh	r3, [r7, #40]	@ 0x28
 8001688:	1ad3      	subs	r3, r2, r3
 800168a:	86fb      	strh	r3, [r7, #54]	@ 0x36
  const uint8_t *ff_buf     = f->buffer + rd_ptr;
 800168c:	68fb      	ldr	r3, [r7, #12]
 800168e:	681a      	ldr	r2, [r3, #0]
 8001690:	88bb      	ldrh	r3, [r7, #4]
 8001692:	4413      	add	r3, r2
 8001694:	633b      	str	r3, [r7, #48]	@ 0x30

  volatile void *hwfifo = (volatile void *)app_buf;
 8001696:	68bb      	ldr	r3, [r7, #8]
 8001698:	62fb      	str	r3, [r7, #44]	@ 0x2c

  if (n <= lin_bytes) {
 800169a:	88fa      	ldrh	r2, [r7, #6]
 800169c:	8d3b      	ldrh	r3, [r7, #40]	@ 0x28
 800169e:	429a      	cmp	r2, r3
 80016a0:	d806      	bhi.n	80016b0 <hwff_pull_n+0x4c>
    // Linear only case
    tu_hwfifo_write(hwfifo, ff_buf, n, access_mode);
 80016a2:	88fa      	ldrh	r2, [r7, #6]
 80016a4:	6c3b      	ldr	r3, [r7, #64]	@ 0x40
 80016a6:	6b39      	ldr	r1, [r7, #48]	@ 0x30
 80016a8:	6af8      	ldr	r0, [r7, #44]	@ 0x2c
 80016aa:	f7ff fe66 	bl	800137a <tu_hwfifo_write>
    if (wrap_bytes > 0) {
      tu_hwfifo_write(hwfifo, ff_buf, wrap_bytes, access_mode);
    }
  #endif
  }
}
 80016ae:	e094      	b.n	80017da <hwff_pull_n+0x176>
    const uint8_t  data_stride = access_mode->data_stride;
 80016b0:	6c3b      	ldr	r3, [r7, #64]	@ 0x40
 80016b2:	781b      	ldrb	r3, [r3, #0]
 80016b4:	f887 3027 	strb.w	r3, [r7, #39]	@ 0x27
    const uint32_t odd_mask    = data_stride - 1;
 80016b8:	f897 3027 	ldrb.w	r3, [r7, #39]	@ 0x27
 80016bc:	3b01      	subs	r3, #1
 80016be:	623b      	str	r3, [r7, #32]
    uint16_t       lin_even    = lin_bytes & ~odd_mask;
 80016c0:	6a3b      	ldr	r3, [r7, #32]
 80016c2:	b29b      	uxth	r3, r3
 80016c4:	43db      	mvns	r3, r3
 80016c6:	b29a      	uxth	r2, r3
 80016c8:	8d3b      	ldrh	r3, [r7, #40]	@ 0x28
 80016ca:	4013      	ands	r3, r2
 80016cc:	83fb      	strh	r3, [r7, #30]
    tu_hwfifo_write(hwfifo, ff_buf, lin_even, access_mode);
 80016ce:	8bfa      	ldrh	r2, [r7, #30]
 80016d0:	6c3b      	ldr	r3, [r7, #64]	@ 0x40
 80016d2:	6b39      	ldr	r1, [r7, #48]	@ 0x30
 80016d4:	6af8      	ldr	r0, [r7, #44]	@ 0x2c
 80016d6:	f7ff fe50 	bl	800137a <tu_hwfifo_write>
    HWFIFO_ADDR_NEXT_N(hwfifo, , lin_even * HWFIFO_ADDR_DATA_RATIO);
 80016da:	8bfb      	ldrh	r3, [r7, #30]
 80016dc:	005b      	lsls	r3, r3, #1
 80016de:	461a      	mov	r2, r3
 80016e0:	6afb      	ldr	r3, [r7, #44]	@ 0x2c
 80016e2:	4413      	add	r3, r2
 80016e4:	62fb      	str	r3, [r7, #44]	@ 0x2c
    ff_buf += lin_even;
 80016e6:	8bfb      	ldrh	r3, [r7, #30]
 80016e8:	6b3a      	ldr	r2, [r7, #48]	@ 0x30
 80016ea:	4413      	add	r3, r2
 80016ec:	633b      	str	r3, [r7, #48]	@ 0x30
    const uint8_t lin_odd = lin_bytes & odd_mask;
 80016ee:	8d3b      	ldrh	r3, [r7, #40]	@ 0x28
 80016f0:	b2da      	uxtb	r2, r3
 80016f2:	6a3b      	ldr	r3, [r7, #32]
 80016f4:	b2db      	uxtb	r3, r3
 80016f6:	4013      	ands	r3, r2
 80016f8:	777b      	strb	r3, [r7, #29]
    if (lin_odd > 0) {
 80016fa:	7f7b      	ldrb	r3, [r7, #29]
 80016fc:	2b00      	cmp	r3, #0
 80016fe:	d060      	beq.n	80017c2 <hwff_pull_n+0x15e>
      const uint8_t wrap_odd = (uint8_t)tu_min16(wrap_bytes, data_stride - lin_odd);
 8001700:	f897 3027 	ldrb.w	r3, [r7, #39]	@ 0x27
 8001704:	b29a      	uxth	r2, r3
 8001706:	7f7b      	ldrb	r3, [r7, #29]
 8001708:	b29b      	uxth	r3, r3
 800170a:	1ad3      	subs	r3, r2, r3
 800170c:	b29a      	uxth	r2, r3
 800170e:	8efb      	ldrh	r3, [r7, #54]	@ 0x36
 8001710:	837b      	strh	r3, [r7, #26]
 8001712:	4613      	mov	r3, r2
 8001714:	833b      	strh	r3, [r7, #24]
 8001716:	8b7a      	ldrh	r2, [r7, #26]
 8001718:	8b3b      	ldrh	r3, [r7, #24]
 800171a:	4293      	cmp	r3, r2
 800171c:	bf28      	it	cs
 800171e:	4613      	movcs	r3, r2
 8001720:	b29b      	uxth	r3, r3
 8001722:	773b      	strb	r3, [r7, #28]
      for (uint8_t i = 0; i < lin_odd; ++i) {
 8001724:	2300      	movs	r3, #0
 8001726:	f887 302b 	strb.w	r3, [r7, #43]	@ 0x2b
 800172a:	e00f      	b.n	800174c <hwff_pull_n+0xe8>
        buf_temp[i] = ff_buf[i];
 800172c:	f897 302b 	ldrb.w	r3, [r7, #43]	@ 0x2b
 8001730:	6b3a      	ldr	r2, [r7, #48]	@ 0x30
 8001732:	441a      	add	r2, r3
 8001734:	f897 302b 	ldrb.w	r3, [r7, #43]	@ 0x2b
 8001738:	7812      	ldrb	r2, [r2, #0]
 800173a:	3338      	adds	r3, #56	@ 0x38
 800173c:	443b      	add	r3, r7
 800173e:	f803 2c24 	strb.w	r2, [r3, #-36]
      for (uint8_t i = 0; i < lin_odd; ++i) {
 8001742:	f897 302b 	ldrb.w	r3, [r7, #43]	@ 0x2b
 8001746:	3301      	adds	r3, #1
 8001748:	f887 302b 	strb.w	r3, [r7, #43]	@ 0x2b
 800174c:	f897 202b 	ldrb.w	r2, [r7, #43]	@ 0x2b
 8001750:	7f7b      	ldrb	r3, [r7, #29]
 8001752:	429a      	cmp	r2, r3
 8001754:	d3ea      	bcc.n	800172c <hwff_pull_n+0xc8>
      for (uint8_t i = 0; i < wrap_odd; ++i) {
 8001756:	2300      	movs	r3, #0
 8001758:	f887 302a 	strb.w	r3, [r7, #42]	@ 0x2a
 800175c:	e012      	b.n	8001784 <hwff_pull_n+0x120>
        buf_temp[lin_odd + i] = f->buffer[i];
 800175e:	68fb      	ldr	r3, [r7, #12]
 8001760:	681a      	ldr	r2, [r3, #0]
 8001762:	f897 302a 	ldrb.w	r3, [r7, #42]	@ 0x2a
 8001766:	441a      	add	r2, r3
 8001768:	7f79      	ldrb	r1, [r7, #29]
 800176a:	f897 302a 	ldrb.w	r3, [r7, #42]	@ 0x2a
 800176e:	440b      	add	r3, r1
 8001770:	7812      	ldrb	r2, [r2, #0]
 8001772:	3338      	adds	r3, #56	@ 0x38
 8001774:	443b      	add	r3, r7
 8001776:	f803 2c24 	strb.w	r2, [r3, #-36]
      for (uint8_t i = 0; i < wrap_odd; ++i) {
 800177a:	f897 302a 	ldrb.w	r3, [r7, #42]	@ 0x2a
 800177e:	3301      	adds	r3, #1
 8001780:	f887 302a 	strb.w	r3, [r7, #42]	@ 0x2a
 8001784:	f897 202a 	ldrb.w	r2, [r7, #42]	@ 0x2a
 8001788:	7f3b      	ldrb	r3, [r7, #28]
 800178a:	429a      	cmp	r2, r3
 800178c:	d3e7      	bcc.n	800175e <hwff_pull_n+0xfa>
      tu_hwfifo_write(hwfifo, buf_temp, lin_odd + wrap_odd, access_mode);
 800178e:	7f7b      	ldrb	r3, [r7, #29]
 8001790:	b29a      	uxth	r2, r3
 8001792:	7f3b      	ldrb	r3, [r7, #28]
 8001794:	b29b      	uxth	r3, r3
 8001796:	4413      	add	r3, r2
 8001798:	b29a      	uxth	r2, r3
 800179a:	f107 0114 	add.w	r1, r7, #20
 800179e:	6c3b      	ldr	r3, [r7, #64]	@ 0x40
 80017a0:	6af8      	ldr	r0, [r7, #44]	@ 0x2c
 80017a2:	f7ff fdea 	bl	800137a <tu_hwfifo_write>
      HWFIFO_ADDR_NEXT(hwfifo, );
 80017a6:	6afb      	ldr	r3, [r7, #44]	@ 0x2c
 80017a8:	3304      	adds	r3, #4
 80017aa:	62fb      	str	r3, [r7, #44]	@ 0x2c
      wrap_bytes -= wrap_odd;
 80017ac:	7f3b      	ldrb	r3, [r7, #28]
 80017ae:	b29b      	uxth	r3, r3
 80017b0:	8efa      	ldrh	r2, [r7, #54]	@ 0x36
 80017b2:	1ad3      	subs	r3, r2, r3
 80017b4:	86fb      	strh	r3, [r7, #54]	@ 0x36
      ff_buf = f->buffer + wrap_odd; // wrap around
 80017b6:	68fb      	ldr	r3, [r7, #12]
 80017b8:	681a      	ldr	r2, [r3, #0]
 80017ba:	7f3b      	ldrb	r3, [r7, #28]
 80017bc:	4413      	add	r3, r2
 80017be:	633b      	str	r3, [r7, #48]	@ 0x30
 80017c0:	e002      	b.n	80017c8 <hwff_pull_n+0x164>
      ff_buf = f->buffer;            // wrap around to beginning
 80017c2:	68fb      	ldr	r3, [r7, #12]
 80017c4:	681b      	ldr	r3, [r3, #0]
 80017c6:	633b      	str	r3, [r7, #48]	@ 0x30
    if (wrap_bytes > 0) {
 80017c8:	8efb      	ldrh	r3, [r7, #54]	@ 0x36
 80017ca:	2b00      	cmp	r3, #0
 80017cc:	d005      	beq.n	80017da <hwff_pull_n+0x176>
      tu_hwfifo_write(hwfifo, ff_buf, wrap_bytes, access_mode);
 80017ce:	8efa      	ldrh	r2, [r7, #54]	@ 0x36
 80017d0:	6c3b      	ldr	r3, [r7, #64]	@ 0x40
 80017d2:	6b39      	ldr	r1, [r7, #48]	@ 0x30
 80017d4:	6af8      	ldr	r0, [r7, #44]	@ 0x2c
 80017d6:	f7ff fdd0 	bl	800137a <tu_hwfifo_write>
}
 80017da:	bf00      	nop
 80017dc:	3738      	adds	r7, #56	@ 0x38
 80017de:	46bd      	mov	sp, r7
 80017e0:	bd80      	pop	{r7, pc}

080017e2 <ff_push_n>:
//--------------------------------------------------------------------+
// Pull & Push
// copy data to/from fifo without updating read/write pointers
//--------------------------------------------------------------------+
// send n items to fifo WITHOUT updating write pointer
static void ff_push_n(const tu_fifo_t *f, const void *app_buf, uint16_t n, uint16_t wr_ptr) {
 80017e2:	b580      	push	{r7, lr}
 80017e4:	b086      	sub	sp, #24
 80017e6:	af00      	add	r7, sp, #0
 80017e8:	60f8      	str	r0, [r7, #12]
 80017ea:	60b9      	str	r1, [r7, #8]
 80017ec:	4611      	mov	r1, r2
 80017ee:	461a      	mov	r2, r3
 80017f0:	460b      	mov	r3, r1
 80017f2:	80fb      	strh	r3, [r7, #6]
 80017f4:	4613      	mov	r3, r2
 80017f6:	80bb      	strh	r3, [r7, #4]
  uint16_t lin_bytes  = f->depth - wr_ptr;
 80017f8:	68fb      	ldr	r3, [r7, #12]
 80017fa:	889a      	ldrh	r2, [r3, #4]
 80017fc:	88bb      	ldrh	r3, [r7, #4]
 80017fe:	1ad3      	subs	r3, r2, r3
 8001800:	82fb      	strh	r3, [r7, #22]
  uint16_t wrap_bytes = n - lin_bytes;
 8001802:	88fa      	ldrh	r2, [r7, #6]
 8001804:	8afb      	ldrh	r3, [r7, #22]
 8001806:	1ad3      	subs	r3, r2, r3
 8001808:	82bb      	strh	r3, [r7, #20]
  uint8_t *ff_buf     = f->buffer + wr_ptr;
 800180a:	68fb      	ldr	r3, [r7, #12]
 800180c:	681a      	ldr	r2, [r3, #0]
 800180e:	88bb      	ldrh	r3, [r7, #4]
 8001810:	4413      	add	r3, r2
 8001812:	613b      	str	r3, [r7, #16]

  if (n <= lin_bytes) {
 8001814:	88fa      	ldrh	r2, [r7, #6]
 8001816:	8afb      	ldrh	r3, [r7, #22]
 8001818:	429a      	cmp	r2, r3
 800181a:	d806      	bhi.n	800182a <ff_push_n+0x48>
    // Linear only case
    memcpy(ff_buf, app_buf, n);
 800181c:	88fb      	ldrh	r3, [r7, #6]
 800181e:	461a      	mov	r2, r3
 8001820:	68b9      	ldr	r1, [r7, #8]
 8001822:	6938      	ldr	r0, [r7, #16]
 8001824:	f005 ff7c 	bl	8007720 <memcpy>
  } else {
    // Wrap around case
    memcpy(ff_buf, app_buf, lin_bytes);                                    // linear part
    memcpy(f->buffer, ((const uint8_t *)app_buf) + lin_bytes, wrap_bytes); // wrapped part
  }
}
 8001828:	e00e      	b.n	8001848 <ff_push_n+0x66>
    memcpy(ff_buf, app_buf, lin_bytes);                                    // linear part
 800182a:	8afb      	ldrh	r3, [r7, #22]
 800182c:	461a      	mov	r2, r3
 800182e:	68b9      	ldr	r1, [r7, #8]
 8001830:	6938      	ldr	r0, [r7, #16]
 8001832:	f005 ff75 	bl	8007720 <memcpy>
    memcpy(f->buffer, ((const uint8_t *)app_buf) + lin_bytes, wrap_bytes); // wrapped part
 8001836:	68fb      	ldr	r3, [r7, #12]
 8001838:	6818      	ldr	r0, [r3, #0]
 800183a:	8afb      	ldrh	r3, [r7, #22]
 800183c:	68ba      	ldr	r2, [r7, #8]
 800183e:	4413      	add	r3, r2
 8001840:	8aba      	ldrh	r2, [r7, #20]
 8001842:	4619      	mov	r1, r3
 8001844:	f005 ff6c 	bl	8007720 <memcpy>
}
 8001848:	bf00      	nop
 800184a:	3718      	adds	r7, #24
 800184c:	46bd      	mov	sp, r7
 800184e:	bd80      	pop	{r7, pc}

08001850 <ff_pull_n>:

// get n items from fifo WITHOUT updating read pointer
static void ff_pull_n(const tu_fifo_t *f, void *app_buf, uint16_t n, uint16_t rd_ptr) {
 8001850:	b580      	push	{r7, lr}
 8001852:	b086      	sub	sp, #24
 8001854:	af00      	add	r7, sp, #0
 8001856:	60f8      	str	r0, [r7, #12]
 8001858:	60b9      	str	r1, [r7, #8]
 800185a:	4611      	mov	r1, r2
 800185c:	461a      	mov	r2, r3
 800185e:	460b      	mov	r3, r1
 8001860:	80fb      	strh	r3, [r7, #6]
 8001862:	4613      	mov	r3, r2
 8001864:	80bb      	strh	r3, [r7, #4]
  uint16_t       lin_bytes  = f->depth - rd_ptr;
 8001866:	68fb      	ldr	r3, [r7, #12]
 8001868:	889a      	ldrh	r2, [r3, #4]
 800186a:	88bb      	ldrh	r3, [r7, #4]
 800186c:	1ad3      	subs	r3, r2, r3
 800186e:	82fb      	strh	r3, [r7, #22]
  uint16_t       wrap_bytes = n - lin_bytes; // only used if wrapped
 8001870:	88fa      	ldrh	r2, [r7, #6]
 8001872:	8afb      	ldrh	r3, [r7, #22]
 8001874:	1ad3      	subs	r3, r2, r3
 8001876:	82bb      	strh	r3, [r7, #20]
  const uint8_t *ff_buf     = f->buffer + rd_ptr;
 8001878:	68fb      	ldr	r3, [r7, #12]
 800187a:	681a      	ldr	r2, [r3, #0]
 800187c:	88bb      	ldrh	r3, [r7, #4]
 800187e:	4413      	add	r3, r2
 8001880:	613b      	str	r3, [r7, #16]

  // single byte access
  if (n <= lin_bytes) {
 8001882:	88fa      	ldrh	r2, [r7, #6]
 8001884:	8afb      	ldrh	r3, [r7, #22]
 8001886:	429a      	cmp	r2, r3
 8001888:	d806      	bhi.n	8001898 <ff_pull_n+0x48>
    // Linear only
    memcpy(app_buf, ff_buf, n);
 800188a:	88fb      	ldrh	r3, [r7, #6]
 800188c:	461a      	mov	r2, r3
 800188e:	6939      	ldr	r1, [r7, #16]
 8001890:	68b8      	ldr	r0, [r7, #8]
 8001892:	f005 ff45 	bl	8007720 <memcpy>
  } else {
    // Wrap around
    memcpy(app_buf, ff_buf, lin_bytes);                            // linear part
    memcpy((uint8_t *)app_buf + lin_bytes, f->buffer, wrap_bytes); // wrapped part
  }
}
 8001896:	e00e      	b.n	80018b6 <ff_pull_n+0x66>
    memcpy(app_buf, ff_buf, lin_bytes);                            // linear part
 8001898:	8afb      	ldrh	r3, [r7, #22]
 800189a:	461a      	mov	r2, r3
 800189c:	6939      	ldr	r1, [r7, #16]
 800189e:	68b8      	ldr	r0, [r7, #8]
 80018a0:	f005 ff3e 	bl	8007720 <memcpy>
    memcpy((uint8_t *)app_buf + lin_bytes, f->buffer, wrap_bytes); // wrapped part
 80018a4:	8afb      	ldrh	r3, [r7, #22]
 80018a6:	68ba      	ldr	r2, [r7, #8]
 80018a8:	18d0      	adds	r0, r2, r3
 80018aa:	68fb      	ldr	r3, [r7, #12]
 80018ac:	681b      	ldr	r3, [r3, #0]
 80018ae:	8aba      	ldrh	r2, [r7, #20]
 80018b0:	4619      	mov	r1, r3
 80018b2:	f005 ff35 	bl	8007720 <memcpy>
}
 80018b6:	bf00      	nop
 80018b8:	3718      	adds	r7, #24
 80018ba:	46bd      	mov	sp, r7
 80018bc:	bd80      	pop	{r7, pc}

080018be <advance_index>:
// Index Helper
//--------------------------------------------------------------------+

// Advance an absolute index
// "absolute" index is only in the range of [0..2*depth)
static uint16_t advance_index(uint16_t depth, uint16_t idx, uint16_t offset) {
 80018be:	b480      	push	{r7}
 80018c0:	b085      	sub	sp, #20
 80018c2:	af00      	add	r7, sp, #0
 80018c4:	4603      	mov	r3, r0
 80018c6:	80fb      	strh	r3, [r7, #6]
 80018c8:	460b      	mov	r3, r1
 80018ca:	80bb      	strh	r3, [r7, #4]
 80018cc:	4613      	mov	r3, r2
 80018ce:	807b      	strh	r3, [r7, #2]
  // We limit the index space of p such that a correct wrap around happens
  // Check for a wrap around or if we are in unused index space - This has to be checked first!!
  // We are exploiting the wrap around to the correct index
  uint16_t new_idx = (uint16_t)(idx + offset);
 80018d0:	88ba      	ldrh	r2, [r7, #4]
 80018d2:	887b      	ldrh	r3, [r7, #2]
 80018d4:	4413      	add	r3, r2
 80018d6:	81fb      	strh	r3, [r7, #14]
  if ((idx > new_idx) || (new_idx >= 2 * depth)) {
 80018d8:	88ba      	ldrh	r2, [r7, #4]
 80018da:	89fb      	ldrh	r3, [r7, #14]
 80018dc:	429a      	cmp	r2, r3
 80018de:	d804      	bhi.n	80018ea <advance_index+0x2c>
 80018e0:	89fa      	ldrh	r2, [r7, #14]
 80018e2:	88fb      	ldrh	r3, [r7, #6]
 80018e4:	005b      	lsls	r3, r3, #1
 80018e6:	429a      	cmp	r2, r3
 80018e8:	db08      	blt.n	80018fc <advance_index+0x3e>
    const uint16_t non_used_index_space = (uint16_t)(UINT16_MAX - (2 * depth - 1));
 80018ea:	88fb      	ldrh	r3, [r7, #6]
 80018ec:	005b      	lsls	r3, r3, #1
 80018ee:	b29b      	uxth	r3, r3
 80018f0:	425b      	negs	r3, r3
 80018f2:	81bb      	strh	r3, [r7, #12]
    new_idx                             = (uint16_t)(new_idx + non_used_index_space);
 80018f4:	89fa      	ldrh	r2, [r7, #14]
 80018f6:	89bb      	ldrh	r3, [r7, #12]
 80018f8:	4413      	add	r3, r2
 80018fa:	81fb      	strh	r3, [r7, #14]
  }

  return new_idx;
 80018fc:	89fb      	ldrh	r3, [r7, #14]
}
 80018fe:	4618      	mov	r0, r3
 8001900:	3714      	adds	r7, #20
 8001902:	46bd      	mov	sp, r7
 8001904:	bc80      	pop	{r7}
 8001906:	4770      	bx	lr

08001908 <correct_read_index>:
  return idx;
}

// Works on local copies of w
// When an overwritable fifo is overflowed, rd_idx will be re-index so that it forms a full fifo
static uint16_t correct_read_index(tu_fifo_t *f, uint16_t wr_idx) {
 8001908:	b480      	push	{r7}
 800190a:	b085      	sub	sp, #20
 800190c:	af00      	add	r7, sp, #0
 800190e:	6078      	str	r0, [r7, #4]
 8001910:	460b      	mov	r3, r1
 8001912:	807b      	strh	r3, [r7, #2]
  uint16_t rd_idx;
  if (wr_idx >= f->depth) {
 8001914:	687b      	ldr	r3, [r7, #4]
 8001916:	889b      	ldrh	r3, [r3, #4]
 8001918:	887a      	ldrh	r2, [r7, #2]
 800191a:	429a      	cmp	r2, r3
 800191c:	d305      	bcc.n	800192a <correct_read_index+0x22>
    rd_idx = wr_idx - f->depth;
 800191e:	687b      	ldr	r3, [r7, #4]
 8001920:	889b      	ldrh	r3, [r3, #4]
 8001922:	887a      	ldrh	r2, [r7, #2]
 8001924:	1ad3      	subs	r3, r2, r3
 8001926:	81fb      	strh	r3, [r7, #14]
 8001928:	e004      	b.n	8001934 <correct_read_index+0x2c>
  } else {
    rd_idx = wr_idx + f->depth;
 800192a:	687b      	ldr	r3, [r7, #4]
 800192c:	889a      	ldrh	r2, [r3, #4]
 800192e:	887b      	ldrh	r3, [r7, #2]
 8001930:	4413      	add	r3, r2
 8001932:	81fb      	strh	r3, [r7, #14]
  }

  f->rd_idx = rd_idx;
 8001934:	687b      	ldr	r3, [r7, #4]
 8001936:	89fa      	ldrh	r2, [r7, #14]
 8001938:	815a      	strh	r2, [r3, #10]
  return rd_idx;
 800193a:	89fb      	ldrh	r3, [r7, #14]
}
 800193c:	4618      	mov	r0, r3
 800193e:	3714      	adds	r7, #20
 8001940:	46bd      	mov	sp, r7
 8001942:	bc80      	pop	{r7}
 8001944:	4770      	bx	lr

08001946 <tu_fifo_peek_n_access_mode>:
//--------------------------------------------------------------------+

// Works on local copies of w and r
// Must be protected by read mutex since in case of an overflow read pointer gets modified
uint16_t tu_fifo_peek_n_access_mode(tu_fifo_t *f, void *p_buffer, uint16_t n, uint16_t wr_idx, uint16_t rd_idx,
                                    const tu_hwfifo_access_t *access_mode) {
 8001946:	b580      	push	{r7, lr}
 8001948:	b08c      	sub	sp, #48	@ 0x30
 800194a:	af02      	add	r7, sp, #8
 800194c:	60f8      	str	r0, [r7, #12]
 800194e:	60b9      	str	r1, [r7, #8]
 8001950:	4611      	mov	r1, r2
 8001952:	461a      	mov	r2, r3
 8001954:	460b      	mov	r3, r1
 8001956:	80fb      	strh	r3, [r7, #6]
 8001958:	4613      	mov	r3, r2
 800195a:	80bb      	strh	r3, [r7, #4]
  uint16_t count = tu_ff_overflow_count(f->depth, wr_idx, rd_idx);
 800195c:	68fb      	ldr	r3, [r7, #12]
 800195e:	889b      	ldrh	r3, [r3, #4]
 8001960:	847b      	strh	r3, [r7, #34]	@ 0x22
 8001962:	88bb      	ldrh	r3, [r7, #4]
 8001964:	843b      	strh	r3, [r7, #32]
 8001966:	8e3b      	ldrh	r3, [r7, #48]	@ 0x30
 8001968:	83fb      	strh	r3, [r7, #30]
  const int32_t diff = (int32_t)wr_idx - (int32_t)rd_idx;
 800196a:	8c3a      	ldrh	r2, [r7, #32]
 800196c:	8bfb      	ldrh	r3, [r7, #30]
 800196e:	1ad3      	subs	r3, r2, r3
 8001970:	61bb      	str	r3, [r7, #24]
  if (diff >= 0) {
 8001972:	69bb      	ldr	r3, [r7, #24]
 8001974:	2b00      	cmp	r3, #0
 8001976:	db02      	blt.n	800197e <tu_fifo_peek_n_access_mode+0x38>
    return (uint16_t)diff;
 8001978:	69bb      	ldr	r3, [r7, #24]
 800197a:	b29b      	uxth	r3, r3
 800197c:	e006      	b.n	800198c <tu_fifo_peek_n_access_mode+0x46>
    return (uint16_t)(2 * depth + diff);
 800197e:	8c7b      	ldrh	r3, [r7, #34]	@ 0x22
 8001980:	005b      	lsls	r3, r3, #1
 8001982:	b29a      	uxth	r2, r3
 8001984:	69bb      	ldr	r3, [r7, #24]
 8001986:	b29b      	uxth	r3, r3
 8001988:	4413      	add	r3, r2
 800198a:	b29b      	uxth	r3, r3
 800198c:	84fb      	strh	r3, [r7, #38]	@ 0x26
  if (count == 0) {
 800198e:	8cfb      	ldrh	r3, [r7, #38]	@ 0x26
 8001990:	2b00      	cmp	r3, #0
 8001992:	d101      	bne.n	8001998 <tu_fifo_peek_n_access_mode+0x52>
    return 0; // nothing to peek
 8001994:	2300      	movs	r3, #0
 8001996:	e038      	b.n	8001a0a <tu_fifo_peek_n_access_mode+0xc4>
  }

  // Check overflow and correct if required
  if (count > f->depth) {
 8001998:	68fb      	ldr	r3, [r7, #12]
 800199a:	889b      	ldrh	r3, [r3, #4]
 800199c:	8cfa      	ldrh	r2, [r7, #38]	@ 0x26
 800199e:	429a      	cmp	r2, r3
 80019a0:	d909      	bls.n	80019b6 <tu_fifo_peek_n_access_mode+0x70>
    rd_idx = correct_read_index(f, wr_idx);
 80019a2:	88bb      	ldrh	r3, [r7, #4]
 80019a4:	4619      	mov	r1, r3
 80019a6:	68f8      	ldr	r0, [r7, #12]
 80019a8:	f7ff ffae 	bl	8001908 <correct_read_index>
 80019ac:	4603      	mov	r3, r0
 80019ae:	863b      	strh	r3, [r7, #48]	@ 0x30
    count  = f->depth;
 80019b0:	68fb      	ldr	r3, [r7, #12]
 80019b2:	889b      	ldrh	r3, [r3, #4]
 80019b4:	84fb      	strh	r3, [r7, #38]	@ 0x26
  }

  if (count < n) {
 80019b6:	8cfa      	ldrh	r2, [r7, #38]	@ 0x26
 80019b8:	88fb      	ldrh	r3, [r7, #6]
 80019ba:	429a      	cmp	r2, r3
 80019bc:	d201      	bcs.n	80019c2 <tu_fifo_peek_n_access_mode+0x7c>
    n = count; // limit to available count
 80019be:	8cfb      	ldrh	r3, [r7, #38]	@ 0x26
 80019c0:	80fb      	strh	r3, [r7, #6]
  }

  const uint16_t rd_ptr = idx2ptr(f->depth, rd_idx);
 80019c2:	68fb      	ldr	r3, [r7, #12]
 80019c4:	889b      	ldrh	r3, [r3, #4]
 80019c6:	82fb      	strh	r3, [r7, #22]
 80019c8:	8e3b      	ldrh	r3, [r7, #48]	@ 0x30
 80019ca:	82bb      	strh	r3, [r7, #20]
  while (idx >= depth) {
 80019cc:	e003      	b.n	80019d6 <tu_fifo_peek_n_access_mode+0x90>
    idx -= depth;
 80019ce:	8aba      	ldrh	r2, [r7, #20]
 80019d0:	8afb      	ldrh	r3, [r7, #22]
 80019d2:	1ad3      	subs	r3, r2, r3
 80019d4:	82bb      	strh	r3, [r7, #20]
  while (idx >= depth) {
 80019d6:	8afa      	ldrh	r2, [r7, #22]
 80019d8:	8abb      	ldrh	r3, [r7, #20]
 80019da:	429a      	cmp	r2, r3
 80019dc:	d9f7      	bls.n	80019ce <tu_fifo_peek_n_access_mode+0x88>
  return idx;
 80019de:	8abb      	ldrh	r3, [r7, #20]
  const uint16_t rd_ptr = idx2ptr(f->depth, rd_idx);
 80019e0:	84bb      	strh	r3, [r7, #36]	@ 0x24

#if CFG_TUSB_FIFO_HWFIFO_API
  if (access_mode != NULL) {
 80019e2:	6b7b      	ldr	r3, [r7, #52]	@ 0x34
 80019e4:	2b00      	cmp	r3, #0
 80019e6:	d009      	beq.n	80019fc <tu_fifo_peek_n_access_mode+0xb6>
    hwff_pull_n(f, p_buffer, n, rd_ptr, access_mode);
 80019e8:	8cb9      	ldrh	r1, [r7, #36]	@ 0x24
 80019ea:	88fa      	ldrh	r2, [r7, #6]
 80019ec:	6b7b      	ldr	r3, [r7, #52]	@ 0x34
 80019ee:	9300      	str	r3, [sp, #0]
 80019f0:	460b      	mov	r3, r1
 80019f2:	68b9      	ldr	r1, [r7, #8]
 80019f4:	68f8      	ldr	r0, [r7, #12]
 80019f6:	f7ff fe35 	bl	8001664 <hwff_pull_n>
 80019fa:	e005      	b.n	8001a08 <tu_fifo_peek_n_access_mode+0xc2>
  } else
#endif
  {
    (void)access_mode;
    ff_pull_n(f, p_buffer, n, rd_ptr);
 80019fc:	8cbb      	ldrh	r3, [r7, #36]	@ 0x24
 80019fe:	88fa      	ldrh	r2, [r7, #6]
 8001a00:	68b9      	ldr	r1, [r7, #8]
 8001a02:	68f8      	ldr	r0, [r7, #12]
 8001a04:	f7ff ff24 	bl	8001850 <ff_pull_n>
  }

  return n;
 8001a08:	88fb      	ldrh	r3, [r7, #6]
}
 8001a0a:	4618      	mov	r0, r3
 8001a0c:	3728      	adds	r7, #40	@ 0x28
 8001a0e:	46bd      	mov	sp, r7
 8001a10:	bd80      	pop	{r7, pc}

08001a12 <tu_fifo_read_n_access_mode>:
  ff_unlock(f->mutex_rd);
  return ret;
}

// Read n items from fifo with access mode
uint16_t tu_fifo_read_n_access_mode(tu_fifo_t *f, void *buffer, uint16_t n, const tu_hwfifo_access_t *access_mode) {
 8001a12:	b580      	push	{r7, lr}
 8001a14:	b088      	sub	sp, #32
 8001a16:	af02      	add	r7, sp, #8
 8001a18:	60f8      	str	r0, [r7, #12]
 8001a1a:	60b9      	str	r1, [r7, #8]
 8001a1c:	603b      	str	r3, [r7, #0]
 8001a1e:	4613      	mov	r3, r2
 8001a20:	80fb      	strh	r3, [r7, #6]
  ff_lock(f->mutex_rd);

  // Peek the data: f->rd_idx might get modified in case of an overflow so we can not use a local variable
  const uint16_t wr_idx = f->wr_idx;
 8001a22:	68fb      	ldr	r3, [r7, #12]
 8001a24:	891b      	ldrh	r3, [r3, #8]
 8001a26:	82fb      	strh	r3, [r7, #22]
  n         = tu_fifo_peek_n_access_mode(f, buffer, n, wr_idx, f->rd_idx, access_mode);
 8001a28:	68fb      	ldr	r3, [r7, #12]
 8001a2a:	895b      	ldrh	r3, [r3, #10]
 8001a2c:	b29b      	uxth	r3, r3
 8001a2e:	8af8      	ldrh	r0, [r7, #22]
 8001a30:	88f9      	ldrh	r1, [r7, #6]
 8001a32:	683a      	ldr	r2, [r7, #0]
 8001a34:	9201      	str	r2, [sp, #4]
 8001a36:	9300      	str	r3, [sp, #0]
 8001a38:	4603      	mov	r3, r0
 8001a3a:	460a      	mov	r2, r1
 8001a3c:	68b9      	ldr	r1, [r7, #8]
 8001a3e:	68f8      	ldr	r0, [r7, #12]
 8001a40:	f7ff ff81 	bl	8001946 <tu_fifo_peek_n_access_mode>
 8001a44:	4603      	mov	r3, r0
 8001a46:	80fb      	strh	r3, [r7, #6]
  f->rd_idx = advance_index(f->depth, f->rd_idx, n);
 8001a48:	68fb      	ldr	r3, [r7, #12]
 8001a4a:	8898      	ldrh	r0, [r3, #4]
 8001a4c:	68fb      	ldr	r3, [r7, #12]
 8001a4e:	895b      	ldrh	r3, [r3, #10]
 8001a50:	b29b      	uxth	r3, r3
 8001a52:	88fa      	ldrh	r2, [r7, #6]
 8001a54:	4619      	mov	r1, r3
 8001a56:	f7ff ff32 	bl	80018be <advance_index>
 8001a5a:	4603      	mov	r3, r0
 8001a5c:	461a      	mov	r2, r3
 8001a5e:	68fb      	ldr	r3, [r7, #12]
 8001a60:	815a      	strh	r2, [r3, #10]

  ff_unlock(f->mutex_rd);
  return n;
 8001a62:	88fb      	ldrh	r3, [r7, #6]
}
 8001a64:	4618      	mov	r0, r3
 8001a66:	3718      	adds	r7, #24
 8001a68:	46bd      	mov	sp, r7
 8001a6a:	bd80      	pop	{r7, pc}

08001a6c <tu_fifo_write_n_access_mode>:

// Write n items to fifo with access mode
uint16_t tu_fifo_write_n_access_mode(tu_fifo_t *f, const void *data, uint16_t n,
                                     const tu_hwfifo_access_t *access_mode) {
 8001a6c:	b580      	push	{r7, lr}
 8001a6e:	b094      	sub	sp, #80	@ 0x50
 8001a70:	af02      	add	r7, sp, #8
 8001a72:	60f8      	str	r0, [r7, #12]
 8001a74:	60b9      	str	r1, [r7, #8]
 8001a76:	603b      	str	r3, [r7, #0]
 8001a78:	4613      	mov	r3, r2
 8001a7a:	80fb      	strh	r3, [r7, #6]
  if (n == 0) {
 8001a7c:	88fb      	ldrh	r3, [r7, #6]
 8001a7e:	2b00      	cmp	r3, #0
 8001a80:	d101      	bne.n	8001a86 <tu_fifo_write_n_access_mode+0x1a>
    return 0;
 8001a82:	2300      	movs	r3, #0
 8001a84:	e0c1      	b.n	8001c0a <tu_fifo_write_n_access_mode+0x19e>
  }

  ff_lock(f->mutex_wr);

  uint16_t wr_idx = f->wr_idx;
 8001a86:	68fb      	ldr	r3, [r7, #12]
 8001a88:	891b      	ldrh	r3, [r3, #8]
 8001a8a:	f8a7 3046 	strh.w	r3, [r7, #70]	@ 0x46
  uint16_t rd_idx = f->rd_idx;
 8001a8e:	68fb      	ldr	r3, [r7, #12]
 8001a90:	895b      	ldrh	r3, [r3, #10]
 8001a92:	87fb      	strh	r3, [r7, #62]	@ 0x3e

  const uint8_t *buf8 = (const uint8_t *)data;
 8001a94:	68bb      	ldr	r3, [r7, #8]
 8001a96:	643b      	str	r3, [r7, #64]	@ 0x40

  TU_LOG(TU_FIFO_DBG, "rd = %3u, wr = %3u, count = %3u, remain = %3u, n = %3u:  ", rd_idx, wr_idx,
         tu_ff_overflow_count(f->depth, wr_idx, rd_idx), tu_ff_remaining_local(f->depth, wr_idx, rd_idx), n);

  if (!f->overwritable) {
 8001a98:	68fb      	ldr	r3, [r7, #12]
 8001a9a:	799b      	ldrb	r3, [r3, #6]
 8001a9c:	f083 0301 	eor.w	r3, r3, #1
 8001aa0:	b2db      	uxtb	r3, r3
 8001aa2:	2b00      	cmp	r3, #0
 8001aa4:	d036      	beq.n	8001b14 <tu_fifo_write_n_access_mode+0xa8>
    // limit up to full
    const uint16_t remain = tu_ff_remaining_local(f->depth, wr_idx, rd_idx);
 8001aa6:	68fb      	ldr	r3, [r7, #12]
 8001aa8:	889b      	ldrh	r3, [r3, #4]
 8001aaa:	867b      	strh	r3, [r7, #50]	@ 0x32
 8001aac:	f8b7 3046 	ldrh.w	r3, [r7, #70]	@ 0x46
 8001ab0:	863b      	strh	r3, [r7, #48]	@ 0x30
 8001ab2:	8ffb      	ldrh	r3, [r7, #62]	@ 0x3e
 8001ab4:	85fb      	strh	r3, [r7, #46]	@ 0x2e
 8001ab6:	8e7b      	ldrh	r3, [r7, #50]	@ 0x32
 8001ab8:	85bb      	strh	r3, [r7, #44]	@ 0x2c
 8001aba:	8e3b      	ldrh	r3, [r7, #48]	@ 0x30
 8001abc:	857b      	strh	r3, [r7, #42]	@ 0x2a
 8001abe:	8dfb      	ldrh	r3, [r7, #46]	@ 0x2e
 8001ac0:	853b      	strh	r3, [r7, #40]	@ 0x28
  const int32_t diff = (int32_t)wr_idx - (int32_t)rd_idx;
 8001ac2:	8d7a      	ldrh	r2, [r7, #42]	@ 0x2a
 8001ac4:	8d3b      	ldrh	r3, [r7, #40]	@ 0x28
 8001ac6:	1ad3      	subs	r3, r2, r3
 8001ac8:	627b      	str	r3, [r7, #36]	@ 0x24
  if (diff >= 0) {
 8001aca:	6a7b      	ldr	r3, [r7, #36]	@ 0x24
 8001acc:	2b00      	cmp	r3, #0
 8001ace:	db02      	blt.n	8001ad6 <tu_fifo_write_n_access_mode+0x6a>
    return (uint16_t)diff;
 8001ad0:	6a7b      	ldr	r3, [r7, #36]	@ 0x24
 8001ad2:	b29b      	uxth	r3, r3
 8001ad4:	e006      	b.n	8001ae4 <tu_fifo_write_n_access_mode+0x78>
    return (uint16_t)(2 * depth + diff);
 8001ad6:	8dbb      	ldrh	r3, [r7, #44]	@ 0x2c
 8001ad8:	005b      	lsls	r3, r3, #1
 8001ada:	b29a      	uxth	r2, r3
 8001adc:	6a7b      	ldr	r3, [r7, #36]	@ 0x24
 8001ade:	b29b      	uxth	r3, r3
 8001ae0:	4413      	add	r3, r2
 8001ae2:	b29b      	uxth	r3, r3
  const uint16_t ovf_count = tu_ff_overflow_count(depth, wr_idx, rd_idx);
 8001ae4:	847b      	strh	r3, [r7, #34]	@ 0x22
  return (depth > ovf_count) ? (depth - ovf_count) : 0;
 8001ae6:	8e7a      	ldrh	r2, [r7, #50]	@ 0x32
 8001ae8:	8c7b      	ldrh	r3, [r7, #34]	@ 0x22
 8001aea:	429a      	cmp	r2, r3
 8001aec:	d904      	bls.n	8001af8 <tu_fifo_write_n_access_mode+0x8c>
 8001aee:	8e7a      	ldrh	r2, [r7, #50]	@ 0x32
 8001af0:	8c7b      	ldrh	r3, [r7, #34]	@ 0x22
 8001af2:	1ad3      	subs	r3, r2, r3
 8001af4:	b29b      	uxth	r3, r3
 8001af6:	e000      	b.n	8001afa <tu_fifo_write_n_access_mode+0x8e>
 8001af8:	2300      	movs	r3, #0
 8001afa:	877b      	strh	r3, [r7, #58]	@ 0x3a
 8001afc:	88fb      	ldrh	r3, [r7, #6]
 8001afe:	86fb      	strh	r3, [r7, #54]	@ 0x36
 8001b00:	8f7b      	ldrh	r3, [r7, #58]	@ 0x3a
 8001b02:	86bb      	strh	r3, [r7, #52]	@ 0x34
 8001b04:	8efa      	ldrh	r2, [r7, #54]	@ 0x36
 8001b06:	8ebb      	ldrh	r3, [r7, #52]	@ 0x34
 8001b08:	4293      	cmp	r3, r2
 8001b0a:	bf28      	it	cs
 8001b0c:	4613      	movcs	r3, r2
 8001b0e:	b29b      	uxth	r3, r3
    n                     = tu_min16(n, remain);
 8001b10:	80fb      	strh	r3, [r7, #6]
 8001b12:	e046      	b.n	8001ba2 <tu_fifo_write_n_access_mode+0x136>
  } else {
    // In over-writable mode, fifo_write() is allowed even when fifo is full. In such case,
    // oldest data in fifo i.e. at read pointer data will be overwritten
    // Note: we can modify read buffer contents however we must not modify the read index itself within a write
    // function! Since it would end up in a race condition with read functions!
    if (n >= f->depth) {
 8001b14:	68fb      	ldr	r3, [r7, #12]
 8001b16:	889b      	ldrh	r3, [r3, #4]
 8001b18:	88fa      	ldrh	r2, [r7, #6]
 8001b1a:	429a      	cmp	r2, r3
 8001b1c:	d311      	bcc.n	8001b42 <tu_fifo_write_n_access_mode+0xd6>
      // Only copy last part
      if (access_mode == NULL) {
 8001b1e:	683b      	ldr	r3, [r7, #0]
 8001b20:	2b00      	cmp	r3, #0
 8001b22:	d107      	bne.n	8001b34 <tu_fifo_write_n_access_mode+0xc8>
        buf8 += (n - f->depth);
 8001b24:	88fb      	ldrh	r3, [r7, #6]
 8001b26:	68fa      	ldr	r2, [r7, #12]
 8001b28:	8892      	ldrh	r2, [r2, #4]
 8001b2a:	1a9b      	subs	r3, r3, r2
 8001b2c:	461a      	mov	r2, r3
 8001b2e:	6c3b      	ldr	r3, [r7, #64]	@ 0x40
 8001b30:	4413      	add	r3, r2
 8001b32:	643b      	str	r3, [r7, #64]	@ 0x40
      } else {
        // TODO should read from hw fifo to discard data, however reading an odd number could
        // accidentally discard data.
      }

      n = f->depth;
 8001b34:	68fb      	ldr	r3, [r7, #12]
 8001b36:	889b      	ldrh	r3, [r3, #4]
 8001b38:	80fb      	strh	r3, [r7, #6]

      // We start writing at the read pointer's position since we fill the whole buffer
      wr_idx = rd_idx;
 8001b3a:	8ffb      	ldrh	r3, [r7, #62]	@ 0x3e
 8001b3c:	f8a7 3046 	strh.w	r3, [r7, #70]	@ 0x46
 8001b40:	e02f      	b.n	8001ba2 <tu_fifo_write_n_access_mode+0x136>
    } else {
      const uint16_t overflowable_count = tu_ff_overflow_count(f->depth, wr_idx, rd_idx);
 8001b42:	68fb      	ldr	r3, [r7, #12]
 8001b44:	889b      	ldrh	r3, [r3, #4]
 8001b46:	843b      	strh	r3, [r7, #32]
 8001b48:	f8b7 3046 	ldrh.w	r3, [r7, #70]	@ 0x46
 8001b4c:	83fb      	strh	r3, [r7, #30]
 8001b4e:	8ffb      	ldrh	r3, [r7, #62]	@ 0x3e
 8001b50:	83bb      	strh	r3, [r7, #28]
  const int32_t diff = (int32_t)wr_idx - (int32_t)rd_idx;
 8001b52:	8bfa      	ldrh	r2, [r7, #30]
 8001b54:	8bbb      	ldrh	r3, [r7, #28]
 8001b56:	1ad3      	subs	r3, r2, r3
 8001b58:	61bb      	str	r3, [r7, #24]
  if (diff >= 0) {
 8001b5a:	69bb      	ldr	r3, [r7, #24]
 8001b5c:	2b00      	cmp	r3, #0
 8001b5e:	db02      	blt.n	8001b66 <tu_fifo_write_n_access_mode+0xfa>
    return (uint16_t)diff;
 8001b60:	69bb      	ldr	r3, [r7, #24]
 8001b62:	b29b      	uxth	r3, r3
 8001b64:	e006      	b.n	8001b74 <tu_fifo_write_n_access_mode+0x108>
    return (uint16_t)(2 * depth + diff);
 8001b66:	8c3b      	ldrh	r3, [r7, #32]
 8001b68:	005b      	lsls	r3, r3, #1
 8001b6a:	b29a      	uxth	r2, r3
 8001b6c:	69bb      	ldr	r3, [r7, #24]
 8001b6e:	b29b      	uxth	r3, r3
 8001b70:	4413      	add	r3, r2
 8001b72:	b29b      	uxth	r3, r3
 8001b74:	87bb      	strh	r3, [r7, #60]	@ 0x3c
      if (overflowable_count + n >= 2 * f->depth) {
 8001b76:	8fba      	ldrh	r2, [r7, #60]	@ 0x3c
 8001b78:	88fb      	ldrh	r3, [r7, #6]
 8001b7a:	441a      	add	r2, r3
 8001b7c:	68fb      	ldr	r3, [r7, #12]
 8001b7e:	889b      	ldrh	r3, [r3, #4]
 8001b80:	005b      	lsls	r3, r3, #1
 8001b82:	429a      	cmp	r2, r3
 8001b84:	db0d      	blt.n	8001ba2 <tu_fifo_write_n_access_mode+0x136>
        // Double overflowed
        // Index is bigger than the allowed range [0,2*depth)
        // re-position write index to have a full fifo after pushed
        wr_idx = advance_index(f->depth, rd_idx, f->depth - n);
 8001b86:	68fb      	ldr	r3, [r7, #12]
 8001b88:	8898      	ldrh	r0, [r3, #4]
 8001b8a:	68fb      	ldr	r3, [r7, #12]
 8001b8c:	889a      	ldrh	r2, [r3, #4]
 8001b8e:	88fb      	ldrh	r3, [r7, #6]
 8001b90:	1ad3      	subs	r3, r2, r3
 8001b92:	b29a      	uxth	r2, r3
 8001b94:	8ffb      	ldrh	r3, [r7, #62]	@ 0x3e
 8001b96:	4619      	mov	r1, r3
 8001b98:	f7ff fe91 	bl	80018be <advance_index>
 8001b9c:	4603      	mov	r3, r0
 8001b9e:	f8a7 3046 	strh.w	r3, [r7, #70]	@ 0x46
        // we will correct (re-position) read index later on in fifo_read() function
      }
    }
  }

  if (n) {
 8001ba2:	88fb      	ldrh	r3, [r7, #6]
 8001ba4:	2b00      	cmp	r3, #0
 8001ba6:	d02f      	beq.n	8001c08 <tu_fifo_write_n_access_mode+0x19c>
    const uint16_t wr_ptr = idx2ptr(f->depth, wr_idx);
 8001ba8:	68fb      	ldr	r3, [r7, #12]
 8001baa:	889b      	ldrh	r3, [r3, #4]
 8001bac:	82fb      	strh	r3, [r7, #22]
 8001bae:	f8b7 3046 	ldrh.w	r3, [r7, #70]	@ 0x46
 8001bb2:	82bb      	strh	r3, [r7, #20]
  while (idx >= depth) {
 8001bb4:	e003      	b.n	8001bbe <tu_fifo_write_n_access_mode+0x152>
    idx -= depth;
 8001bb6:	8aba      	ldrh	r2, [r7, #20]
 8001bb8:	8afb      	ldrh	r3, [r7, #22]
 8001bba:	1ad3      	subs	r3, r2, r3
 8001bbc:	82bb      	strh	r3, [r7, #20]
  while (idx >= depth) {
 8001bbe:	8afa      	ldrh	r2, [r7, #22]
 8001bc0:	8abb      	ldrh	r3, [r7, #20]
 8001bc2:	429a      	cmp	r2, r3
 8001bc4:	d9f7      	bls.n	8001bb6 <tu_fifo_write_n_access_mode+0x14a>
  return idx;
 8001bc6:	8abb      	ldrh	r3, [r7, #20]
    const uint16_t wr_ptr = idx2ptr(f->depth, wr_idx);
 8001bc8:	873b      	strh	r3, [r7, #56]	@ 0x38
    TU_LOG(TU_FIFO_DBG, "actual_n = %u, wr_ptr = %u", n, wr_ptr);

#if CFG_TUSB_FIFO_HWFIFO_API
    if (access_mode != NULL) {
 8001bca:	683b      	ldr	r3, [r7, #0]
 8001bcc:	2b00      	cmp	r3, #0
 8001bce:	d009      	beq.n	8001be4 <tu_fifo_write_n_access_mode+0x178>
      hwff_push_n(f, buf8, n, wr_ptr, access_mode);
 8001bd0:	8f39      	ldrh	r1, [r7, #56]	@ 0x38
 8001bd2:	88fa      	ldrh	r2, [r7, #6]
 8001bd4:	683b      	ldr	r3, [r7, #0]
 8001bd6:	9300      	str	r3, [sp, #0]
 8001bd8:	460b      	mov	r3, r1
 8001bda:	6c39      	ldr	r1, [r7, #64]	@ 0x40
 8001bdc:	68f8      	ldr	r0, [r7, #12]
 8001bde:	f7ff fc82 	bl	80014e6 <hwff_push_n>
 8001be2:	e005      	b.n	8001bf0 <tu_fifo_write_n_access_mode+0x184>
    } else
#endif
    {
      ff_push_n(f, buf8, n, wr_ptr);
 8001be4:	8f3b      	ldrh	r3, [r7, #56]	@ 0x38
 8001be6:	88fa      	ldrh	r2, [r7, #6]
 8001be8:	6c39      	ldr	r1, [r7, #64]	@ 0x40
 8001bea:	68f8      	ldr	r0, [r7, #12]
 8001bec:	f7ff fdf9 	bl	80017e2 <ff_push_n>
    }
    f->wr_idx = advance_index(f->depth, wr_idx, n);
 8001bf0:	68fb      	ldr	r3, [r7, #12]
 8001bf2:	889b      	ldrh	r3, [r3, #4]
 8001bf4:	88fa      	ldrh	r2, [r7, #6]
 8001bf6:	f8b7 1046 	ldrh.w	r1, [r7, #70]	@ 0x46
 8001bfa:	4618      	mov	r0, r3
 8001bfc:	f7ff fe5f 	bl	80018be <advance_index>
 8001c00:	4603      	mov	r3, r0
 8001c02:	461a      	mov	r2, r3
 8001c04:	68fb      	ldr	r3, [r7, #12]
 8001c06:	811a      	strh	r2, [r3, #8]
    TU_LOG(TU_FIFO_DBG, "\tnew_wr = %u\r\n", f->wr_idx);
  }

  ff_unlock(f->mutex_wr);

  return n;
 8001c08:	88fb      	ldrh	r3, [r7, #6]
}
 8001c0a:	4618      	mov	r0, r3
 8001c0c:	3748      	adds	r7, #72	@ 0x48
 8001c0e:	46bd      	mov	sp, r7
 8001c10:	bd80      	pop	{r7, pc}

08001c12 <tu_fifo_get_read_info>:
                    Pointer to FIFO
   @param[out]      *info
                    Pointer to struct which holds the desired infos
 */
/******************************************************************************/
void tu_fifo_get_read_info(tu_fifo_t *f, tu_fifo_buffer_info_t *info) {
 8001c12:	b580      	push	{r7, lr}
 8001c14:	b08a      	sub	sp, #40	@ 0x28
 8001c16:	af00      	add	r7, sp, #0
 8001c18:	6078      	str	r0, [r7, #4]
 8001c1a:	6039      	str	r1, [r7, #0]
  // Operate on temporary values in case they change in between
  uint16_t wr_idx = f->wr_idx;
 8001c1c:	687b      	ldr	r3, [r7, #4]
 8001c1e:	891b      	ldrh	r3, [r3, #8]
 8001c20:	847b      	strh	r3, [r7, #34]	@ 0x22
  uint16_t rd_idx = f->rd_idx;
 8001c22:	687b      	ldr	r3, [r7, #4]
 8001c24:	895b      	ldrh	r3, [r3, #10]
 8001c26:	84fb      	strh	r3, [r7, #38]	@ 0x26

  uint16_t cnt = tu_ff_overflow_count(f->depth, wr_idx, rd_idx);
 8001c28:	687b      	ldr	r3, [r7, #4]
 8001c2a:	889b      	ldrh	r3, [r3, #4]
 8001c2c:	83bb      	strh	r3, [r7, #28]
 8001c2e:	8c7b      	ldrh	r3, [r7, #34]	@ 0x22
 8001c30:	837b      	strh	r3, [r7, #26]
 8001c32:	8cfb      	ldrh	r3, [r7, #38]	@ 0x26
 8001c34:	833b      	strh	r3, [r7, #24]
  const int32_t diff = (int32_t)wr_idx - (int32_t)rd_idx;
 8001c36:	8b7a      	ldrh	r2, [r7, #26]
 8001c38:	8b3b      	ldrh	r3, [r7, #24]
 8001c3a:	1ad3      	subs	r3, r2, r3
 8001c3c:	617b      	str	r3, [r7, #20]
  if (diff >= 0) {
 8001c3e:	697b      	ldr	r3, [r7, #20]
 8001c40:	2b00      	cmp	r3, #0
 8001c42:	db02      	blt.n	8001c4a <tu_fifo_get_read_info+0x38>
    return (uint16_t)diff;
 8001c44:	697b      	ldr	r3, [r7, #20]
 8001c46:	b29b      	uxth	r3, r3
 8001c48:	e006      	b.n	8001c58 <tu_fifo_get_read_info+0x46>
    return (uint16_t)(2 * depth + diff);
 8001c4a:	8bbb      	ldrh	r3, [r7, #28]
 8001c4c:	005b      	lsls	r3, r3, #1
 8001c4e:	b29a      	uxth	r2, r3
 8001c50:	697b      	ldr	r3, [r7, #20]
 8001c52:	b29b      	uxth	r3, r3
 8001c54:	4413      	add	r3, r2
 8001c56:	b29b      	uxth	r3, r3
 8001c58:	84bb      	strh	r3, [r7, #36]	@ 0x24

  // Check overflow and correct if required - may happen in case a DMA wrote too fast
  if (cnt > f->depth) {
 8001c5a:	687b      	ldr	r3, [r7, #4]
 8001c5c:	889b      	ldrh	r3, [r3, #4]
 8001c5e:	8cba      	ldrh	r2, [r7, #36]	@ 0x24
 8001c60:	429a      	cmp	r2, r3
 8001c62:	d909      	bls.n	8001c78 <tu_fifo_get_read_info+0x66>
    ff_lock(f->mutex_rd);
    rd_idx = correct_read_index(f, wr_idx);
 8001c64:	8c7b      	ldrh	r3, [r7, #34]	@ 0x22
 8001c66:	4619      	mov	r1, r3
 8001c68:	6878      	ldr	r0, [r7, #4]
 8001c6a:	f7ff fe4d 	bl	8001908 <correct_read_index>
 8001c6e:	4603      	mov	r3, r0
 8001c70:	84fb      	strh	r3, [r7, #38]	@ 0x26
    ff_unlock(f->mutex_rd);

    cnt = f->depth;
 8001c72:	687b      	ldr	r3, [r7, #4]
 8001c74:	889b      	ldrh	r3, [r3, #4]
 8001c76:	84bb      	strh	r3, [r7, #36]	@ 0x24
  }

  // Check if fifo is empty
  if (cnt == 0) {
 8001c78:	8cbb      	ldrh	r3, [r7, #36]	@ 0x24
 8001c7a:	2b00      	cmp	r3, #0
 8001c7c:	d10c      	bne.n	8001c98 <tu_fifo_get_read_info+0x86>
    info->linear.len  = 0;
 8001c7e:	683b      	ldr	r3, [r7, #0]
 8001c80:	2200      	movs	r2, #0
 8001c82:	801a      	strh	r2, [r3, #0]
    info->wrapped.len = 0;
 8001c84:	683b      	ldr	r3, [r7, #0]
 8001c86:	2200      	movs	r2, #0
 8001c88:	811a      	strh	r2, [r3, #8]
    info->linear.ptr  = NULL;
 8001c8a:	683b      	ldr	r3, [r7, #0]
 8001c8c:	2200      	movs	r2, #0
 8001c8e:	605a      	str	r2, [r3, #4]
    info->wrapped.ptr = NULL;
 8001c90:	683b      	ldr	r3, [r7, #0]
 8001c92:	2200      	movs	r2, #0
 8001c94:	60da      	str	r2, [r3, #12]
    return;
 8001c96:	e045      	b.n	8001d24 <tu_fifo_get_read_info+0x112>
  }

  // Get relative pointers
  uint16_t wr_ptr = idx2ptr(f->depth, wr_idx);
 8001c98:	687b      	ldr	r3, [r7, #4]
 8001c9a:	889b      	ldrh	r3, [r3, #4]
 8001c9c:	81fb      	strh	r3, [r7, #14]
 8001c9e:	8c7b      	ldrh	r3, [r7, #34]	@ 0x22
 8001ca0:	81bb      	strh	r3, [r7, #12]
  while (idx >= depth) {
 8001ca2:	e003      	b.n	8001cac <tu_fifo_get_read_info+0x9a>
    idx -= depth;
 8001ca4:	89ba      	ldrh	r2, [r7, #12]
 8001ca6:	89fb      	ldrh	r3, [r7, #14]
 8001ca8:	1ad3      	subs	r3, r2, r3
 8001caa:	81bb      	strh	r3, [r7, #12]
  while (idx >= depth) {
 8001cac:	89fa      	ldrh	r2, [r7, #14]
 8001cae:	89bb      	ldrh	r3, [r7, #12]
 8001cb0:	429a      	cmp	r2, r3
 8001cb2:	d9f7      	bls.n	8001ca4 <tu_fifo_get_read_info+0x92>
  return idx;
 8001cb4:	89bb      	ldrh	r3, [r7, #12]
  uint16_t wr_ptr = idx2ptr(f->depth, wr_idx);
 8001cb6:	843b      	strh	r3, [r7, #32]
  uint16_t rd_ptr = idx2ptr(f->depth, rd_idx);
 8001cb8:	687b      	ldr	r3, [r7, #4]
 8001cba:	889b      	ldrh	r3, [r3, #4]
 8001cbc:	827b      	strh	r3, [r7, #18]
 8001cbe:	8cfb      	ldrh	r3, [r7, #38]	@ 0x26
 8001cc0:	823b      	strh	r3, [r7, #16]
  while (idx >= depth) {
 8001cc2:	e003      	b.n	8001ccc <tu_fifo_get_read_info+0xba>
    idx -= depth;
 8001cc4:	8a3a      	ldrh	r2, [r7, #16]
 8001cc6:	8a7b      	ldrh	r3, [r7, #18]
 8001cc8:	1ad3      	subs	r3, r2, r3
 8001cca:	823b      	strh	r3, [r7, #16]
  while (idx >= depth) {
 8001ccc:	8a7a      	ldrh	r2, [r7, #18]
 8001cce:	8a3b      	ldrh	r3, [r7, #16]
 8001cd0:	429a      	cmp	r2, r3
 8001cd2:	d9f7      	bls.n	8001cc4 <tu_fifo_get_read_info+0xb2>
  return idx;
 8001cd4:	8a3b      	ldrh	r3, [r7, #16]
  uint16_t rd_ptr = idx2ptr(f->depth, rd_idx);
 8001cd6:	83fb      	strh	r3, [r7, #30]

  // Copy pointer to buffer to start reading from
  info->linear.ptr = &f->buffer[rd_ptr];
 8001cd8:	687b      	ldr	r3, [r7, #4]
 8001cda:	681a      	ldr	r2, [r3, #0]
 8001cdc:	8bfb      	ldrh	r3, [r7, #30]
 8001cde:	441a      	add	r2, r3
 8001ce0:	683b      	ldr	r3, [r7, #0]
 8001ce2:	605a      	str	r2, [r3, #4]

  // Check if there is a wrap around necessary
  if (wr_ptr > rd_ptr) {
 8001ce4:	8c3a      	ldrh	r2, [r7, #32]
 8001ce6:	8bfb      	ldrh	r3, [r7, #30]
 8001ce8:	429a      	cmp	r2, r3
 8001cea:	d909      	bls.n	8001d00 <tu_fifo_get_read_info+0xee>
    // Non wrapping case
    info->linear.len = cnt;
 8001cec:	683b      	ldr	r3, [r7, #0]
 8001cee:	8cba      	ldrh	r2, [r7, #36]	@ 0x24
 8001cf0:	801a      	strh	r2, [r3, #0]

    info->wrapped.len = 0;
 8001cf2:	683b      	ldr	r3, [r7, #0]
 8001cf4:	2200      	movs	r2, #0
 8001cf6:	811a      	strh	r2, [r3, #8]
    info->wrapped.ptr = NULL;
 8001cf8:	683b      	ldr	r3, [r7, #0]
 8001cfa:	2200      	movs	r2, #0
 8001cfc:	60da      	str	r2, [r3, #12]
 8001cfe:	e011      	b.n	8001d24 <tu_fifo_get_read_info+0x112>
  } else {
    info->linear.len = f->depth - rd_ptr; // Also the case if FIFO was full
 8001d00:	687b      	ldr	r3, [r7, #4]
 8001d02:	889a      	ldrh	r2, [r3, #4]
 8001d04:	8bfb      	ldrh	r3, [r7, #30]
 8001d06:	1ad3      	subs	r3, r2, r3
 8001d08:	b29a      	uxth	r2, r3
 8001d0a:	683b      	ldr	r3, [r7, #0]
 8001d0c:	801a      	strh	r2, [r3, #0]

    info->wrapped.len = cnt - info->linear.len;
 8001d0e:	683b      	ldr	r3, [r7, #0]
 8001d10:	881b      	ldrh	r3, [r3, #0]
 8001d12:	8cba      	ldrh	r2, [r7, #36]	@ 0x24
 8001d14:	1ad3      	subs	r3, r2, r3
 8001d16:	b29a      	uxth	r2, r3
 8001d18:	683b      	ldr	r3, [r7, #0]
 8001d1a:	811a      	strh	r2, [r3, #8]
    info->wrapped.ptr = f->buffer;
 8001d1c:	687b      	ldr	r3, [r7, #4]
 8001d1e:	681a      	ldr	r2, [r3, #0]
 8001d20:	683b      	ldr	r3, [r7, #0]
 8001d22:	60da      	str	r2, [r3, #12]
  }
}
 8001d24:	3728      	adds	r7, #40	@ 0x28
 8001d26:	46bd      	mov	sp, r7
 8001d28:	bd80      	pop	{r7, pc}

08001d2a <tud_event_hook_cb>:
#endif

//--------------------------------------------------------------------+
// Weak stubs: invoked if no strong implementation is available
//--------------------------------------------------------------------+
TU_ATTR_WEAK void tud_event_hook_cb(uint8_t rhport, uint32_t eventid, bool in_isr) {
 8001d2a:	b480      	push	{r7}
 8001d2c:	b083      	sub	sp, #12
 8001d2e:	af00      	add	r7, sp, #0
 8001d30:	4603      	mov	r3, r0
 8001d32:	6039      	str	r1, [r7, #0]
 8001d34:	71fb      	strb	r3, [r7, #7]
 8001d36:	4613      	mov	r3, r2
 8001d38:	71bb      	strb	r3, [r7, #6]
  (void) rhport; (void) eventid; (void) in_isr;
}
 8001d3a:	bf00      	nop
 8001d3c:	370c      	adds	r7, #12
 8001d3e:	46bd      	mov	sp, r7
 8001d40:	bc80      	pop	{r7}
 8001d42:	4770      	bx	lr

08001d44 <tud_sof_cb>:

TU_ATTR_WEAK void tud_sof_cb(uint32_t frame_count) {
 8001d44:	b480      	push	{r7}
 8001d46:	b083      	sub	sp, #12
 8001d48:	af00      	add	r7, sp, #0
 8001d4a:	6078      	str	r0, [r7, #4]
  (void) frame_count;
}
 8001d4c:	bf00      	nop
 8001d4e:	370c      	adds	r7, #12
 8001d50:	46bd      	mov	sp, r7
 8001d52:	bc80      	pop	{r7}
 8001d54:	4770      	bx	lr

08001d56 <tud_descriptor_bos_cb>:

TU_ATTR_WEAK uint8_t const* tud_descriptor_bos_cb(void) {
 8001d56:	b480      	push	{r7}
 8001d58:	af00      	add	r7, sp, #0
  return NULL;
 8001d5a:	2300      	movs	r3, #0
}
 8001d5c:	4618      	mov	r0, r3
 8001d5e:	46bd      	mov	sp, r7
 8001d60:	bc80      	pop	{r7}
 8001d62:	4770      	bx	lr

08001d64 <tud_descriptor_device_qualifier_cb>:

TU_ATTR_WEAK uint8_t const* tud_descriptor_device_qualifier_cb(void) {
 8001d64:	b480      	push	{r7}
 8001d66:	af00      	add	r7, sp, #0
  return NULL;
 8001d68:	2300      	movs	r3, #0
}
 8001d6a:	4618      	mov	r0, r3
 8001d6c:	46bd      	mov	sp, r7
 8001d6e:	bc80      	pop	{r7}
 8001d70:	4770      	bx	lr

08001d72 <tud_descriptor_other_speed_configuration_cb>:

TU_ATTR_WEAK uint8_t const* tud_descriptor_other_speed_configuration_cb(uint8_t index) {
 8001d72:	b480      	push	{r7}
 8001d74:	b083      	sub	sp, #12
 8001d76:	af00      	add	r7, sp, #0
 8001d78:	4603      	mov	r3, r0
 8001d7a:	71fb      	strb	r3, [r7, #7]
  (void) index;
  return NULL;
 8001d7c:	2300      	movs	r3, #0
}
 8001d7e:	4618      	mov	r0, r3
 8001d80:	370c      	adds	r7, #12
 8001d82:	46bd      	mov	sp, r7
 8001d84:	bc80      	pop	{r7}
 8001d86:	4770      	bx	lr

08001d88 <tud_mount_cb>:

TU_ATTR_WEAK void tud_mount_cb(void) {
 8001d88:	b480      	push	{r7}
 8001d8a:	af00      	add	r7, sp, #0
}
 8001d8c:	bf00      	nop
 8001d8e:	46bd      	mov	sp, r7
 8001d90:	bc80      	pop	{r7}
 8001d92:	4770      	bx	lr

08001d94 <tud_umount_cb>:

TU_ATTR_WEAK void tud_umount_cb(void) {
 8001d94:	b480      	push	{r7}
 8001d96:	af00      	add	r7, sp, #0
}
 8001d98:	bf00      	nop
 8001d9a:	46bd      	mov	sp, r7
 8001d9c:	bc80      	pop	{r7}
 8001d9e:	4770      	bx	lr

08001da0 <tud_suspend_cb>:

TU_ATTR_WEAK void tud_suspend_cb(bool remote_wakeup_en) {
 8001da0:	b480      	push	{r7}
 8001da2:	b083      	sub	sp, #12
 8001da4:	af00      	add	r7, sp, #0
 8001da6:	4603      	mov	r3, r0
 8001da8:	71fb      	strb	r3, [r7, #7]
  (void) remote_wakeup_en;
}
 8001daa:	bf00      	nop
 8001dac:	370c      	adds	r7, #12
 8001dae:	46bd      	mov	sp, r7
 8001db0:	bc80      	pop	{r7}
 8001db2:	4770      	bx	lr

08001db4 <tud_resume_cb>:

TU_ATTR_WEAK void tud_resume_cb(void) {
 8001db4:	b480      	push	{r7}
 8001db6:	af00      	add	r7, sp, #0
}
 8001db8:	bf00      	nop
 8001dba:	46bd      	mov	sp, r7
 8001dbc:	bc80      	pop	{r7}
 8001dbe:	4770      	bx	lr

08001dc0 <tud_vendor_control_xfer_cb>:

TU_ATTR_WEAK bool tud_vendor_control_xfer_cb(uint8_t rhport, uint8_t stage, tusb_control_request_t const* request) {
 8001dc0:	b480      	push	{r7}
 8001dc2:	b083      	sub	sp, #12
 8001dc4:	af00      	add	r7, sp, #0
 8001dc6:	4603      	mov	r3, r0
 8001dc8:	603a      	str	r2, [r7, #0]
 8001dca:	71fb      	strb	r3, [r7, #7]
 8001dcc:	460b      	mov	r3, r1
 8001dce:	71bb      	strb	r3, [r7, #6]
  (void) rhport; (void) stage; (void) request;
  return false;
 8001dd0:	2300      	movs	r3, #0
}
 8001dd2:	4618      	mov	r0, r3
 8001dd4:	370c      	adds	r7, #12
 8001dd6:	46bd      	mov	sp, r7
 8001dd8:	bc80      	pop	{r7}
 8001dda:	4770      	bx	lr

08001ddc <dcd_connect>:
TU_ATTR_WEAK bool dcd_deinit(uint8_t rhport) {
  (void) rhport;
  return false;
}

TU_ATTR_WEAK void dcd_connect(uint8_t rhport) {
 8001ddc:	b480      	push	{r7}
 8001dde:	b083      	sub	sp, #12
 8001de0:	af00      	add	r7, sp, #0
 8001de2:	4603      	mov	r3, r0
 8001de4:	71fb      	strb	r3, [r7, #7]
  (void) rhport;
}
 8001de6:	bf00      	nop
 8001de8:	370c      	adds	r7, #12
 8001dea:	46bd      	mov	sp, r7
 8001dec:	bc80      	pop	{r7}
 8001dee:	4770      	bx	lr

08001df0 <usbd_app_driver_get_cb>:
bool usbd_control_xfer_cb (uint8_t rhport, uint8_t ep_addr, xfer_result_t event, uint32_t xferred_bytes);

//--------------------------------------------------------------------+
// Weak stubs: invoked if no strong implementation is available
//--------------------------------------------------------------------+
TU_ATTR_WEAK usbd_class_driver_t const* usbd_app_driver_get_cb(uint8_t* driver_count) {
 8001df0:	b480      	push	{r7}
 8001df2:	b083      	sub	sp, #12
 8001df4:	af00      	add	r7, sp, #0
 8001df6:	6078      	str	r0, [r7, #4]
  *driver_count = 0;
 8001df8:	687b      	ldr	r3, [r7, #4]
 8001dfa:	2200      	movs	r2, #0
 8001dfc:	701a      	strb	r2, [r3, #0]
  return NULL;
 8001dfe:	2300      	movs	r3, #0
}
 8001e00:	4618      	mov	r0, r3
 8001e02:	370c      	adds	r7, #12
 8001e04:	46bd      	mov	sp, r7
 8001e06:	bc80      	pop	{r7}
 8001e08:	4770      	bx	lr
	...

08001e0c <tud_inited>:

void tud_sof_cb_enable(bool en) {
  usbd_sof_enable(_usbd_rhport, SOF_CONSUMER_USER, en);
}

bool tud_inited(void) {
 8001e0c:	b480      	push	{r7}
 8001e0e:	af00      	add	r7, sp, #0
  return _usbd_rhport != RHPORT_INVALID;
 8001e10:	4b05      	ldr	r3, [pc, #20]	@ (8001e28 <tud_inited+0x1c>)
 8001e12:	781b      	ldrb	r3, [r3, #0]
 8001e14:	2bff      	cmp	r3, #255	@ 0xff
 8001e16:	bf14      	ite	ne
 8001e18:	2301      	movne	r3, #1
 8001e1a:	2300      	moveq	r3, #0
 8001e1c:	b2db      	uxtb	r3, r3
}
 8001e1e:	4618      	mov	r0, r3
 8001e20:	46bd      	mov	sp, r7
 8001e22:	bc80      	pop	{r7}
 8001e24:	4770      	bx	lr
 8001e26:	bf00      	nop
 8001e28:	20000018 	.word	0x20000018

08001e2c <tud_rhport_init>:

bool tud_configure(uint8_t rhport, uint32_t cfg_id, const void* cfg_param) {
  return dcd_configure(rhport, cfg_id, cfg_param);
}

bool tud_rhport_init(uint8_t rhport, const tusb_rhport_init_t* rh_init) {
 8001e2c:	b580      	push	{r7, lr}
 8001e2e:	b08e      	sub	sp, #56	@ 0x38
 8001e30:	af00      	add	r7, sp, #0
 8001e32:	4603      	mov	r3, r0
 8001e34:	6039      	str	r1, [r7, #0]
 8001e36:	71fb      	strb	r3, [r7, #7]
  if (tud_inited()) {
 8001e38:	f7ff ffe8 	bl	8001e0c <tud_inited>
 8001e3c:	4603      	mov	r3, r0
 8001e3e:	2b00      	cmp	r3, #0
 8001e40:	d001      	beq.n	8001e46 <tud_rhport_init+0x1a>
    return true; // skip if already initialized
 8001e42:	2301      	movs	r3, #1
 8001e44:	e0b0      	b.n	8001fa8 <tud_rhport_init+0x17c>
  }
  TU_ASSERT(rh_init);
 8001e46:	683b      	ldr	r3, [r7, #0]
 8001e48:	2b00      	cmp	r3, #0
 8001e4a:	d10a      	bne.n	8001e62 <tud_rhport_init+0x36>
 8001e4c:	4b58      	ldr	r3, [pc, #352]	@ (8001fb0 <tud_rhport_init+0x184>)
 8001e4e:	61fb      	str	r3, [r7, #28]
 8001e50:	69fb      	ldr	r3, [r7, #28]
 8001e52:	681b      	ldr	r3, [r3, #0]
 8001e54:	f003 0301 	and.w	r3, r3, #1
 8001e58:	2b00      	cmp	r3, #0
 8001e5a:	d000      	beq.n	8001e5e <tud_rhport_init+0x32>
 8001e5c:	be00      	bkpt	0x0000
 8001e5e:	2300      	movs	r3, #0
 8001e60:	e0a2      	b.n	8001fa8 <tud_rhport_init+0x17c>
  TU_LOG_INT(CFG_TUD_LOG_LEVEL, sizeof(dcd_event_t));
  TU_LOG_INT(CFG_TUD_LOG_LEVEL, sizeof(tu_fifo_t));
  TU_LOG_INT(CFG_TUD_LOG_LEVEL, sizeof(tu_edpt_stream_t));
#endif

  tu_varclr(&_usbd_dev);
 8001e62:	2237      	movs	r2, #55	@ 0x37
 8001e64:	2100      	movs	r1, #0
 8001e66:	4853      	ldr	r0, [pc, #332]	@ (8001fb4 <tud_rhport_init+0x188>)
 8001e68:	f005 fc2e 	bl	80076c8 <memset>
  _usbd_queued_setup = 0;
 8001e6c:	4b52      	ldr	r3, [pc, #328]	@ (8001fb8 <tud_rhport_init+0x18c>)
 8001e6e:	2200      	movs	r2, #0
 8001e70:	701a      	strb	r2, [r3, #0]
 8001e72:	4b52      	ldr	r3, [pc, #328]	@ (8001fbc <tud_rhport_init+0x190>)
 8001e74:	617b      	str	r3, [r7, #20]
#define OSAL_SPINLOCK_DEF(_name, _int_set) \
  osal_spinlock_t _name = { .interrupt_set = _int_set, .nested_count = 0 }

TU_ATTR_ALWAYS_INLINE static inline void osal_spin_init(osal_spinlock_t *ctx) {
  (void) ctx;
}
 8001e76:	bf00      	nop
 8001e78:	4b51      	ldr	r3, [pc, #324]	@ (8001fc0 <tud_rhport_init+0x194>)
 8001e7a:	61bb      	str	r3, [r7, #24]
  osal_queue_def_t _name = {.interrupt_set = _int_set,                                                 \
                            .item_size     = sizeof(_type),                                            \
                            .ff            = TU_FIFO_INIT(_name##_buf, _depth * sizeof(_type), false)}

TU_ATTR_ALWAYS_INLINE static inline osal_queue_t osal_queue_create(osal_queue_def_t* qdef) {
  tu_fifo_clear(&qdef->ff);
 8001e7c:	69bb      	ldr	r3, [r7, #24]
 8001e7e:	3308      	adds	r3, #8
 8001e80:	4618      	mov	r0, r3
 8001e82:	f7ff fa57 	bl	8001334 <tu_fifo_clear>
  return (osal_queue_t) qdef;
 8001e86:	69bb      	ldr	r3, [r7, #24]
  _usbd_mutex = osal_mutex_create(&_ubsd_mutexdef);
  TU_ASSERT(_usbd_mutex);
#endif

  // Init device queue & task
  _usbd_q = osal_queue_create(&_usbd_qdef);
 8001e88:	4a4e      	ldr	r2, [pc, #312]	@ (8001fc4 <tud_rhport_init+0x198>)
 8001e8a:	6013      	str	r3, [r2, #0]
  TU_ASSERT(_usbd_q);
 8001e8c:	4b4d      	ldr	r3, [pc, #308]	@ (8001fc4 <tud_rhport_init+0x198>)
 8001e8e:	681b      	ldr	r3, [r3, #0]
 8001e90:	2b00      	cmp	r3, #0
 8001e92:	d10a      	bne.n	8001eaa <tud_rhport_init+0x7e>
 8001e94:	4b46      	ldr	r3, [pc, #280]	@ (8001fb0 <tud_rhport_init+0x184>)
 8001e96:	623b      	str	r3, [r7, #32]
 8001e98:	6a3b      	ldr	r3, [r7, #32]
 8001e9a:	681b      	ldr	r3, [r3, #0]
 8001e9c:	f003 0301 	and.w	r3, r3, #1
 8001ea0:	2b00      	cmp	r3, #0
 8001ea2:	d000      	beq.n	8001ea6 <tud_rhport_init+0x7a>
 8001ea4:	be00      	bkpt	0x0000
 8001ea6:	2300      	movs	r3, #0
 8001ea8:	e07e      	b.n	8001fa8 <tud_rhport_init+0x17c>

  // Get application driver if available
  _app_driver = usbd_app_driver_get_cb(&_app_driver_count);
 8001eaa:	4847      	ldr	r0, [pc, #284]	@ (8001fc8 <tud_rhport_init+0x19c>)
 8001eac:	f7ff ffa0 	bl	8001df0 <usbd_app_driver_get_cb>
 8001eb0:	4603      	mov	r3, r0
 8001eb2:	4a46      	ldr	r2, [pc, #280]	@ (8001fcc <tud_rhport_init+0x1a0>)
 8001eb4:	6013      	str	r3, [r2, #0]
  TU_ASSERT(_app_driver_count + BUILTIN_DRIVER_COUNT <= UINT8_MAX);
 8001eb6:	4b44      	ldr	r3, [pc, #272]	@ (8001fc8 <tud_rhport_init+0x19c>)
 8001eb8:	781b      	ldrb	r3, [r3, #0]
 8001eba:	2bff      	cmp	r3, #255	@ 0xff
 8001ebc:	d10a      	bne.n	8001ed4 <tud_rhport_init+0xa8>
 8001ebe:	4b3c      	ldr	r3, [pc, #240]	@ (8001fb0 <tud_rhport_init+0x184>)
 8001ec0:	627b      	str	r3, [r7, #36]	@ 0x24
 8001ec2:	6a7b      	ldr	r3, [r7, #36]	@ 0x24
 8001ec4:	681b      	ldr	r3, [r3, #0]
 8001ec6:	f003 0301 	and.w	r3, r3, #1
 8001eca:	2b00      	cmp	r3, #0
 8001ecc:	d000      	beq.n	8001ed0 <tud_rhport_init+0xa4>
 8001ece:	be00      	bkpt	0x0000
 8001ed0:	2300      	movs	r3, #0
 8001ed2:	e069      	b.n	8001fa8 <tud_rhport_init+0x17c>

  // Init class drivers
  for (uint8_t i = 0; i < TOTAL_DRIVER_COUNT; i++) {
 8001ed4:	2300      	movs	r3, #0
 8001ed6:	f887 3037 	strb.w	r3, [r7, #55]	@ 0x37
 8001eda:	e03f      	b.n	8001f5c <tud_rhport_init+0x130>
 8001edc:	f897 3037 	ldrb.w	r3, [r7, #55]	@ 0x37
 8001ee0:	74fb      	strb	r3, [r7, #19]
  usbd_class_driver_t const *driver = NULL;
 8001ee2:	2300      	movs	r3, #0
 8001ee4:	60fb      	str	r3, [r7, #12]
  if (drvid < _app_driver_count) {
 8001ee6:	4b38      	ldr	r3, [pc, #224]	@ (8001fc8 <tud_rhport_init+0x19c>)
 8001ee8:	781b      	ldrb	r3, [r3, #0]
 8001eea:	7cfa      	ldrb	r2, [r7, #19]
 8001eec:	429a      	cmp	r2, r3
 8001eee:	d209      	bcs.n	8001f04 <tud_rhport_init+0xd8>
    driver = &_app_driver[drvid];
 8001ef0:	4b36      	ldr	r3, [pc, #216]	@ (8001fcc <tud_rhport_init+0x1a0>)
 8001ef2:	6819      	ldr	r1, [r3, #0]
 8001ef4:	7cfa      	ldrb	r2, [r7, #19]
 8001ef6:	4613      	mov	r3, r2
 8001ef8:	00db      	lsls	r3, r3, #3
 8001efa:	4413      	add	r3, r2
 8001efc:	009b      	lsls	r3, r3, #2
 8001efe:	440b      	add	r3, r1
 8001f00:	60fb      	str	r3, [r7, #12]
 8001f02:	e00f      	b.n	8001f24 <tud_rhport_init+0xf8>
    drvid -= _app_driver_count;
 8001f04:	4b30      	ldr	r3, [pc, #192]	@ (8001fc8 <tud_rhport_init+0x19c>)
 8001f06:	781b      	ldrb	r3, [r3, #0]
 8001f08:	7cfa      	ldrb	r2, [r7, #19]
 8001f0a:	1ad3      	subs	r3, r2, r3
 8001f0c:	74fb      	strb	r3, [r7, #19]
    if (drvid < BUILTIN_DRIVER_COUNT) {
 8001f0e:	7cfb      	ldrb	r3, [r7, #19]
 8001f10:	2b00      	cmp	r3, #0
 8001f12:	d107      	bne.n	8001f24 <tud_rhport_init+0xf8>
      driver = &_usbd_driver[drvid];
 8001f14:	7cfa      	ldrb	r2, [r7, #19]
 8001f16:	4613      	mov	r3, r2
 8001f18:	00db      	lsls	r3, r3, #3
 8001f1a:	4413      	add	r3, r2
 8001f1c:	009b      	lsls	r3, r3, #2
 8001f1e:	4a2c      	ldr	r2, [pc, #176]	@ (8001fd0 <tud_rhport_init+0x1a4>)
 8001f20:	4413      	add	r3, r2
 8001f22:	60fb      	str	r3, [r7, #12]
  return driver;
 8001f24:	68fb      	ldr	r3, [r7, #12]
    usbd_class_driver_t const* driver = get_driver(i);
 8001f26:	62fb      	str	r3, [r7, #44]	@ 0x2c
    TU_ASSERT(driver && driver->init);
 8001f28:	6afb      	ldr	r3, [r7, #44]	@ 0x2c
 8001f2a:	2b00      	cmp	r3, #0
 8001f2c:	d003      	beq.n	8001f36 <tud_rhport_init+0x10a>
 8001f2e:	6afb      	ldr	r3, [r7, #44]	@ 0x2c
 8001f30:	685b      	ldr	r3, [r3, #4]
 8001f32:	2b00      	cmp	r3, #0
 8001f34:	d10a      	bne.n	8001f4c <tud_rhport_init+0x120>
 8001f36:	4b1e      	ldr	r3, [pc, #120]	@ (8001fb0 <tud_rhport_init+0x184>)
 8001f38:	62bb      	str	r3, [r7, #40]	@ 0x28
 8001f3a:	6abb      	ldr	r3, [r7, #40]	@ 0x28
 8001f3c:	681b      	ldr	r3, [r3, #0]
 8001f3e:	f003 0301 	and.w	r3, r3, #1
 8001f42:	2b00      	cmp	r3, #0
 8001f44:	d000      	beq.n	8001f48 <tud_rhport_init+0x11c>
 8001f46:	be00      	bkpt	0x0000
 8001f48:	2300      	movs	r3, #0
 8001f4a:	e02d      	b.n	8001fa8 <tud_rhport_init+0x17c>
    TU_LOG_USBD("%s init\r\n", driver->name);
    driver->init();
 8001f4c:	6afb      	ldr	r3, [r7, #44]	@ 0x2c
 8001f4e:	685b      	ldr	r3, [r3, #4]
 8001f50:	4798      	blx	r3
  for (uint8_t i = 0; i < TOTAL_DRIVER_COUNT; i++) {
 8001f52:	f897 3037 	ldrb.w	r3, [r7, #55]	@ 0x37
 8001f56:	3301      	adds	r3, #1
 8001f58:	f887 3037 	strb.w	r3, [r7, #55]	@ 0x37
 8001f5c:	4b1a      	ldr	r3, [pc, #104]	@ (8001fc8 <tud_rhport_init+0x19c>)
 8001f5e:	781b      	ldrb	r3, [r3, #0]
 8001f60:	3301      	adds	r3, #1
 8001f62:	b2db      	uxtb	r3, r3
 8001f64:	f897 2037 	ldrb.w	r2, [r7, #55]	@ 0x37
 8001f68:	429a      	cmp	r2, r3
 8001f6a:	d3b7      	bcc.n	8001edc <tud_rhport_init+0xb0>
  }

  _usbd_rhport = rhport;
 8001f6c:	4a19      	ldr	r2, [pc, #100]	@ (8001fd4 <tud_rhport_init+0x1a8>)
 8001f6e:	79fb      	ldrb	r3, [r7, #7]
 8001f70:	7013      	strb	r3, [r2, #0]

  // Init device controller driver
  TU_ASSERT(dcd_init(rhport, rh_init));
 8001f72:	79fb      	ldrb	r3, [r7, #7]
 8001f74:	6839      	ldr	r1, [r7, #0]
 8001f76:	4618      	mov	r0, r3
 8001f78:	f001 feee 	bl	8003d58 <dcd_init>
 8001f7c:	4603      	mov	r3, r0
 8001f7e:	f083 0301 	eor.w	r3, r3, #1
 8001f82:	b2db      	uxtb	r3, r3
 8001f84:	2b00      	cmp	r3, #0
 8001f86:	d00a      	beq.n	8001f9e <tud_rhport_init+0x172>
 8001f88:	4b09      	ldr	r3, [pc, #36]	@ (8001fb0 <tud_rhport_init+0x184>)
 8001f8a:	633b      	str	r3, [r7, #48]	@ 0x30
 8001f8c:	6b3b      	ldr	r3, [r7, #48]	@ 0x30
 8001f8e:	681b      	ldr	r3, [r3, #0]
 8001f90:	f003 0301 	and.w	r3, r3, #1
 8001f94:	2b00      	cmp	r3, #0
 8001f96:	d000      	beq.n	8001f9a <tud_rhport_init+0x16e>
 8001f98:	be00      	bkpt	0x0000
 8001f9a:	2300      	movs	r3, #0
 8001f9c:	e004      	b.n	8001fa8 <tud_rhport_init+0x17c>
  dcd_int_enable(rhport);
 8001f9e:	79fb      	ldrb	r3, [r7, #7]
 8001fa0:	4618      	mov	r0, r3
 8001fa2:	f003 fcb5 	bl	8005910 <dcd_int_enable>

  return true;
 8001fa6:	2301      	movs	r3, #1
}
 8001fa8:	4618      	mov	r0, r3
 8001faa:	3738      	adds	r7, #56	@ 0x38
 8001fac:	46bd      	mov	sp, r7
 8001fae:	bd80      	pop	{r7, pc}
 8001fb0:	e000edf0 	.word	0xe000edf0
 8001fb4:	20000434 	.word	0x20000434
 8001fb8:	2000046b 	.word	0x2000046b
 8001fbc:	2000001c 	.word	0x2000001c
 8001fc0:	20000024 	.word	0x20000024
 8001fc4:	20000534 	.word	0x20000534
 8001fc8:	20000470 	.word	0x20000470
 8001fcc:	2000046c 	.word	0x2000046c
 8001fd0:	080077fc 	.word	0x080077fc
 8001fd4:	20000018 	.word	0x20000018

08001fd8 <configuration_reset>:
  }

  return true;
}

static void configuration_reset(uint8_t rhport) {
 8001fd8:	b580      	push	{r7, lr}
 8001fda:	b088      	sub	sp, #32
 8001fdc:	af00      	add	r7, sp, #0
 8001fde:	4603      	mov	r3, r0
 8001fe0:	71fb      	strb	r3, [r7, #7]
  for (uint8_t i = 0; i < TOTAL_DRIVER_COUNT; i++) {
 8001fe2:	2300      	movs	r3, #0
 8001fe4:	77fb      	strb	r3, [r7, #31]
 8001fe6:	e039      	b.n	800205c <configuration_reset+0x84>
 8001fe8:	7ffb      	ldrb	r3, [r7, #31]
 8001fea:	74fb      	strb	r3, [r7, #19]
  usbd_class_driver_t const *driver = NULL;
 8001fec:	2300      	movs	r3, #0
 8001fee:	60fb      	str	r3, [r7, #12]
  if (drvid < _app_driver_count) {
 8001ff0:	4b28      	ldr	r3, [pc, #160]	@ (8002094 <configuration_reset+0xbc>)
 8001ff2:	781b      	ldrb	r3, [r3, #0]
 8001ff4:	7cfa      	ldrb	r2, [r7, #19]
 8001ff6:	429a      	cmp	r2, r3
 8001ff8:	d209      	bcs.n	800200e <configuration_reset+0x36>
    driver = &_app_driver[drvid];
 8001ffa:	4b27      	ldr	r3, [pc, #156]	@ (8002098 <configuration_reset+0xc0>)
 8001ffc:	6819      	ldr	r1, [r3, #0]
 8001ffe:	7cfa      	ldrb	r2, [r7, #19]
 8002000:	4613      	mov	r3, r2
 8002002:	00db      	lsls	r3, r3, #3
 8002004:	4413      	add	r3, r2
 8002006:	009b      	lsls	r3, r3, #2
 8002008:	440b      	add	r3, r1
 800200a:	60fb      	str	r3, [r7, #12]
 800200c:	e00f      	b.n	800202e <configuration_reset+0x56>
    drvid -= _app_driver_count;
 800200e:	4b21      	ldr	r3, [pc, #132]	@ (8002094 <configuration_reset+0xbc>)
 8002010:	781b      	ldrb	r3, [r3, #0]
 8002012:	7cfa      	ldrb	r2, [r7, #19]
 8002014:	1ad3      	subs	r3, r2, r3
 8002016:	74fb      	strb	r3, [r7, #19]
    if (drvid < BUILTIN_DRIVER_COUNT) {
 8002018:	7cfb      	ldrb	r3, [r7, #19]
 800201a:	2b00      	cmp	r3, #0
 800201c:	d107      	bne.n	800202e <configuration_reset+0x56>
      driver = &_usbd_driver[drvid];
 800201e:	7cfa      	ldrb	r2, [r7, #19]
 8002020:	4613      	mov	r3, r2
 8002022:	00db      	lsls	r3, r3, #3
 8002024:	4413      	add	r3, r2
 8002026:	009b      	lsls	r3, r3, #2
 8002028:	4a1c      	ldr	r2, [pc, #112]	@ (800209c <configuration_reset+0xc4>)
 800202a:	4413      	add	r3, r2
 800202c:	60fb      	str	r3, [r7, #12]
  return driver;
 800202e:	68fb      	ldr	r3, [r7, #12]
    usbd_class_driver_t const* driver = get_driver(i);
 8002030:	61bb      	str	r3, [r7, #24]
    TU_ASSERT(driver,);
 8002032:	69bb      	ldr	r3, [r7, #24]
 8002034:	2b00      	cmp	r3, #0
 8002036:	d109      	bne.n	800204c <configuration_reset+0x74>
 8002038:	4b19      	ldr	r3, [pc, #100]	@ (80020a0 <configuration_reset+0xc8>)
 800203a:	617b      	str	r3, [r7, #20]
 800203c:	697b      	ldr	r3, [r7, #20]
 800203e:	681b      	ldr	r3, [r3, #0]
 8002040:	f003 0301 	and.w	r3, r3, #1
 8002044:	2b00      	cmp	r3, #0
 8002046:	d020      	beq.n	800208a <configuration_reset+0xb2>
 8002048:	be00      	bkpt	0x0000
 800204a:	e01e      	b.n	800208a <configuration_reset+0xb2>
    driver->reset(rhport);
 800204c:	69bb      	ldr	r3, [r7, #24]
 800204e:	68db      	ldr	r3, [r3, #12]
 8002050:	79fa      	ldrb	r2, [r7, #7]
 8002052:	4610      	mov	r0, r2
 8002054:	4798      	blx	r3
  for (uint8_t i = 0; i < TOTAL_DRIVER_COUNT; i++) {
 8002056:	7ffb      	ldrb	r3, [r7, #31]
 8002058:	3301      	adds	r3, #1
 800205a:	77fb      	strb	r3, [r7, #31]
 800205c:	4b0d      	ldr	r3, [pc, #52]	@ (8002094 <configuration_reset+0xbc>)
 800205e:	781b      	ldrb	r3, [r3, #0]
 8002060:	3301      	adds	r3, #1
 8002062:	b2db      	uxtb	r3, r3
 8002064:	7ffa      	ldrb	r2, [r7, #31]
 8002066:	429a      	cmp	r2, r3
 8002068:	d3be      	bcc.n	8001fe8 <configuration_reset+0x10>
  }

  tu_varclr(&_usbd_dev);
 800206a:	2237      	movs	r2, #55	@ 0x37
 800206c:	2100      	movs	r1, #0
 800206e:	480d      	ldr	r0, [pc, #52]	@ (80020a4 <configuration_reset+0xcc>)
 8002070:	f005 fb2a 	bl	80076c8 <memset>
  (void)memset(_usbd_dev.itf2drv, TUSB_INDEX_INVALID_8, sizeof(_usbd_dev.itf2drv)); // invalid mapping
 8002074:	2210      	movs	r2, #16
 8002076:	21ff      	movs	r1, #255	@ 0xff
 8002078:	480b      	ldr	r0, [pc, #44]	@ (80020a8 <configuration_reset+0xd0>)
 800207a:	f005 fb25 	bl	80076c8 <memset>
  (void)memset(_usbd_dev.ep2drv, TUSB_INDEX_INVALID_8, sizeof(_usbd_dev.ep2drv));   // invalid mapping
 800207e:	2210      	movs	r2, #16
 8002080:	21ff      	movs	r1, #255	@ 0xff
 8002082:	480a      	ldr	r0, [pc, #40]	@ (80020ac <configuration_reset+0xd4>)
 8002084:	f005 fb20 	bl	80076c8 <memset>
 8002088:	e000      	b.n	800208c <configuration_reset+0xb4>
    TU_ASSERT(driver,);
 800208a:	bf00      	nop
}
 800208c:	3720      	adds	r7, #32
 800208e:	46bd      	mov	sp, r7
 8002090:	bd80      	pop	{r7, pc}
 8002092:	bf00      	nop
 8002094:	20000470 	.word	0x20000470
 8002098:	2000046c 	.word	0x2000046c
 800209c:	080077fc 	.word	0x080077fc
 80020a0:	e000edf0 	.word	0xe000edf0
 80020a4:	20000434 	.word	0x20000434
 80020a8:	2000043b 	.word	0x2000043b
 80020ac:	2000044b 	.word	0x2000044b

080020b0 <usbd_reset>:

static void usbd_reset(uint8_t rhport) {
 80020b0:	b580      	push	{r7, lr}
 80020b2:	b082      	sub	sp, #8
 80020b4:	af00      	add	r7, sp, #0
 80020b6:	4603      	mov	r3, r0
 80020b8:	71fb      	strb	r3, [r7, #7]
  configuration_reset(rhport);
 80020ba:	79fb      	ldrb	r3, [r7, #7]
 80020bc:	4618      	mov	r0, r3
 80020be:	f7ff ff8b 	bl	8001fd8 <configuration_reset>
  usbd_control_reset();
 80020c2:	f001 fd1d 	bl	8003b00 <usbd_control_reset>
}
 80020c6:	bf00      	nop
 80020c8:	3708      	adds	r7, #8
 80020ca:	46bd      	mov	sp, r7
 80020cc:	bd80      	pop	{r7, pc}
	...

080020d0 <tud_task_ext>:
        application_code();
        tud_task(); // tinyusb device task
      }
    }
 */
void tud_task_ext(uint32_t timeout_ms, bool in_isr) {
 80020d0:	b590      	push	{r4, r7, lr}
 80020d2:	b097      	sub	sp, #92	@ 0x5c
 80020d4:	af00      	add	r7, sp, #0
 80020d6:	6078      	str	r0, [r7, #4]
 80020d8:	460b      	mov	r3, r1
 80020da:	70fb      	strb	r3, [r7, #3]
  (void) in_isr; // not implemented yet

  // Skip if stack is not initialized
  if (!tud_inited()) {
 80020dc:	f7ff fe96 	bl	8001e0c <tud_inited>
 80020e0:	4603      	mov	r3, r0
 80020e2:	f083 0301 	eor.w	r3, r3, #1
 80020e6:	b2db      	uxtb	r3, r3
 80020e8:	2b00      	cmp	r3, #0
 80020ea:	f040 81a4 	bne.w	8002436 <tud_task_ext+0x366>
    return;
  }

  // Loop until there are no more events in the queue or CFG_TUD_TASK_EVENTS_PER_RUN is reached
  for (unsigned epr = 0;; epr++) {
 80020ee:	2300      	movs	r3, #0
 80020f0:	657b      	str	r3, [r7, #84]	@ 0x54
#if CFG_TUD_TASK_EVENTS_PER_RUN > 0
    if (epr >= CFG_TUD_TASK_EVENTS_PER_RUN) {
 80020f2:	6d7b      	ldr	r3, [r7, #84]	@ 0x54
 80020f4:	2b0f      	cmp	r3, #15
 80020f6:	f200 81a0 	bhi.w	800243a <tud_task_ext+0x36a>
      TU_LOG_USBD("USBD event limit (" TU_XSTRING(CFG_TUD_TASK_EVENTS_PER_RUN) ") reached\r\n");
      break;
    }
#endif
    dcd_event_t event;
    if (!osal_queue_receive(_usbd_q, &event, timeout_ms)) {
 80020fa:	4bad      	ldr	r3, [pc, #692]	@ (80023b0 <tud_task_ext+0x2e0>)
 80020fc:	681b      	ldr	r3, [r3, #0]
 80020fe:	63fb      	str	r3, [r7, #60]	@ 0x3c
 8002100:	f107 030c 	add.w	r3, r7, #12
 8002104:	63bb      	str	r3, [r7, #56]	@ 0x38
 8002106:	687b      	ldr	r3, [r7, #4]
 8002108:	637b      	str	r3, [r7, #52]	@ 0x34
}

TU_ATTR_ALWAYS_INLINE static inline bool osal_queue_receive(osal_queue_t qhdl, void* data, uint32_t msec) {
  (void) msec; // not used, always behave as msec = 0

  qhdl->interrupt_set(false);
 800210a:	6bfb      	ldr	r3, [r7, #60]	@ 0x3c
 800210c:	681b      	ldr	r3, [r3, #0]
 800210e:	2000      	movs	r0, #0
 8002110:	4798      	blx	r3
  const bool success = (tu_fifo_read_n(&qhdl->ff, data, qhdl->item_size) > 0);
 8002112:	6bfb      	ldr	r3, [r7, #60]	@ 0x3c
 8002114:	3308      	adds	r3, #8
 8002116:	6bfa      	ldr	r2, [r7, #60]	@ 0x3c
 8002118:	8892      	ldrh	r2, [r2, #4]
 800211a:	633b      	str	r3, [r7, #48]	@ 0x30
 800211c:	6bbb      	ldr	r3, [r7, #56]	@ 0x38
 800211e:	62fb      	str	r3, [r7, #44]	@ 0x2c
 8002120:	4613      	mov	r3, r2
 8002122:	857b      	strh	r3, [r7, #42]	@ 0x2a
  return tu_fifo_read_n_access_mode(f, buffer, n, NULL);
 8002124:	8d7a      	ldrh	r2, [r7, #42]	@ 0x2a
 8002126:	2300      	movs	r3, #0
 8002128:	6af9      	ldr	r1, [r7, #44]	@ 0x2c
 800212a:	6b38      	ldr	r0, [r7, #48]	@ 0x30
 800212c:	f7ff fc71 	bl	8001a12 <tu_fifo_read_n_access_mode>
 8002130:	4603      	mov	r3, r0
 8002132:	2b00      	cmp	r3, #0
 8002134:	bf14      	ite	ne
 8002136:	2301      	movne	r3, #1
 8002138:	2300      	moveq	r3, #0
 800213a:	f887 3029 	strb.w	r3, [r7, #41]	@ 0x29
  qhdl->interrupt_set(true);
 800213e:	6bfb      	ldr	r3, [r7, #60]	@ 0x3c
 8002140:	681b      	ldr	r3, [r3, #0]
 8002142:	2001      	movs	r0, #1
 8002144:	4798      	blx	r3

  return success;
 8002146:	f897 3029 	ldrb.w	r3, [r7, #41]	@ 0x29
 800214a:	f083 0301 	eor.w	r3, r3, #1
 800214e:	b2db      	uxtb	r3, r3
 8002150:	2b00      	cmp	r3, #0
 8002152:	f040 8174 	bne.w	800243e <tud_task_ext+0x36e>
      TU_LOG_USBD("\r\n"); // extra line for setup
    }
    TU_LOG_USBD("USBD %s ", event.event_id < DCD_EVENT_COUNT ? _usbd_event_str[event.event_id] : "CORRUPTED");
#endif

    switch (event.event_id) {
 8002156:	7b7b      	ldrb	r3, [r7, #13]
 8002158:	3b01      	subs	r3, #1
 800215a:	2b07      	cmp	r3, #7
 800215c:	f200 814e 	bhi.w	80023fc <tud_task_ext+0x32c>
 8002160:	a201      	add	r2, pc, #4	@ (adr r2, 8002168 <tud_task_ext+0x98>)
 8002162:	f852 f023 	ldr.w	pc, [r2, r3, lsl #2]
 8002166:	bf00      	nop
 8002168:	08002189 	.word	0x08002189
 800216c:	08002199 	.word	0x08002199
 8002170:	080023cd 	.word	0x080023cd
 8002174:	08002369 	.word	0x08002369
 8002178:	0800238f 	.word	0x0800238f
 800217c:	080021a7 	.word	0x080021a7
 8002180:	08002253 	.word	0x08002253
 8002184:	0800239f 	.word	0x0800239f
      case DCD_EVENT_BUS_RESET:
        TU_LOG_USBD(": %s Speed\r\n", tu_str_speed[event.bus_reset.speed]);
        usbd_reset(event.rhport);
 8002188:	7b3b      	ldrb	r3, [r7, #12]
 800218a:	4618      	mov	r0, r3
 800218c:	f7ff ff90 	bl	80020b0 <usbd_reset>
        _usbd_dev.speed = event.bus_reset.speed;
 8002190:	7c3a      	ldrb	r2, [r7, #16]
 8002192:	4b88      	ldr	r3, [pc, #544]	@ (80023b4 <tud_task_ext+0x2e4>)
 8002194:	715a      	strb	r2, [r3, #5]
        break;
 8002196:	e148      	b.n	800242a <tud_task_ext+0x35a>

      case DCD_EVENT_UNPLUGGED:
        TU_LOG_USBD("\r\n");
        usbd_reset(event.rhport);
 8002198:	7b3b      	ldrb	r3, [r7, #12]
 800219a:	4618      	mov	r0, r3
 800219c:	f7ff ff88 	bl	80020b0 <usbd_reset>
        tud_umount_cb();
 80021a0:	f7ff fdf8 	bl	8001d94 <tud_umount_cb>
        break;
 80021a4:	e141      	b.n	800242a <tud_task_ext+0x35a>

      case DCD_EVENT_SETUP_RECEIVED:
        TU_ASSERT(_usbd_queued_setup > 0,);
 80021a6:	4b84      	ldr	r3, [pc, #528]	@ (80023b8 <tud_task_ext+0x2e8>)
 80021a8:	781b      	ldrb	r3, [r3, #0]
 80021aa:	b2db      	uxtb	r3, r3
 80021ac:	2b00      	cmp	r3, #0
 80021ae:	d10a      	bne.n	80021c6 <tud_task_ext+0xf6>
 80021b0:	4b82      	ldr	r3, [pc, #520]	@ (80023bc <tud_task_ext+0x2ec>)
 80021b2:	647b      	str	r3, [r7, #68]	@ 0x44
 80021b4:	6c7b      	ldr	r3, [r7, #68]	@ 0x44
 80021b6:	681b      	ldr	r3, [r3, #0]
 80021b8:	f003 0301 	and.w	r3, r3, #1
 80021bc:	2b00      	cmp	r3, #0
 80021be:	f000 8140 	beq.w	8002442 <tud_task_ext+0x372>
 80021c2:	be00      	bkpt	0x0000
 80021c4:	e13d      	b.n	8002442 <tud_task_ext+0x372>
        _usbd_queued_setup--;
 80021c6:	4b7c      	ldr	r3, [pc, #496]	@ (80023b8 <tud_task_ext+0x2e8>)
 80021c8:	781b      	ldrb	r3, [r3, #0]
 80021ca:	b2db      	uxtb	r3, r3
 80021cc:	3b01      	subs	r3, #1
 80021ce:	b2da      	uxtb	r2, r3
 80021d0:	4b79      	ldr	r3, [pc, #484]	@ (80023b8 <tud_task_ext+0x2e8>)
 80021d2:	701a      	strb	r2, [r3, #0]
        TU_LOG_BUF(CFG_TUD_LOG_LEVEL, &event.setup_received, 8);
        if (_usbd_queued_setup != 0) {
 80021d4:	4b78      	ldr	r3, [pc, #480]	@ (80023b8 <tud_task_ext+0x2e8>)
 80021d6:	781b      	ldrb	r3, [r3, #0]
 80021d8:	b2db      	uxtb	r3, r3
 80021da:	2b00      	cmp	r3, #0
 80021dc:	f040 8118 	bne.w	8002410 <tud_task_ext+0x340>
          break;
        }

        // Mark as connected after receiving 1st setup packet.
        // But it is easier to set it every time instead of wasting time to check then set
        _usbd_dev.connected = 1;
 80021e0:	4b74      	ldr	r3, [pc, #464]	@ (80023b4 <tud_task_ext+0x2e4>)
 80021e2:	2201      	movs	r2, #1
 80021e4:	701a      	strb	r2, [r3, #0]

        // mark both in & out control as free
        _usbd_dev.ep_status[0][TUSB_DIR_OUT].busy = 0;
 80021e6:	4a73      	ldr	r2, [pc, #460]	@ (80023b4 <tud_task_ext+0x2e4>)
 80021e8:	f892 3027 	ldrb.w	r3, [r2, #39]	@ 0x27
 80021ec:	f023 0301 	bic.w	r3, r3, #1
 80021f0:	f882 3027 	strb.w	r3, [r2, #39]	@ 0x27
        _usbd_dev.ep_status[0][TUSB_DIR_OUT].claimed = 0;
 80021f4:	4a6f      	ldr	r2, [pc, #444]	@ (80023b4 <tud_task_ext+0x2e4>)
 80021f6:	f892 3027 	ldrb.w	r3, [r2, #39]	@ 0x27
 80021fa:	f023 0304 	bic.w	r3, r3, #4
 80021fe:	f882 3027 	strb.w	r3, [r2, #39]	@ 0x27
        _usbd_dev.ep_status[0][TUSB_DIR_IN].busy = 0;
 8002202:	4a6c      	ldr	r2, [pc, #432]	@ (80023b4 <tud_task_ext+0x2e4>)
 8002204:	f892 3028 	ldrb.w	r3, [r2, #40]	@ 0x28
 8002208:	f023 0301 	bic.w	r3, r3, #1
 800220c:	f882 3028 	strb.w	r3, [r2, #40]	@ 0x28
        _usbd_dev.ep_status[0][TUSB_DIR_IN].claimed = 0;
 8002210:	4a68      	ldr	r2, [pc, #416]	@ (80023b4 <tud_task_ext+0x2e4>)
 8002212:	f892 3028 	ldrb.w	r3, [r2, #40]	@ 0x28
 8002216:	f023 0304 	bic.w	r3, r3, #4
 800221a:	f882 3028 	strb.w	r3, [r2, #40]	@ 0x28

        // Process control request
        if (!process_control_request(event.rhport, &event.setup_received)) {
 800221e:	7b3a      	ldrb	r2, [r7, #12]
 8002220:	f107 030c 	add.w	r3, r7, #12
 8002224:	3304      	adds	r3, #4
 8002226:	4619      	mov	r1, r3
 8002228:	4610      	mov	r0, r2
 800222a:	f000 f92d 	bl	8002488 <process_control_request>
 800222e:	4603      	mov	r3, r0
 8002230:	f083 0301 	eor.w	r3, r3, #1
 8002234:	b2db      	uxtb	r3, r3
 8002236:	2b00      	cmp	r3, #0
 8002238:	f000 80ec 	beq.w	8002414 <tud_task_ext+0x344>
          TU_LOG_USBD("  Stall EP0\r\n");
          // Failed -> stall both control endpoint IN and OUT
          dcd_edpt_stall(event.rhport, 0);
 800223c:	7b3b      	ldrb	r3, [r7, #12]
 800223e:	2100      	movs	r1, #0
 8002240:	4618      	mov	r0, r3
 8002242:	f003 f9dd 	bl	8005600 <dcd_edpt_stall>
          dcd_edpt_stall(event.rhport, 0 | TUSB_DIR_IN_MASK);
 8002246:	7b3b      	ldrb	r3, [r7, #12]
 8002248:	2180      	movs	r1, #128	@ 0x80
 800224a:	4618      	mov	r0, r3
 800224c:	f003 f9d8 	bl	8005600 <dcd_edpt_stall>
        }
        break;
 8002250:	e0e0      	b.n	8002414 <tud_task_ext+0x344>

      case DCD_EVENT_XFER_COMPLETE: {
        // Invoke the class callback associated with the endpoint address
        uint8_t const ep_addr = event.xfer_complete.ep_addr;
 8002252:	7c3b      	ldrb	r3, [r7, #16]
 8002254:	f887 3053 	strb.w	r3, [r7, #83]	@ 0x53
 8002258:	f897 3053 	ldrb.w	r3, [r7, #83]	@ 0x53
 800225c:	f887 3027 	strb.w	r3, [r7, #39]	@ 0x27
  return (uint8_t) (addr & TUSB_EPNUM_MASK);
 8002260:	f897 3027 	ldrb.w	r3, [r7, #39]	@ 0x27
 8002264:	f003 030f 	and.w	r3, r3, #15
 8002268:	b2db      	uxtb	r3, r3
        uint8_t const epnum = tu_edpt_number(ep_addr);
 800226a:	f887 3052 	strb.w	r3, [r7, #82]	@ 0x52
 800226e:	f897 3053 	ldrb.w	r3, [r7, #83]	@ 0x53
 8002272:	f887 3028 	strb.w	r3, [r7, #40]	@ 0x28
  return (addr & TUSB_DIR_IN_MASK) ? TUSB_DIR_IN : TUSB_DIR_OUT;
 8002276:	f897 3028 	ldrb.w	r3, [r7, #40]	@ 0x28
 800227a:	09db      	lsrs	r3, r3, #7
 800227c:	b2db      	uxtb	r3, r3
        uint8_t const ep_dir = tu_edpt_dir(ep_addr);
 800227e:	f887 3051 	strb.w	r3, [r7, #81]	@ 0x51

        TU_LOG_USBD("on EP %02X with %u bytes\r\n", ep_addr, (unsigned int) event.xfer_complete.len);

        _usbd_dev.ep_status[epnum][ep_dir].busy = 0;
 8002282:	f897 2052 	ldrb.w	r2, [r7, #82]	@ 0x52
 8002286:	f897 3051 	ldrb.w	r3, [r7, #81]	@ 0x51
 800228a:	494a      	ldr	r1, [pc, #296]	@ (80023b4 <tud_task_ext+0x2e4>)
 800228c:	0052      	lsls	r2, r2, #1
 800228e:	440a      	add	r2, r1
 8002290:	4413      	add	r3, r2
 8002292:	f103 0220 	add.w	r2, r3, #32
 8002296:	79d3      	ldrb	r3, [r2, #7]
 8002298:	f023 0301 	bic.w	r3, r3, #1
 800229c:	71d3      	strb	r3, [r2, #7]
        _usbd_dev.ep_status[epnum][ep_dir].claimed = 0;
 800229e:	f897 2052 	ldrb.w	r2, [r7, #82]	@ 0x52
 80022a2:	f897 3051 	ldrb.w	r3, [r7, #81]	@ 0x51
 80022a6:	4943      	ldr	r1, [pc, #268]	@ (80023b4 <tud_task_ext+0x2e4>)
 80022a8:	0052      	lsls	r2, r2, #1
 80022aa:	440a      	add	r2, r1
 80022ac:	4413      	add	r3, r2
 80022ae:	f103 0220 	add.w	r2, r3, #32
 80022b2:	79d3      	ldrb	r3, [r2, #7]
 80022b4:	f023 0304 	bic.w	r3, r3, #4
 80022b8:	71d3      	strb	r3, [r2, #7]

        if (0 == epnum) {
 80022ba:	f897 3052 	ldrb.w	r3, [r7, #82]	@ 0x52
 80022be:	2b00      	cmp	r3, #0
 80022c0:	d107      	bne.n	80022d2 <tud_task_ext+0x202>
          usbd_control_xfer_cb(event.rhport, ep_addr, (xfer_result_t) event.xfer_complete.result, event.xfer_complete.len);
 80022c2:	7b38      	ldrb	r0, [r7, #12]
 80022c4:	7c7a      	ldrb	r2, [r7, #17]
 80022c6:	697b      	ldr	r3, [r7, #20]
 80022c8:	f897 1053 	ldrb.w	r1, [r7, #83]	@ 0x53
 80022cc:	f001 fc4c 	bl	8003b68 <usbd_control_xfer_cb>
          TU_ASSERT(driver,);

          TU_LOG_USBD("  %s xfer callback\r\n", driver->name);
          driver->xfer_cb(event.rhport, ep_addr, (xfer_result_t) event.xfer_complete.result, event.xfer_complete.len);
        }
        break;
 80022d0:	e0ab      	b.n	800242a <tud_task_ext+0x35a>
          usbd_class_driver_t const* driver = get_driver(_usbd_dev.ep2drv[epnum][ep_dir]);
 80022d2:	f897 2052 	ldrb.w	r2, [r7, #82]	@ 0x52
 80022d6:	f897 3051 	ldrb.w	r3, [r7, #81]	@ 0x51
 80022da:	4936      	ldr	r1, [pc, #216]	@ (80023b4 <tud_task_ext+0x2e4>)
 80022dc:	0052      	lsls	r2, r2, #1
 80022de:	440a      	add	r2, r1
 80022e0:	4413      	add	r3, r2
 80022e2:	3317      	adds	r3, #23
 80022e4:	781b      	ldrb	r3, [r3, #0]
 80022e6:	f887 3026 	strb.w	r3, [r7, #38]	@ 0x26
  usbd_class_driver_t const *driver = NULL;
 80022ea:	2300      	movs	r3, #0
 80022ec:	623b      	str	r3, [r7, #32]
  if (drvid < _app_driver_count) {
 80022ee:	4b34      	ldr	r3, [pc, #208]	@ (80023c0 <tud_task_ext+0x2f0>)
 80022f0:	781b      	ldrb	r3, [r3, #0]
 80022f2:	f897 2026 	ldrb.w	r2, [r7, #38]	@ 0x26
 80022f6:	429a      	cmp	r2, r3
 80022f8:	d20a      	bcs.n	8002310 <tud_task_ext+0x240>
    driver = &_app_driver[drvid];
 80022fa:	4b32      	ldr	r3, [pc, #200]	@ (80023c4 <tud_task_ext+0x2f4>)
 80022fc:	6819      	ldr	r1, [r3, #0]
 80022fe:	f897 2026 	ldrb.w	r2, [r7, #38]	@ 0x26
 8002302:	4613      	mov	r3, r2
 8002304:	00db      	lsls	r3, r3, #3
 8002306:	4413      	add	r3, r2
 8002308:	009b      	lsls	r3, r3, #2
 800230a:	440b      	add	r3, r1
 800230c:	623b      	str	r3, [r7, #32]
 800230e:	e013      	b.n	8002338 <tud_task_ext+0x268>
    drvid -= _app_driver_count;
 8002310:	4b2b      	ldr	r3, [pc, #172]	@ (80023c0 <tud_task_ext+0x2f0>)
 8002312:	781b      	ldrb	r3, [r3, #0]
 8002314:	f897 2026 	ldrb.w	r2, [r7, #38]	@ 0x26
 8002318:	1ad3      	subs	r3, r2, r3
 800231a:	f887 3026 	strb.w	r3, [r7, #38]	@ 0x26
    if (drvid < BUILTIN_DRIVER_COUNT) {
 800231e:	f897 3026 	ldrb.w	r3, [r7, #38]	@ 0x26
 8002322:	2b00      	cmp	r3, #0
 8002324:	d108      	bne.n	8002338 <tud_task_ext+0x268>
      driver = &_usbd_driver[drvid];
 8002326:	f897 2026 	ldrb.w	r2, [r7, #38]	@ 0x26
 800232a:	4613      	mov	r3, r2
 800232c:	00db      	lsls	r3, r3, #3
 800232e:	4413      	add	r3, r2
 8002330:	009b      	lsls	r3, r3, #2
 8002332:	4a25      	ldr	r2, [pc, #148]	@ (80023c8 <tud_task_ext+0x2f8>)
 8002334:	4413      	add	r3, r2
 8002336:	623b      	str	r3, [r7, #32]
  return driver;
 8002338:	6a3b      	ldr	r3, [r7, #32]
          usbd_class_driver_t const* driver = get_driver(_usbd_dev.ep2drv[epnum][ep_dir]);
 800233a:	64fb      	str	r3, [r7, #76]	@ 0x4c
          TU_ASSERT(driver,);
 800233c:	6cfb      	ldr	r3, [r7, #76]	@ 0x4c
 800233e:	2b00      	cmp	r3, #0
 8002340:	d109      	bne.n	8002356 <tud_task_ext+0x286>
 8002342:	4b1e      	ldr	r3, [pc, #120]	@ (80023bc <tud_task_ext+0x2ec>)
 8002344:	64bb      	str	r3, [r7, #72]	@ 0x48
 8002346:	6cbb      	ldr	r3, [r7, #72]	@ 0x48
 8002348:	681b      	ldr	r3, [r3, #0]
 800234a:	f003 0301 	and.w	r3, r3, #1
 800234e:	2b00      	cmp	r3, #0
 8002350:	d079      	beq.n	8002446 <tud_task_ext+0x376>
 8002352:	be00      	bkpt	0x0000
 8002354:	e077      	b.n	8002446 <tud_task_ext+0x376>
          driver->xfer_cb(event.rhport, ep_addr, (xfer_result_t) event.xfer_complete.result, event.xfer_complete.len);
 8002356:	6cfb      	ldr	r3, [r7, #76]	@ 0x4c
 8002358:	699c      	ldr	r4, [r3, #24]
 800235a:	7b38      	ldrb	r0, [r7, #12]
 800235c:	7c7a      	ldrb	r2, [r7, #17]
 800235e:	697b      	ldr	r3, [r7, #20]
 8002360:	f897 1053 	ldrb.w	r1, [r7, #83]	@ 0x53
 8002364:	47a0      	blx	r4
        break;
 8002366:	e060      	b.n	800242a <tud_task_ext+0x35a>

      case DCD_EVENT_SUSPEND:
        // NOTE: When plugging/unplugging device, the D+/D- state are unstable and
        // can accidentally meet the SUSPEND condition ( Bus Idle for 3ms ), which result in a series of event
        // e.g suspend -> resume -> unplug/plug. Skip suspend/resume if not connected
        if (_usbd_dev.connected) {
 8002368:	4b12      	ldr	r3, [pc, #72]	@ (80023b4 <tud_task_ext+0x2e4>)
 800236a:	781b      	ldrb	r3, [r3, #0]
 800236c:	b2db      	uxtb	r3, r3
 800236e:	2b00      	cmp	r3, #0
 8002370:	d052      	beq.n	8002418 <tud_task_ext+0x348>
          TU_LOG_USBD(": Remote Wakeup = %u\r\n", _usbd_dev.remote_wakeup_en);
          tud_suspend_cb(_usbd_dev.remote_wakeup_en);
 8002372:	4b10      	ldr	r3, [pc, #64]	@ (80023b4 <tud_task_ext+0x2e4>)
 8002374:	78db      	ldrb	r3, [r3, #3]
 8002376:	f3c3 0340 	ubfx	r3, r3, #1, #1
 800237a:	b2db      	uxtb	r3, r3
 800237c:	2b00      	cmp	r3, #0
 800237e:	bf14      	ite	ne
 8002380:	2301      	movne	r3, #1
 8002382:	2300      	moveq	r3, #0
 8002384:	b2db      	uxtb	r3, r3
 8002386:	4618      	mov	r0, r3
 8002388:	f7ff fd0a 	bl	8001da0 <tud_suspend_cb>
        } else {
          TU_LOG_USBD(" Skipped\r\n");
        }
        break;
 800238c:	e044      	b.n	8002418 <tud_task_ext+0x348>

      case DCD_EVENT_RESUME:
        if (_usbd_dev.connected) {
 800238e:	4b09      	ldr	r3, [pc, #36]	@ (80023b4 <tud_task_ext+0x2e4>)
 8002390:	781b      	ldrb	r3, [r3, #0]
 8002392:	b2db      	uxtb	r3, r3
 8002394:	2b00      	cmp	r3, #0
 8002396:	d041      	beq.n	800241c <tud_task_ext+0x34c>
          TU_LOG_USBD("\r\n");
          tud_resume_cb();
 8002398:	f7ff fd0c 	bl	8001db4 <tud_resume_cb>
        } else {
          TU_LOG_USBD(" Skipped\r\n");
        }
        break;
 800239c:	e03e      	b.n	800241c <tud_task_ext+0x34c>

      case USBD_EVENT_FUNC_CALL:
        TU_LOG_USBD("\r\n");
        if (event.func_call.func != NULL) {
 800239e:	693b      	ldr	r3, [r7, #16]
 80023a0:	2b00      	cmp	r3, #0
 80023a2:	d03d      	beq.n	8002420 <tud_task_ext+0x350>
          event.func_call.func(event.func_call.param);
 80023a4:	693b      	ldr	r3, [r7, #16]
 80023a6:	697a      	ldr	r2, [r7, #20]
 80023a8:	4610      	mov	r0, r2
 80023aa:	4798      	blx	r3
        }
        break;
 80023ac:	e038      	b.n	8002420 <tud_task_ext+0x350>
 80023ae:	bf00      	nop
 80023b0:	20000534 	.word	0x20000534
 80023b4:	20000434 	.word	0x20000434
 80023b8:	2000046b 	.word	0x2000046b
 80023bc:	e000edf0 	.word	0xe000edf0
 80023c0:	20000470 	.word	0x20000470
 80023c4:	2000046c 	.word	0x2000046c
 80023c8:	080077fc 	.word	0x080077fc

      case DCD_EVENT_SOF:
        if (tu_bit_test(_usbd_dev.sof_consumer, SOF_CONSUMER_USER)) {
 80023cc:	4b20      	ldr	r3, [pc, #128]	@ (8002450 <tud_task_ext+0x380>)
 80023ce:	799b      	ldrb	r3, [r3, #6]
 80023d0:	b2db      	uxtb	r3, r3
 80023d2:	61fb      	str	r3, [r7, #28]
 80023d4:	2300      	movs	r3, #0
 80023d6:	76fb      	strb	r3, [r7, #27]
TU_ATTR_ALWAYS_INLINE static inline bool     tu_bit_test (uint32_t value, uint8_t pos) { return (value & TU_BIT(pos)) ? true : false; }
 80023d8:	7efb      	ldrb	r3, [r7, #27]
 80023da:	69fa      	ldr	r2, [r7, #28]
 80023dc:	fa22 f303 	lsr.w	r3, r2, r3
 80023e0:	f003 0301 	and.w	r3, r3, #1
 80023e4:	2b00      	cmp	r3, #0
 80023e6:	bf14      	ite	ne
 80023e8:	2301      	movne	r3, #1
 80023ea:	2300      	moveq	r3, #0
 80023ec:	b2db      	uxtb	r3, r3
 80023ee:	2b00      	cmp	r3, #0
 80023f0:	d018      	beq.n	8002424 <tud_task_ext+0x354>
          TU_LOG_USBD("\r\n");
          tud_sof_cb(event.sof.frame_count);
 80023f2:	693b      	ldr	r3, [r7, #16]
 80023f4:	4618      	mov	r0, r3
 80023f6:	f7ff fca5 	bl	8001d44 <tud_sof_cb>
        }
      break;
 80023fa:	e013      	b.n	8002424 <tud_task_ext+0x354>

      default:
        TU_BREAKPOINT();
 80023fc:	4b15      	ldr	r3, [pc, #84]	@ (8002454 <tud_task_ext+0x384>)
 80023fe:	643b      	str	r3, [r7, #64]	@ 0x40
 8002400:	6c3b      	ldr	r3, [r7, #64]	@ 0x40
 8002402:	681b      	ldr	r3, [r3, #0]
 8002404:	f003 0301 	and.w	r3, r3, #1
 8002408:	2b00      	cmp	r3, #0
 800240a:	d00d      	beq.n	8002428 <tud_task_ext+0x358>
 800240c:	be00      	bkpt	0x0000
        break;
 800240e:	e00b      	b.n	8002428 <tud_task_ext+0x358>
          break;
 8002410:	bf00      	nop
 8002412:	e00a      	b.n	800242a <tud_task_ext+0x35a>
        break;
 8002414:	bf00      	nop
 8002416:	e008      	b.n	800242a <tud_task_ext+0x35a>
        break;
 8002418:	bf00      	nop
 800241a:	e006      	b.n	800242a <tud_task_ext+0x35a>
        break;
 800241c:	bf00      	nop
 800241e:	e004      	b.n	800242a <tud_task_ext+0x35a>
        break;
 8002420:	bf00      	nop
 8002422:	e002      	b.n	800242a <tud_task_ext+0x35a>
      break;
 8002424:	bf00      	nop
 8002426:	e000      	b.n	800242a <tud_task_ext+0x35a>
        break;
 8002428:	bf00      	nop
    }

    // allow to exit tud_task() if there is no event in the next run
    timeout_ms = 0;
 800242a:	2300      	movs	r3, #0
 800242c:	607b      	str	r3, [r7, #4]
  for (unsigned epr = 0;; epr++) {
 800242e:	6d7b      	ldr	r3, [r7, #84]	@ 0x54
 8002430:	3301      	adds	r3, #1
 8002432:	657b      	str	r3, [r7, #84]	@ 0x54
 8002434:	e65d      	b.n	80020f2 <tud_task_ext+0x22>
    return;
 8002436:	bf00      	nop
 8002438:	e006      	b.n	8002448 <tud_task_ext+0x378>
      break;
 800243a:	bf00      	nop
 800243c:	e004      	b.n	8002448 <tud_task_ext+0x378>
      return;
 800243e:	bf00      	nop
 8002440:	e002      	b.n	8002448 <tud_task_ext+0x378>
        TU_ASSERT(_usbd_queued_setup > 0,);
 8002442:	bf00      	nop
 8002444:	e000      	b.n	8002448 <tud_task_ext+0x378>
          TU_ASSERT(driver,);
 8002446:	bf00      	nop
  }
}
 8002448:	375c      	adds	r7, #92	@ 0x5c
 800244a:	46bd      	mov	sp, r7
 800244c:	bd90      	pop	{r4, r7, pc}
 800244e:	bf00      	nop
 8002450:	20000434 	.word	0x20000434
 8002454:	e000edf0 	.word	0xe000edf0

08002458 <invoke_class_control>:
//--------------------------------------------------------------------+
// Control Request Parser & Handling
//--------------------------------------------------------------------+

// Helper to invoke class driver control request handler
static bool invoke_class_control(uint8_t rhport, usbd_class_driver_t const * driver, tusb_control_request_t const * request) {
 8002458:	b580      	push	{r7, lr}
 800245a:	b084      	sub	sp, #16
 800245c:	af00      	add	r7, sp, #0
 800245e:	4603      	mov	r3, r0
 8002460:	60b9      	str	r1, [r7, #8]
 8002462:	607a      	str	r2, [r7, #4]
 8002464:	73fb      	strb	r3, [r7, #15]
  usbd_control_set_complete_callback(driver->control_xfer_cb);
 8002466:	68bb      	ldr	r3, [r7, #8]
 8002468:	695b      	ldr	r3, [r3, #20]
 800246a:	4618      	mov	r0, r3
 800246c:	f001 fb54 	bl	8003b18 <usbd_control_set_complete_callback>
  TU_LOG_USBD("  %s control request\r\n", driver->name);
  return driver->control_xfer_cb(rhport, CONTROL_STAGE_SETUP, request);
 8002470:	68bb      	ldr	r3, [r7, #8]
 8002472:	695b      	ldr	r3, [r3, #20]
 8002474:	7bf8      	ldrb	r0, [r7, #15]
 8002476:	687a      	ldr	r2, [r7, #4]
 8002478:	2101      	movs	r1, #1
 800247a:	4798      	blx	r3
 800247c:	4603      	mov	r3, r0
}
 800247e:	4618      	mov	r0, r3
 8002480:	3710      	adds	r7, #16
 8002482:	46bd      	mov	sp, r7
 8002484:	bd80      	pop	{r7, pc}
	...

08002488 <process_control_request>:

// This handles the actual request and its response.
// Returns false if unable to complete the request, causing caller to stall control endpoints.
static bool process_control_request(uint8_t rhport, tusb_control_request_t const * p_request) {
 8002488:	b580      	push	{r7, lr}
 800248a:	b09a      	sub	sp, #104	@ 0x68
 800248c:	af00      	add	r7, sp, #0
 800248e:	4603      	mov	r3, r0
 8002490:	6039      	str	r1, [r7, #0]
 8002492:	71fb      	strb	r3, [r7, #7]
  usbd_control_set_complete_callback(NULL);
 8002494:	2000      	movs	r0, #0
 8002496:	f001 fb3f 	bl	8003b18 <usbd_control_set_complete_callback>
  TU_ASSERT(p_request->bmRequestType_bit.type < TUSB_REQ_TYPE_INVALID);
 800249a:	683b      	ldr	r3, [r7, #0]
 800249c:	781b      	ldrb	r3, [r3, #0]
 800249e:	f003 0360 	and.w	r3, r3, #96	@ 0x60
 80024a2:	b2db      	uxtb	r3, r3
 80024a4:	2b60      	cmp	r3, #96	@ 0x60
 80024a6:	d10a      	bne.n	80024be <process_control_request+0x36>
 80024a8:	4ba6      	ldr	r3, [pc, #664]	@ (8002744 <process_control_request+0x2bc>)
 80024aa:	633b      	str	r3, [r7, #48]	@ 0x30
 80024ac:	6b3b      	ldr	r3, [r7, #48]	@ 0x30
 80024ae:	681b      	ldr	r3, [r3, #0]
 80024b0:	f003 0301 	and.w	r3, r3, #1
 80024b4:	2b00      	cmp	r3, #0
 80024b6:	d000      	beq.n	80024ba <process_control_request+0x32>
 80024b8:	be00      	bkpt	0x0000
 80024ba:	2300      	movs	r3, #0
 80024bc:	e2be      	b.n	8002a3c <process_control_request+0x5b4>

  // Vendor request
  if ( p_request->bmRequestType_bit.type == TUSB_REQ_TYPE_VENDOR ) {
 80024be:	683b      	ldr	r3, [r7, #0]
 80024c0:	781b      	ldrb	r3, [r3, #0]
 80024c2:	f003 0360 	and.w	r3, r3, #96	@ 0x60
 80024c6:	b2db      	uxtb	r3, r3
 80024c8:	2b40      	cmp	r3, #64	@ 0x40
 80024ca:	d10a      	bne.n	80024e2 <process_control_request+0x5a>
    usbd_control_set_complete_callback(tud_vendor_control_xfer_cb);
 80024cc:	489e      	ldr	r0, [pc, #632]	@ (8002748 <process_control_request+0x2c0>)
 80024ce:	f001 fb23 	bl	8003b18 <usbd_control_set_complete_callback>
    return tud_vendor_control_xfer_cb(rhport, CONTROL_STAGE_SETUP, p_request);
 80024d2:	79fb      	ldrb	r3, [r7, #7]
 80024d4:	683a      	ldr	r2, [r7, #0]
 80024d6:	2101      	movs	r1, #1
 80024d8:	4618      	mov	r0, r3
 80024da:	f7ff fc71 	bl	8001dc0 <tud_vendor_control_xfer_cb>
 80024de:	4603      	mov	r3, r0
 80024e0:	e2ac      	b.n	8002a3c <process_control_request+0x5b4>
      TU_LOG_USBD("\r\n");
    }
  }
#endif

  switch (p_request->bmRequestType_bit.recipient) { //-V2520
 80024e2:	683b      	ldr	r3, [r7, #0]
 80024e4:	781b      	ldrb	r3, [r3, #0]
 80024e6:	f3c3 0304 	ubfx	r3, r3, #0, #5
 80024ea:	b2db      	uxtb	r3, r3
 80024ec:	2b02      	cmp	r3, #2
 80024ee:	f000 81c3 	beq.w	8002878 <process_control_request+0x3f0>
 80024f2:	2b02      	cmp	r3, #2
 80024f4:	f300 8295 	bgt.w	8002a22 <process_control_request+0x59a>
 80024f8:	2b00      	cmp	r3, #0
 80024fa:	d003      	beq.n	8002504 <process_control_request+0x7c>
 80024fc:	2b01      	cmp	r3, #1
 80024fe:	f000 8145 	beq.w	800278c <process_control_request+0x304>
 8002502:	e28e      	b.n	8002a22 <process_control_request+0x59a>
    //------------- Device Requests e.g in enumeration -------------//
    case TUSB_REQ_RCPT_DEVICE:
      if ( TUSB_REQ_TYPE_CLASS == p_request->bmRequestType_bit.type ) {
 8002504:	683b      	ldr	r3, [r7, #0]
 8002506:	781b      	ldrb	r3, [r3, #0]
 8002508:	f003 0360 	and.w	r3, r3, #96	@ 0x60
 800250c:	b2db      	uxtb	r3, r3
 800250e:	2b20      	cmp	r3, #32
 8002510:	d14a      	bne.n	80025a8 <process_control_request+0x120>
        uint8_t const itf = tu_u16_low(p_request->wIndex);
 8002512:	683b      	ldr	r3, [r7, #0]
 8002514:	889b      	ldrh	r3, [r3, #4]
 8002516:	b29b      	uxth	r3, r3
 8002518:	85fb      	strh	r3, [r7, #46]	@ 0x2e
TU_ATTR_ALWAYS_INLINE static inline uint8_t tu_u16_low (uint16_t ui16) { return TU_U16_LOW(ui16); }
 800251a:	8dfb      	ldrh	r3, [r7, #46]	@ 0x2e
 800251c:	b2db      	uxtb	r3, r3
 800251e:	f887 303f 	strb.w	r3, [r7, #63]	@ 0x3f
        TU_VERIFY(itf < TU_ARRAY_SIZE(_usbd_dev.itf2drv));
 8002522:	f897 303f 	ldrb.w	r3, [r7, #63]	@ 0x3f
 8002526:	2b0f      	cmp	r3, #15
 8002528:	d901      	bls.n	800252e <process_control_request+0xa6>
 800252a:	2300      	movs	r3, #0
 800252c:	e286      	b.n	8002a3c <process_control_request+0x5b4>

        usbd_class_driver_t const * driver = get_driver(_usbd_dev.itf2drv[itf]);
 800252e:	f897 303f 	ldrb.w	r3, [r7, #63]	@ 0x3f
 8002532:	4a86      	ldr	r2, [pc, #536]	@ (800274c <process_control_request+0x2c4>)
 8002534:	4413      	add	r3, r2
 8002536:	79db      	ldrb	r3, [r3, #7]
 8002538:	f887 302d 	strb.w	r3, [r7, #45]	@ 0x2d
  usbd_class_driver_t const *driver = NULL;
 800253c:	2300      	movs	r3, #0
 800253e:	62bb      	str	r3, [r7, #40]	@ 0x28
  if (drvid < _app_driver_count) {
 8002540:	4b83      	ldr	r3, [pc, #524]	@ (8002750 <process_control_request+0x2c8>)
 8002542:	781b      	ldrb	r3, [r3, #0]
 8002544:	f897 202d 	ldrb.w	r2, [r7, #45]	@ 0x2d
 8002548:	429a      	cmp	r2, r3
 800254a:	d20a      	bcs.n	8002562 <process_control_request+0xda>
    driver = &_app_driver[drvid];
 800254c:	4b81      	ldr	r3, [pc, #516]	@ (8002754 <process_control_request+0x2cc>)
 800254e:	6819      	ldr	r1, [r3, #0]
 8002550:	f897 202d 	ldrb.w	r2, [r7, #45]	@ 0x2d
 8002554:	4613      	mov	r3, r2
 8002556:	00db      	lsls	r3, r3, #3
 8002558:	4413      	add	r3, r2
 800255a:	009b      	lsls	r3, r3, #2
 800255c:	440b      	add	r3, r1
 800255e:	62bb      	str	r3, [r7, #40]	@ 0x28
 8002560:	e013      	b.n	800258a <process_control_request+0x102>
    drvid -= _app_driver_count;
 8002562:	4b7b      	ldr	r3, [pc, #492]	@ (8002750 <process_control_request+0x2c8>)
 8002564:	781b      	ldrb	r3, [r3, #0]
 8002566:	f897 202d 	ldrb.w	r2, [r7, #45]	@ 0x2d
 800256a:	1ad3      	subs	r3, r2, r3
 800256c:	f887 302d 	strb.w	r3, [r7, #45]	@ 0x2d
    if (drvid < BUILTIN_DRIVER_COUNT) {
 8002570:	f897 302d 	ldrb.w	r3, [r7, #45]	@ 0x2d
 8002574:	2b00      	cmp	r3, #0
 8002576:	d108      	bne.n	800258a <process_control_request+0x102>
      driver = &_usbd_driver[drvid];
 8002578:	f897 202d 	ldrb.w	r2, [r7, #45]	@ 0x2d
 800257c:	4613      	mov	r3, r2
 800257e:	00db      	lsls	r3, r3, #3
 8002580:	4413      	add	r3, r2
 8002582:	009b      	lsls	r3, r3, #2
 8002584:	4a74      	ldr	r2, [pc, #464]	@ (8002758 <process_control_request+0x2d0>)
 8002586:	4413      	add	r3, r2
 8002588:	62bb      	str	r3, [r7, #40]	@ 0x28
  return driver;
 800258a:	6abb      	ldr	r3, [r7, #40]	@ 0x28
        usbd_class_driver_t const * driver = get_driver(_usbd_dev.itf2drv[itf]);
 800258c:	63bb      	str	r3, [r7, #56]	@ 0x38
        TU_VERIFY(driver);
 800258e:	6bbb      	ldr	r3, [r7, #56]	@ 0x38
 8002590:	2b00      	cmp	r3, #0
 8002592:	d101      	bne.n	8002598 <process_control_request+0x110>
 8002594:	2300      	movs	r3, #0
 8002596:	e251      	b.n	8002a3c <process_control_request+0x5b4>

        // forward to class driver: "non-STD request to Interface"
        return invoke_class_control(rhport, driver, p_request);
 8002598:	79fb      	ldrb	r3, [r7, #7]
 800259a:	683a      	ldr	r2, [r7, #0]
 800259c:	6bb9      	ldr	r1, [r7, #56]	@ 0x38
 800259e:	4618      	mov	r0, r3
 80025a0:	f7ff ff5a 	bl	8002458 <invoke_class_control>
 80025a4:	4603      	mov	r3, r0
 80025a6:	e249      	b.n	8002a3c <process_control_request+0x5b4>
      }

      if (TUSB_REQ_TYPE_STANDARD != p_request->bmRequestType_bit.type) {
 80025a8:	683b      	ldr	r3, [r7, #0]
 80025aa:	781b      	ldrb	r3, [r3, #0]
 80025ac:	f003 0360 	and.w	r3, r3, #96	@ 0x60
 80025b0:	b2db      	uxtb	r3, r3
 80025b2:	2b00      	cmp	r3, #0
 80025b4:	d00a      	beq.n	80025cc <process_control_request+0x144>
        // Non-standard request is not supported
        TU_BREAKPOINT();
 80025b6:	4b63      	ldr	r3, [pc, #396]	@ (8002744 <process_control_request+0x2bc>)
 80025b8:	643b      	str	r3, [r7, #64]	@ 0x40
 80025ba:	6c3b      	ldr	r3, [r7, #64]	@ 0x40
 80025bc:	681b      	ldr	r3, [r3, #0]
 80025be:	f003 0301 	and.w	r3, r3, #1
 80025c2:	2b00      	cmp	r3, #0
 80025c4:	d000      	beq.n	80025c8 <process_control_request+0x140>
 80025c6:	be00      	bkpt	0x0000
        return false;
 80025c8:	2300      	movs	r3, #0
 80025ca:	e237      	b.n	8002a3c <process_control_request+0x5b4>
      }

      switch (p_request->bRequest) { //-V2520
 80025cc:	683b      	ldr	r3, [r7, #0]
 80025ce:	785b      	ldrb	r3, [r3, #1]
 80025d0:	2b09      	cmp	r3, #9
 80025d2:	f200 80ce 	bhi.w	8002772 <process_control_request+0x2ea>
 80025d6:	a201      	add	r2, pc, #4	@ (adr r2, 80025dc <process_control_request+0x154>)
 80025d8:	f852 f023 	ldr.w	pc, [r2, r3, lsl #2]
 80025dc:	0800275d 	.word	0x0800275d
 80025e0:	0800271f 	.word	0x0800271f
 80025e4:	08002773 	.word	0x08002773
 80025e8:	080026f9 	.word	0x080026f9
 80025ec:	08002773 	.word	0x08002773
 80025f0:	08002605 	.word	0x08002605
 80025f4:	080026df 	.word	0x080026df
 80025f8:	08002773 	.word	0x08002773
 80025fc:	08002625 	.word	0x08002625
 8002600:	0800263b 	.word	0x0800263b
        case TUSB_REQ_SET_ADDRESS:
          // Depending on mcu, status phase could be sent either before or after changing device address,
          // or even require stack to not response with status at all
          // Therefore DCD must take full responsibility to response and include zlp status packet if needed.
          usbd_control_set_request(p_request); // set request since DCD has no access to tud_control_status() API
 8002604:	6838      	ldr	r0, [r7, #0]
 8002606:	f001 fa95 	bl	8003b34 <usbd_control_set_request>
          dcd_set_address(rhport, (uint8_t) p_request->wValue);
 800260a:	683b      	ldr	r3, [r7, #0]
 800260c:	885b      	ldrh	r3, [r3, #2]
 800260e:	b29b      	uxth	r3, r3
 8002610:	b2da      	uxtb	r2, r3
 8002612:	79fb      	ldrb	r3, [r7, #7]
 8002614:	4611      	mov	r1, r2
 8002616:	4618      	mov	r0, r3
 8002618:	f001 fbf2 	bl	8003e00 <dcd_set_address>
          // skip tud_control_status()
          _usbd_dev.addressed = 1;
 800261c:	4b4b      	ldr	r3, [pc, #300]	@ (800274c <process_control_request+0x2c4>)
 800261e:	2201      	movs	r2, #1
 8002620:	705a      	strb	r2, [r3, #1]
        break;
 8002622:	e0b2      	b.n	800278a <process_control_request+0x302>

        case TUSB_REQ_GET_CONFIGURATION: {
          uint8_t cfg_num = _usbd_dev.cfg_num;
 8002624:	4b49      	ldr	r3, [pc, #292]	@ (800274c <process_control_request+0x2c4>)
 8002626:	791b      	ldrb	r3, [r3, #4]
 8002628:	74fb      	strb	r3, [r7, #19]
          tud_control_xfer(rhport, p_request, &cfg_num, 1);
 800262a:	f107 0213 	add.w	r2, r7, #19
 800262e:	79f8      	ldrb	r0, [r7, #7]
 8002630:	2301      	movs	r3, #1
 8002632:	6839      	ldr	r1, [r7, #0]
 8002634:	f001 f9f4 	bl	8003a20 <tud_control_xfer>
        }
        break;
 8002638:	e0a7      	b.n	800278a <process_control_request+0x302>

        case TUSB_REQ_SET_CONFIGURATION: {
          uint8_t const cfg_num = (uint8_t) p_request->wValue;
 800263a:	683b      	ldr	r3, [r7, #0]
 800263c:	885b      	ldrh	r3, [r3, #2]
 800263e:	b29b      	uxth	r3, r3
 8002640:	f887 304f 	strb.w	r3, [r7, #79]	@ 0x4f

          // Only process if new configure is different
          if (_usbd_dev.cfg_num != cfg_num) {
 8002644:	4b41      	ldr	r3, [pc, #260]	@ (800274c <process_control_request+0x2c4>)
 8002646:	791b      	ldrb	r3, [r3, #4]
 8002648:	f897 204f 	ldrb.w	r2, [r7, #79]	@ 0x4f
 800264c:	429a      	cmp	r2, r3
 800264e:	d040      	beq.n	80026d2 <process_control_request+0x24a>
            if (_usbd_dev.cfg_num != 0) {
 8002650:	4b3e      	ldr	r3, [pc, #248]	@ (800274c <process_control_request+0x2c4>)
 8002652:	791b      	ldrb	r3, [r3, #4]
 8002654:	2b00      	cmp	r3, #0
 8002656:	d014      	beq.n	8002682 <process_control_request+0x1fa>
              // already configured: need to clear all endpoints and driver first
              TU_LOG_USBD("  Clear current Configuration (%u) before switching\r\n", _usbd_dev.cfg_num);

              dcd_sof_enable(rhport, false);
 8002658:	79fb      	ldrb	r3, [r7, #7]
 800265a:	2100      	movs	r1, #0
 800265c:	4618      	mov	r0, r3
 800265e:	f001 fba7 	bl	8003db0 <dcd_sof_enable>
              dcd_edpt_close_all(rhport);
 8002662:	79fb      	ldrb	r3, [r7, #7]
 8002664:	4618      	mov	r0, r3
 8002666:	f002 fcd7 	bl	8005018 <dcd_edpt_close_all>

              // close all drivers and current configured state except bus speed
              const uint8_t speed = _usbd_dev.speed;
 800266a:	4b38      	ldr	r3, [pc, #224]	@ (800274c <process_control_request+0x2c4>)
 800266c:	795b      	ldrb	r3, [r3, #5]
 800266e:	f887 304e 	strb.w	r3, [r7, #78]	@ 0x4e
              configuration_reset(rhport);
 8002672:	79fb      	ldrb	r3, [r7, #7]
 8002674:	4618      	mov	r0, r3
 8002676:	f7ff fcaf 	bl	8001fd8 <configuration_reset>

              _usbd_dev.speed = speed; // restore speed
 800267a:	4a34      	ldr	r2, [pc, #208]	@ (800274c <process_control_request+0x2c4>)
 800267c:	f897 304e 	ldrb.w	r3, [r7, #78]	@ 0x4e
 8002680:	7153      	strb	r3, [r2, #5]
            }

            _usbd_dev.cfg_num = cfg_num;
 8002682:	4a32      	ldr	r2, [pc, #200]	@ (800274c <process_control_request+0x2c4>)
 8002684:	f897 304f 	ldrb.w	r3, [r7, #79]	@ 0x4f
 8002688:	7113      	strb	r3, [r2, #4]

            // Handle the new configuration
            if (cfg_num == 0) {
 800268a:	f897 304f 	ldrb.w	r3, [r7, #79]	@ 0x4f
 800268e:	2b00      	cmp	r3, #0
 8002690:	d102      	bne.n	8002698 <process_control_request+0x210>
              tud_umount_cb();
 8002692:	f7ff fb7f 	bl	8001d94 <tud_umount_cb>
 8002696:	e01c      	b.n	80026d2 <process_control_request+0x24a>
            } else {
              if (!process_set_config(rhport, cfg_num)) {
 8002698:	f897 204f 	ldrb.w	r2, [r7, #79]	@ 0x4f
 800269c:	79fb      	ldrb	r3, [r7, #7]
 800269e:	4611      	mov	r1, r2
 80026a0:	4618      	mov	r0, r3
 80026a2:	f000 f9d1 	bl	8002a48 <process_set_config>
 80026a6:	4603      	mov	r3, r0
 80026a8:	f083 0301 	eor.w	r3, r3, #1
 80026ac:	b2db      	uxtb	r3, r3
 80026ae:	2b00      	cmp	r3, #0
 80026b0:	d00d      	beq.n	80026ce <process_control_request+0x246>
                _usbd_dev.cfg_num = 0;
 80026b2:	4b26      	ldr	r3, [pc, #152]	@ (800274c <process_control_request+0x2c4>)
 80026b4:	2200      	movs	r2, #0
 80026b6:	711a      	strb	r2, [r3, #4]
                TU_ASSERT(false);
 80026b8:	4b22      	ldr	r3, [pc, #136]	@ (8002744 <process_control_request+0x2bc>)
 80026ba:	64bb      	str	r3, [r7, #72]	@ 0x48
 80026bc:	6cbb      	ldr	r3, [r7, #72]	@ 0x48
 80026be:	681b      	ldr	r3, [r3, #0]
 80026c0:	f003 0301 	and.w	r3, r3, #1
 80026c4:	2b00      	cmp	r3, #0
 80026c6:	d000      	beq.n	80026ca <process_control_request+0x242>
 80026c8:	be00      	bkpt	0x0000
 80026ca:	2300      	movs	r3, #0
 80026cc:	e1b6      	b.n	8002a3c <process_control_request+0x5b4>
              }
              tud_mount_cb();
 80026ce:	f7ff fb5b 	bl	8001d88 <tud_mount_cb>
            }
          }

          tud_control_status(rhport, p_request);
 80026d2:	79fb      	ldrb	r3, [r7, #7]
 80026d4:	6839      	ldr	r1, [r7, #0]
 80026d6:	4618      	mov	r0, r3
 80026d8:	f001 f918 	bl	800390c <tud_control_status>
        }
        break;
 80026dc:	e055      	b.n	800278a <process_control_request+0x302>

        case TUSB_REQ_GET_DESCRIPTOR:
          TU_VERIFY(process_get_descriptor(rhport, p_request));
 80026de:	79fb      	ldrb	r3, [r7, #7]
 80026e0:	6839      	ldr	r1, [r7, #0]
 80026e2:	4618      	mov	r0, r3
 80026e4:	f000 fad8 	bl	8002c98 <process_get_descriptor>
 80026e8:	4603      	mov	r3, r0
 80026ea:	f083 0301 	eor.w	r3, r3, #1
 80026ee:	b2db      	uxtb	r3, r3
 80026f0:	2b00      	cmp	r3, #0
 80026f2:	d049      	beq.n	8002788 <process_control_request+0x300>
 80026f4:	2300      	movs	r3, #0
 80026f6:	e1a1      	b.n	8002a3c <process_control_request+0x5b4>
        break;

        case TUSB_REQ_SET_FEATURE:
          switch(p_request->wValue) { //-V2520
 80026f8:	683b      	ldr	r3, [r7, #0]
 80026fa:	885b      	ldrh	r3, [r3, #2]
 80026fc:	b29b      	uxth	r3, r3
 80026fe:	2b01      	cmp	r3, #1
 8002700:	d10b      	bne.n	800271a <process_control_request+0x292>
            case TUSB_REQ_FEATURE_REMOTE_WAKEUP:
              TU_LOG_USBD("    Enable Remote Wakeup\r\n");
              // Host may enable remote wake up before suspending especially HID device
              _usbd_dev.remote_wakeup_en = 1;
 8002702:	4a12      	ldr	r2, [pc, #72]	@ (800274c <process_control_request+0x2c4>)
 8002704:	78d3      	ldrb	r3, [r2, #3]
 8002706:	f043 0302 	orr.w	r3, r3, #2
 800270a:	70d3      	strb	r3, [r2, #3]
              tud_control_status(rhport, p_request);
 800270c:	79fb      	ldrb	r3, [r7, #7]
 800270e:	6839      	ldr	r1, [r7, #0]
 8002710:	4618      	mov	r0, r3
 8002712:	f001 f8fb 	bl	800390c <tud_control_status>
              break;
 8002716:	bf00      	nop
            #endif

            // Stall unsupported feature selector
            default: return false;
          }
        break;
 8002718:	e037      	b.n	800278a <process_control_request+0x302>
            default: return false;
 800271a:	2300      	movs	r3, #0
 800271c:	e18e      	b.n	8002a3c <process_control_request+0x5b4>

        case TUSB_REQ_CLEAR_FEATURE:
          // Only support remote wakeup for device feature
          TU_VERIFY(TUSB_REQ_FEATURE_REMOTE_WAKEUP == p_request->wValue);
 800271e:	683b      	ldr	r3, [r7, #0]
 8002720:	885b      	ldrh	r3, [r3, #2]
 8002722:	b29b      	uxth	r3, r3
 8002724:	2b01      	cmp	r3, #1
 8002726:	d001      	beq.n	800272c <process_control_request+0x2a4>
 8002728:	2300      	movs	r3, #0
 800272a:	e187      	b.n	8002a3c <process_control_request+0x5b4>
          TU_LOG_USBD("    Disable Remote Wakeup\r\n");

          // Host may disable remote wake up after resuming
          _usbd_dev.remote_wakeup_en = 0;
 800272c:	4a07      	ldr	r2, [pc, #28]	@ (800274c <process_control_request+0x2c4>)
 800272e:	78d3      	ldrb	r3, [r2, #3]
 8002730:	f023 0302 	bic.w	r3, r3, #2
 8002734:	70d3      	strb	r3, [r2, #3]
          tud_control_status(rhport, p_request);
 8002736:	79fb      	ldrb	r3, [r7, #7]
 8002738:	6839      	ldr	r1, [r7, #0]
 800273a:	4618      	mov	r0, r3
 800273c:	f001 f8e6 	bl	800390c <tud_control_status>
          break;
 8002740:	e023      	b.n	800278a <process_control_request+0x302>
 8002742:	bf00      	nop
 8002744:	e000edf0 	.word	0xe000edf0
 8002748:	08001dc1 	.word	0x08001dc1
 800274c:	20000434 	.word	0x20000434
 8002750:	20000470 	.word	0x20000470
 8002754:	2000046c 	.word	0x2000046c
 8002758:	080077fc 	.word	0x080077fc

        case TUSB_REQ_GET_STATUS: {
          // Device status bit mask
          // - Bit 0: Self Powered TODO must invoke callback to get actual status
          // - Bit 1: Remote Wakeup enabled
          uint16_t status = (uint16_t)_usbd_dev.dev_state_bm;
 800275c:	4ba5      	ldr	r3, [pc, #660]	@ (80029f4 <process_control_request+0x56c>)
 800275e:	78db      	ldrb	r3, [r3, #3]
 8002760:	823b      	strh	r3, [r7, #16]
          tud_control_xfer(rhport, p_request, &status, 2);
 8002762:	f107 0210 	add.w	r2, r7, #16
 8002766:	79f8      	ldrb	r0, [r7, #7]
 8002768:	2302      	movs	r3, #2
 800276a:	6839      	ldr	r1, [r7, #0]
 800276c:	f001 f958 	bl	8003a20 <tud_control_xfer>
          break;
 8002770:	e00b      	b.n	800278a <process_control_request+0x302>
        }

        // Unknown/Unsupported request
        default: TU_BREAKPOINT(); return false;
 8002772:	4ba1      	ldr	r3, [pc, #644]	@ (80029f8 <process_control_request+0x570>)
 8002774:	647b      	str	r3, [r7, #68]	@ 0x44
 8002776:	6c7b      	ldr	r3, [r7, #68]	@ 0x44
 8002778:	681b      	ldr	r3, [r3, #0]
 800277a:	f003 0301 	and.w	r3, r3, #1
 800277e:	2b00      	cmp	r3, #0
 8002780:	d000      	beq.n	8002784 <process_control_request+0x2fc>
 8002782:	be00      	bkpt	0x0000
 8002784:	2300      	movs	r3, #0
 8002786:	e159      	b.n	8002a3c <process_control_request+0x5b4>
        break;
 8002788:	bf00      	nop
      }
    break;
 800278a:	e156      	b.n	8002a3a <process_control_request+0x5b2>
            }
          }
        }
      }
      #endif
      itf = tu_u16_low(p_request->wIndex);
 800278c:	683b      	ldr	r3, [r7, #0]
 800278e:	889b      	ldrh	r3, [r3, #4]
 8002790:	b29b      	uxth	r3, r3
 8002792:	84fb      	strh	r3, [r7, #38]	@ 0x26
 8002794:	8cfb      	ldrh	r3, [r7, #38]	@ 0x26
 8002796:	b2db      	uxtb	r3, r3
 8002798:	f887 3057 	strb.w	r3, [r7, #87]	@ 0x57
      TU_VERIFY(itf < TU_ARRAY_SIZE(_usbd_dev.itf2drv));
 800279c:	f897 3057 	ldrb.w	r3, [r7, #87]	@ 0x57
 80027a0:	2b0f      	cmp	r3, #15
 80027a2:	d901      	bls.n	80027a8 <process_control_request+0x320>
 80027a4:	2300      	movs	r3, #0
 80027a6:	e149      	b.n	8002a3c <process_control_request+0x5b4>

      usbd_class_driver_t const * driver = get_driver(_usbd_dev.itf2drv[itf]);
 80027a8:	f897 3057 	ldrb.w	r3, [r7, #87]	@ 0x57
 80027ac:	4a91      	ldr	r2, [pc, #580]	@ (80029f4 <process_control_request+0x56c>)
 80027ae:	4413      	add	r3, r2
 80027b0:	79db      	ldrb	r3, [r3, #7]
 80027b2:	f887 3025 	strb.w	r3, [r7, #37]	@ 0x25
  usbd_class_driver_t const *driver = NULL;
 80027b6:	2300      	movs	r3, #0
 80027b8:	623b      	str	r3, [r7, #32]
  if (drvid < _app_driver_count) {
 80027ba:	4b90      	ldr	r3, [pc, #576]	@ (80029fc <process_control_request+0x574>)
 80027bc:	781b      	ldrb	r3, [r3, #0]
 80027be:	f897 2025 	ldrb.w	r2, [r7, #37]	@ 0x25
 80027c2:	429a      	cmp	r2, r3
 80027c4:	d20a      	bcs.n	80027dc <process_control_request+0x354>
    driver = &_app_driver[drvid];
 80027c6:	4b8e      	ldr	r3, [pc, #568]	@ (8002a00 <process_control_request+0x578>)
 80027c8:	6819      	ldr	r1, [r3, #0]
 80027ca:	f897 2025 	ldrb.w	r2, [r7, #37]	@ 0x25
 80027ce:	4613      	mov	r3, r2
 80027d0:	00db      	lsls	r3, r3, #3
 80027d2:	4413      	add	r3, r2
 80027d4:	009b      	lsls	r3, r3, #2
 80027d6:	440b      	add	r3, r1
 80027d8:	623b      	str	r3, [r7, #32]
 80027da:	e013      	b.n	8002804 <process_control_request+0x37c>
    drvid -= _app_driver_count;
 80027dc:	4b87      	ldr	r3, [pc, #540]	@ (80029fc <process_control_request+0x574>)
 80027de:	781b      	ldrb	r3, [r3, #0]
 80027e0:	f897 2025 	ldrb.w	r2, [r7, #37]	@ 0x25
 80027e4:	1ad3      	subs	r3, r2, r3
 80027e6:	f887 3025 	strb.w	r3, [r7, #37]	@ 0x25
    if (drvid < BUILTIN_DRIVER_COUNT) {
 80027ea:	f897 3025 	ldrb.w	r3, [r7, #37]	@ 0x25
 80027ee:	2b00      	cmp	r3, #0
 80027f0:	d108      	bne.n	8002804 <process_control_request+0x37c>
      driver = &_usbd_driver[drvid];
 80027f2:	f897 2025 	ldrb.w	r2, [r7, #37]	@ 0x25
 80027f6:	4613      	mov	r3, r2
 80027f8:	00db      	lsls	r3, r3, #3
 80027fa:	4413      	add	r3, r2
 80027fc:	009b      	lsls	r3, r3, #2
 80027fe:	4a81      	ldr	r2, [pc, #516]	@ (8002a04 <process_control_request+0x57c>)
 8002800:	4413      	add	r3, r2
 8002802:	623b      	str	r3, [r7, #32]
  return driver;
 8002804:	6a3b      	ldr	r3, [r7, #32]
      usbd_class_driver_t const * driver = get_driver(_usbd_dev.itf2drv[itf]);
 8002806:	653b      	str	r3, [r7, #80]	@ 0x50
      TU_VERIFY(driver);
 8002808:	6d3b      	ldr	r3, [r7, #80]	@ 0x50
 800280a:	2b00      	cmp	r3, #0
 800280c:	d101      	bne.n	8002812 <process_control_request+0x38a>
 800280e:	2300      	movs	r3, #0
 8002810:	e114      	b.n	8002a3c <process_control_request+0x5b4>

      // all requests to Interface (STD or Class) is forwarded to class driver.
      // notable requests are: GET HID REPORT DESCRIPTOR, SET_INTERFACE, GET_INTERFACE
      if (!invoke_class_control(rhport, driver, p_request)) {
 8002812:	79fb      	ldrb	r3, [r7, #7]
 8002814:	683a      	ldr	r2, [r7, #0]
 8002816:	6d39      	ldr	r1, [r7, #80]	@ 0x50
 8002818:	4618      	mov	r0, r3
 800281a:	f7ff fe1d 	bl	8002458 <invoke_class_control>
 800281e:	4603      	mov	r3, r0
 8002820:	f083 0301 	eor.w	r3, r3, #1
 8002824:	b2db      	uxtb	r3, r3
 8002826:	2b00      	cmp	r3, #0
 8002828:	f000 8106 	beq.w	8002a38 <process_control_request+0x5b0>
        // For GET_INTERFACE and SET_INTERFACE, it is mandatory to respond even if the class
        // driver doesn't use alternate settings or implement this
        TU_VERIFY(TUSB_REQ_TYPE_STANDARD == p_request->bmRequestType_bit.type);
 800282c:	683b      	ldr	r3, [r7, #0]
 800282e:	781b      	ldrb	r3, [r3, #0]
 8002830:	f003 0360 	and.w	r3, r3, #96	@ 0x60
 8002834:	b2db      	uxtb	r3, r3
 8002836:	2b00      	cmp	r3, #0
 8002838:	d001      	beq.n	800283e <process_control_request+0x3b6>
 800283a:	2300      	movs	r3, #0
 800283c:	e0fe      	b.n	8002a3c <process_control_request+0x5b4>

        // Clear complete callback if driver set since it can also stall the request.
        usbd_control_set_complete_callback(NULL);
 800283e:	2000      	movs	r0, #0
 8002840:	f001 f96a 	bl	8003b18 <usbd_control_set_complete_callback>

        switch (p_request->bRequest) { //-V2520
 8002844:	683b      	ldr	r3, [r7, #0]
 8002846:	785b      	ldrb	r3, [r3, #1]
 8002848:	2b0a      	cmp	r3, #10
 800284a:	d002      	beq.n	8002852 <process_control_request+0x3ca>
 800284c:	2b0b      	cmp	r3, #11
 800284e:	d00a      	beq.n	8002866 <process_control_request+0x3de>
 8002850:	e00f      	b.n	8002872 <process_control_request+0x3ea>
          case TUSB_REQ_GET_INTERFACE: {
            uint8_t alternate = 0;
 8002852:	2300      	movs	r3, #0
 8002854:	73fb      	strb	r3, [r7, #15]
            tud_control_xfer(rhport, p_request, &alternate, 1);
 8002856:	f107 020f 	add.w	r2, r7, #15
 800285a:	79f8      	ldrb	r0, [r7, #7]
 800285c:	2301      	movs	r3, #1
 800285e:	6839      	ldr	r1, [r7, #0]
 8002860:	f001 f8de 	bl	8003a20 <tud_control_xfer>
            break;
 8002864:	e007      	b.n	8002876 <process_control_request+0x3ee>
          }

          case TUSB_REQ_SET_INTERFACE:
            tud_control_status(rhport, p_request);
 8002866:	79fb      	ldrb	r3, [r7, #7]
 8002868:	6839      	ldr	r1, [r7, #0]
 800286a:	4618      	mov	r0, r3
 800286c:	f001 f84e 	bl	800390c <tud_control_status>
            break;
 8002870:	e001      	b.n	8002876 <process_control_request+0x3ee>

          default: return false;
 8002872:	2300      	movs	r3, #0
 8002874:	e0e2      	b.n	8002a3c <process_control_request+0x5b4>
        }
      }
      break;
 8002876:	e0df      	b.n	8002a38 <process_control_request+0x5b0>
    }

    //------------- Endpoint Request -------------//
    case TUSB_REQ_RCPT_ENDPOINT: {
      uint8_t const ep_addr = tu_u16_low(p_request->wIndex);
 8002878:	683b      	ldr	r3, [r7, #0]
 800287a:	889b      	ldrh	r3, [r3, #4]
 800287c:	b29b      	uxth	r3, r3
 800287e:	83bb      	strh	r3, [r7, #28]
 8002880:	8bbb      	ldrh	r3, [r7, #28]
 8002882:	b2db      	uxtb	r3, r3
 8002884:	f887 3067 	strb.w	r3, [r7, #103]	@ 0x67
 8002888:	f897 3067 	ldrb.w	r3, [r7, #103]	@ 0x67
 800288c:	77bb      	strb	r3, [r7, #30]
  return (uint8_t) (addr & TUSB_EPNUM_MASK);
 800288e:	7fbb      	ldrb	r3, [r7, #30]
 8002890:	f003 030f 	and.w	r3, r3, #15
 8002894:	b2db      	uxtb	r3, r3
      uint8_t const ep_num  = tu_edpt_number(ep_addr);
 8002896:	f887 3066 	strb.w	r3, [r7, #102]	@ 0x66
 800289a:	f897 3067 	ldrb.w	r3, [r7, #103]	@ 0x67
 800289e:	77fb      	strb	r3, [r7, #31]
  return (addr & TUSB_DIR_IN_MASK) ? TUSB_DIR_IN : TUSB_DIR_OUT;
 80028a0:	7ffb      	ldrb	r3, [r7, #31]
 80028a2:	09db      	lsrs	r3, r3, #7
 80028a4:	b2db      	uxtb	r3, r3
      uint8_t const ep_dir  = tu_edpt_dir(ep_addr);
 80028a6:	f887 3065 	strb.w	r3, [r7, #101]	@ 0x65

      TU_ASSERT(ep_num < TU_ARRAY_SIZE(_usbd_dev.ep2drv) );
 80028aa:	f897 3066 	ldrb.w	r3, [r7, #102]	@ 0x66
 80028ae:	2b07      	cmp	r3, #7
 80028b0:	d90a      	bls.n	80028c8 <process_control_request+0x440>
 80028b2:	4b51      	ldr	r3, [pc, #324]	@ (80029f8 <process_control_request+0x570>)
 80028b4:	65bb      	str	r3, [r7, #88]	@ 0x58
 80028b6:	6dbb      	ldr	r3, [r7, #88]	@ 0x58
 80028b8:	681b      	ldr	r3, [r3, #0]
 80028ba:	f003 0301 	and.w	r3, r3, #1
 80028be:	2b00      	cmp	r3, #0
 80028c0:	d000      	beq.n	80028c4 <process_control_request+0x43c>
 80028c2:	be00      	bkpt	0x0000
 80028c4:	2300      	movs	r3, #0
 80028c6:	e0b9      	b.n	8002a3c <process_control_request+0x5b4>
      usbd_class_driver_t const * driver = get_driver(_usbd_dev.ep2drv[ep_num][ep_dir]);
 80028c8:	f897 2066 	ldrb.w	r2, [r7, #102]	@ 0x66
 80028cc:	f897 3065 	ldrb.w	r3, [r7, #101]	@ 0x65
 80028d0:	4948      	ldr	r1, [pc, #288]	@ (80029f4 <process_control_request+0x56c>)
 80028d2:	0052      	lsls	r2, r2, #1
 80028d4:	440a      	add	r2, r1
 80028d6:	4413      	add	r3, r2
 80028d8:	3317      	adds	r3, #23
 80028da:	781b      	ldrb	r3, [r3, #0]
 80028dc:	76fb      	strb	r3, [r7, #27]
  usbd_class_driver_t const *driver = NULL;
 80028de:	2300      	movs	r3, #0
 80028e0:	617b      	str	r3, [r7, #20]
  if (drvid < _app_driver_count) {
 80028e2:	4b46      	ldr	r3, [pc, #280]	@ (80029fc <process_control_request+0x574>)
 80028e4:	781b      	ldrb	r3, [r3, #0]
 80028e6:	7efa      	ldrb	r2, [r7, #27]
 80028e8:	429a      	cmp	r2, r3
 80028ea:	d209      	bcs.n	8002900 <process_control_request+0x478>
    driver = &_app_driver[drvid];
 80028ec:	4b44      	ldr	r3, [pc, #272]	@ (8002a00 <process_control_request+0x578>)
 80028ee:	6819      	ldr	r1, [r3, #0]
 80028f0:	7efa      	ldrb	r2, [r7, #27]
 80028f2:	4613      	mov	r3, r2
 80028f4:	00db      	lsls	r3, r3, #3
 80028f6:	4413      	add	r3, r2
 80028f8:	009b      	lsls	r3, r3, #2
 80028fa:	440b      	add	r3, r1
 80028fc:	617b      	str	r3, [r7, #20]
 80028fe:	e00f      	b.n	8002920 <process_control_request+0x498>
    drvid -= _app_driver_count;
 8002900:	4b3e      	ldr	r3, [pc, #248]	@ (80029fc <process_control_request+0x574>)
 8002902:	781b      	ldrb	r3, [r3, #0]
 8002904:	7efa      	ldrb	r2, [r7, #27]
 8002906:	1ad3      	subs	r3, r2, r3
 8002908:	76fb      	strb	r3, [r7, #27]
    if (drvid < BUILTIN_DRIVER_COUNT) {
 800290a:	7efb      	ldrb	r3, [r7, #27]
 800290c:	2b00      	cmp	r3, #0
 800290e:	d107      	bne.n	8002920 <process_control_request+0x498>
      driver = &_usbd_driver[drvid];
 8002910:	7efa      	ldrb	r2, [r7, #27]
 8002912:	4613      	mov	r3, r2
 8002914:	00db      	lsls	r3, r3, #3
 8002916:	4413      	add	r3, r2
 8002918:	009b      	lsls	r3, r3, #2
 800291a:	4a3a      	ldr	r2, [pc, #232]	@ (8002a04 <process_control_request+0x57c>)
 800291c:	4413      	add	r3, r2
 800291e:	617b      	str	r3, [r7, #20]
  return driver;
 8002920:	697b      	ldr	r3, [r7, #20]
      usbd_class_driver_t const * driver = get_driver(_usbd_dev.ep2drv[ep_num][ep_dir]);
 8002922:	663b      	str	r3, [r7, #96]	@ 0x60

      if (TUSB_REQ_TYPE_STANDARD != p_request->bmRequestType_bit.type) {
 8002924:	683b      	ldr	r3, [r7, #0]
 8002926:	781b      	ldrb	r3, [r3, #0]
 8002928:	f003 0360 	and.w	r3, r3, #96	@ 0x60
 800292c:	b2db      	uxtb	r3, r3
 800292e:	2b00      	cmp	r3, #0
 8002930:	d00c      	beq.n	800294c <process_control_request+0x4c4>
        // Forward class request to its driver
        TU_VERIFY(driver);
 8002932:	6e3b      	ldr	r3, [r7, #96]	@ 0x60
 8002934:	2b00      	cmp	r3, #0
 8002936:	d101      	bne.n	800293c <process_control_request+0x4b4>
 8002938:	2300      	movs	r3, #0
 800293a:	e07f      	b.n	8002a3c <process_control_request+0x5b4>
        return invoke_class_control(rhport, driver, p_request);
 800293c:	79fb      	ldrb	r3, [r7, #7]
 800293e:	683a      	ldr	r2, [r7, #0]
 8002940:	6e39      	ldr	r1, [r7, #96]	@ 0x60
 8002942:	4618      	mov	r0, r3
 8002944:	f7ff fd88 	bl	8002458 <invoke_class_control>
 8002948:	4603      	mov	r3, r0
 800294a:	e077      	b.n	8002a3c <process_control_request+0x5b4>
      } else {
        // Handle STD request to endpoint
        switch (p_request->bRequest) { //-V2520
 800294c:	683b      	ldr	r3, [r7, #0]
 800294e:	785b      	ldrb	r3, [r3, #1]
 8002950:	2b03      	cmp	r3, #3
 8002952:	d01c      	beq.n	800298e <process_control_request+0x506>
 8002954:	2b03      	cmp	r3, #3
 8002956:	dc57      	bgt.n	8002a08 <process_control_request+0x580>
 8002958:	2b00      	cmp	r3, #0
 800295a:	d002      	beq.n	8002962 <process_control_request+0x4da>
 800295c:	2b01      	cmp	r3, #1
 800295e:	d016      	beq.n	800298e <process_control_request+0x506>
 8002960:	e052      	b.n	8002a08 <process_control_request+0x580>
          case TUSB_REQ_GET_STATUS: {
            uint16_t status = usbd_edpt_stalled(rhport, ep_addr) ? 0x0001u : 0x0000u;
 8002962:	f897 2067 	ldrb.w	r2, [r7, #103]	@ 0x67
 8002966:	79fb      	ldrb	r3, [r7, #7]
 8002968:	4611      	mov	r1, r2
 800296a:	4618      	mov	r0, r3
 800296c:	f000 ff84 	bl	8003878 <usbd_edpt_stalled>
 8002970:	4603      	mov	r3, r0
 8002972:	2b00      	cmp	r3, #0
 8002974:	d001      	beq.n	800297a <process_control_request+0x4f2>
 8002976:	2301      	movs	r3, #1
 8002978:	e000      	b.n	800297c <process_control_request+0x4f4>
 800297a:	2300      	movs	r3, #0
 800297c:	81bb      	strh	r3, [r7, #12]
            tud_control_xfer(rhport, p_request, &status, 2);
 800297e:	f107 020c 	add.w	r2, r7, #12
 8002982:	79f8      	ldrb	r0, [r7, #7]
 8002984:	2302      	movs	r3, #2
 8002986:	6839      	ldr	r1, [r7, #0]
 8002988:	f001 f84a 	bl	8003a20 <tud_control_xfer>
          }
          break;
 800298c:	e048      	b.n	8002a20 <process_control_request+0x598>

          case TUSB_REQ_CLEAR_FEATURE:
          case TUSB_REQ_SET_FEATURE: {
            if ( TUSB_REQ_FEATURE_EDPT_HALT == p_request->wValue ) {
 800298e:	683b      	ldr	r3, [r7, #0]
 8002990:	885b      	ldrh	r3, [r3, #2]
 8002992:	b29b      	uxth	r3, r3
 8002994:	2b00      	cmp	r3, #0
 8002996:	d112      	bne.n	80029be <process_control_request+0x536>
              if ( TUSB_REQ_CLEAR_FEATURE ==  p_request->bRequest ) {
 8002998:	683b      	ldr	r3, [r7, #0]
 800299a:	785b      	ldrb	r3, [r3, #1]
 800299c:	2b01      	cmp	r3, #1
 800299e:	d107      	bne.n	80029b0 <process_control_request+0x528>
                usbd_edpt_clear_stall(rhport, ep_addr);
 80029a0:	f897 2067 	ldrb.w	r2, [r7, #103]	@ 0x67
 80029a4:	79fb      	ldrb	r3, [r7, #7]
 80029a6:	4611      	mov	r1, r2
 80029a8:	4618      	mov	r0, r3
 80029aa:	f000 ff27 	bl	80037fc <usbd_edpt_clear_stall>
 80029ae:	e006      	b.n	80029be <process_control_request+0x536>
              }else {
                usbd_edpt_stall(rhport, ep_addr);
 80029b0:	f897 2067 	ldrb.w	r2, [r7, #103]	@ 0x67
 80029b4:	79fb      	ldrb	r3, [r7, #7]
 80029b6:	4611      	mov	r1, r2
 80029b8:	4618      	mov	r0, r3
 80029ba:	f000 fee1 	bl	8003780 <usbd_edpt_stall>
              }
            }

            if (driver != NULL) {
 80029be:	6e3b      	ldr	r3, [r7, #96]	@ 0x60
 80029c0:	2b00      	cmp	r3, #0
 80029c2:	d02c      	beq.n	8002a1e <process_control_request+0x596>
              // Some classes such as USBTMC needs to clear/re-init its buffer when receiving CLEAR_FEATURE request
              // We will also forward std request targeted endpoint to class drivers as well

              // STD request must always be ACKed regardless of driver returned value
              // Also clear complete callback if driver set since it can also stall the request.
              (void) invoke_class_control(rhport, driver, p_request);
 80029c4:	79fb      	ldrb	r3, [r7, #7]
 80029c6:	683a      	ldr	r2, [r7, #0]
 80029c8:	6e39      	ldr	r1, [r7, #96]	@ 0x60
 80029ca:	4618      	mov	r0, r3
 80029cc:	f7ff fd44 	bl	8002458 <invoke_class_control>
              usbd_control_set_complete_callback(NULL);
 80029d0:	2000      	movs	r0, #0
 80029d2:	f001 f8a1 	bl	8003b18 <usbd_control_set_complete_callback>

              // skip ZLP status if driver already did that
              if (!_usbd_dev.ep_status[0][TUSB_DIR_IN].busy) {
 80029d6:	4b07      	ldr	r3, [pc, #28]	@ (80029f4 <process_control_request+0x56c>)
 80029d8:	f893 3028 	ldrb.w	r3, [r3, #40]	@ 0x28
 80029dc:	f3c3 0300 	ubfx	r3, r3, #0, #1
 80029e0:	b2db      	uxtb	r3, r3
 80029e2:	2b00      	cmp	r3, #0
 80029e4:	d11b      	bne.n	8002a1e <process_control_request+0x596>
                tud_control_status(rhport, p_request);
 80029e6:	79fb      	ldrb	r3, [r7, #7]
 80029e8:	6839      	ldr	r1, [r7, #0]
 80029ea:	4618      	mov	r0, r3
 80029ec:	f000 ff8e 	bl	800390c <tud_control_status>
              }
            }
          }
          break;
 80029f0:	e015      	b.n	8002a1e <process_control_request+0x596>
 80029f2:	bf00      	nop
 80029f4:	20000434 	.word	0x20000434
 80029f8:	e000edf0 	.word	0xe000edf0
 80029fc:	20000470 	.word	0x20000470
 8002a00:	2000046c 	.word	0x2000046c
 8002a04:	080077fc 	.word	0x080077fc

          // Unknown/Unsupported request
          default:
            TU_BREAKPOINT();
 8002a08:	4b0e      	ldr	r3, [pc, #56]	@ (8002a44 <process_control_request+0x5bc>)
 8002a0a:	65fb      	str	r3, [r7, #92]	@ 0x5c
 8002a0c:	6dfb      	ldr	r3, [r7, #92]	@ 0x5c
 8002a0e:	681b      	ldr	r3, [r3, #0]
 8002a10:	f003 0301 	and.w	r3, r3, #1
 8002a14:	2b00      	cmp	r3, #0
 8002a16:	d000      	beq.n	8002a1a <process_control_request+0x592>
 8002a18:	be00      	bkpt	0x0000
            return false;
 8002a1a:	2300      	movs	r3, #0
 8002a1c:	e00e      	b.n	8002a3c <process_control_request+0x5b4>
          break;
 8002a1e:	bf00      	nop
        }
      }
      break;
 8002a20:	e00b      	b.n	8002a3a <process_control_request+0x5b2>
    }

    // Unknown recipient
    default:
      TU_BREAKPOINT();
 8002a22:	4b08      	ldr	r3, [pc, #32]	@ (8002a44 <process_control_request+0x5bc>)
 8002a24:	637b      	str	r3, [r7, #52]	@ 0x34
 8002a26:	6b7b      	ldr	r3, [r7, #52]	@ 0x34
 8002a28:	681b      	ldr	r3, [r3, #0]
 8002a2a:	f003 0301 	and.w	r3, r3, #1
 8002a2e:	2b00      	cmp	r3, #0
 8002a30:	d000      	beq.n	8002a34 <process_control_request+0x5ac>
 8002a32:	be00      	bkpt	0x0000
      return false;
 8002a34:	2300      	movs	r3, #0
 8002a36:	e001      	b.n	8002a3c <process_control_request+0x5b4>
      break;
 8002a38:	bf00      	nop
  }

  return true;
 8002a3a:	2301      	movs	r3, #1
}
 8002a3c:	4618      	mov	r0, r3
 8002a3e:	3768      	adds	r7, #104	@ 0x68
 8002a40:	46bd      	mov	sp, r7
 8002a42:	bd80      	pop	{r7, pc}
 8002a44:	e000edf0 	.word	0xe000edf0

08002a48 <process_set_config>:

// Process Set Configure Request
// This function parse configuration descriptor & open drivers accordingly
static bool process_set_config(uint8_t rhport, uint8_t cfg_num) {
 8002a48:	b580      	push	{r7, lr}
 8002a4a:	b09c      	sub	sp, #112	@ 0x70
 8002a4c:	af02      	add	r7, sp, #8
 8002a4e:	4603      	mov	r3, r0
 8002a50:	460a      	mov	r2, r1
 8002a52:	71fb      	strb	r3, [r7, #7]
 8002a54:	4613      	mov	r3, r2
 8002a56:	71bb      	strb	r3, [r7, #6]
  // index is cfg_num-1
  const tusb_desc_configuration_t *desc_cfg =
    (const tusb_desc_configuration_t *)tud_descriptor_configuration_cb(cfg_num - 1);
 8002a58:	79bb      	ldrb	r3, [r7, #6]
 8002a5a:	3b01      	subs	r3, #1
 8002a5c:	b2db      	uxtb	r3, r3
 8002a5e:	4618      	mov	r0, r3
 8002a60:	f7fd fde8 	bl	8000634 <tud_descriptor_configuration_cb>
 8002a64:	65f8      	str	r0, [r7, #92]	@ 0x5c
  TU_ASSERT(desc_cfg != NULL && desc_cfg->bDescriptorType == TUSB_DESC_CONFIGURATION);
 8002a66:	6dfb      	ldr	r3, [r7, #92]	@ 0x5c
 8002a68:	2b00      	cmp	r3, #0
 8002a6a:	d003      	beq.n	8002a74 <process_set_config+0x2c>
 8002a6c:	6dfb      	ldr	r3, [r7, #92]	@ 0x5c
 8002a6e:	785b      	ldrb	r3, [r3, #1]
 8002a70:	2b02      	cmp	r3, #2
 8002a72:	d00a      	beq.n	8002a8a <process_set_config+0x42>
 8002a74:	4b81      	ldr	r3, [pc, #516]	@ (8002c7c <process_set_config+0x234>)
 8002a76:	637b      	str	r3, [r7, #52]	@ 0x34
 8002a78:	6b7b      	ldr	r3, [r7, #52]	@ 0x34
 8002a7a:	681b      	ldr	r3, [r3, #0]
 8002a7c:	f003 0301 	and.w	r3, r3, #1
 8002a80:	2b00      	cmp	r3, #0
 8002a82:	d000      	beq.n	8002a86 <process_set_config+0x3e>
 8002a84:	be00      	bkpt	0x0000
 8002a86:	2300      	movs	r3, #0
 8002a88:	e0f4      	b.n	8002c74 <process_set_config+0x22c>

  // Parse configuration descriptor
  _usbd_dev.self_powered = (desc_cfg->bmAttributes & TUSB_DESC_CONFIG_ATT_SELF_POWERED) ? 1u : 0u;
 8002a8a:	6dfb      	ldr	r3, [r7, #92]	@ 0x5c
 8002a8c:	79db      	ldrb	r3, [r3, #7]
 8002a8e:	119b      	asrs	r3, r3, #6
 8002a90:	f003 0301 	and.w	r3, r3, #1
 8002a94:	b2d9      	uxtb	r1, r3
 8002a96:	4a7a      	ldr	r2, [pc, #488]	@ (8002c80 <process_set_config+0x238>)
 8002a98:	78d3      	ldrb	r3, [r2, #3]
 8002a9a:	f361 0300 	bfi	r3, r1, #0, #1
 8002a9e:	70d3      	strb	r3, [r2, #3]

  // Parse interface descriptor
  const uint8_t *p_desc   = ((const uint8_t *)desc_cfg) + sizeof(tusb_desc_configuration_t);
 8002aa0:	6dfb      	ldr	r3, [r7, #92]	@ 0x5c
 8002aa2:	3309      	adds	r3, #9
 8002aa4:	667b      	str	r3, [r7, #100]	@ 0x64
  const uint8_t *desc_end = ((const uint8_t *)desc_cfg) + tu_le16toh(desc_cfg->wTotalLength);
 8002aa6:	6dfb      	ldr	r3, [r7, #92]	@ 0x5c
 8002aa8:	885b      	ldrh	r3, [r3, #2]
 8002aaa:	b29b      	uxth	r3, r3
 8002aac:	461a      	mov	r2, r3
 8002aae:	6dfb      	ldr	r3, [r7, #92]	@ 0x5c
 8002ab0:	4413      	add	r3, r2
 8002ab2:	65bb      	str	r3, [r7, #88]	@ 0x58

  while (tu_desc_in_bounds(p_desc, desc_end)) {
 8002ab4:	e0c0      	b.n	8002c38 <process_set_config+0x1f0>
 8002ab6:	6e7b      	ldr	r3, [r7, #100]	@ 0x64
 8002ab8:	633b      	str	r3, [r7, #48]	@ 0x30
  return ((uint8_t const*) desc)[DESC_OFFSET_TYPE];
 8002aba:	6b3b      	ldr	r3, [r7, #48]	@ 0x30
 8002abc:	3301      	adds	r3, #1
 8002abe:	781b      	ldrb	r3, [r3, #0]
    // Class will always start with Interface Association (if any) and then Interface descriptor
    if (TUSB_DESC_INTERFACE_ASSOCIATION == tu_desc_type(p_desc)) {
 8002ac0:	2b0b      	cmp	r3, #11
 8002ac2:	d10a      	bne.n	8002ada <process_set_config+0x92>
 8002ac4:	6e7b      	ldr	r3, [r7, #100]	@ 0x64
 8002ac6:	62fb      	str	r3, [r7, #44]	@ 0x2c
  uint8_t const* desc8 = (uint8_t const*) desc;
 8002ac8:	6afb      	ldr	r3, [r7, #44]	@ 0x2c
 8002aca:	62bb      	str	r3, [r7, #40]	@ 0x28
  return desc8 + desc8[DESC_OFFSET_LEN];
 8002acc:	6abb      	ldr	r3, [r7, #40]	@ 0x28
 8002ace:	781b      	ldrb	r3, [r3, #0]
 8002ad0:	461a      	mov	r2, r3
 8002ad2:	6abb      	ldr	r3, [r7, #40]	@ 0x28
 8002ad4:	4413      	add	r3, r2
      p_desc = tu_desc_next(p_desc); // next to Interface
 8002ad6:	667b      	str	r3, [r7, #100]	@ 0x64
      continue;
 8002ad8:	e0ae      	b.n	8002c38 <process_set_config+0x1f0>
 8002ada:	6e7b      	ldr	r3, [r7, #100]	@ 0x64
 8002adc:	627b      	str	r3, [r7, #36]	@ 0x24
  return ((uint8_t const*) desc)[DESC_OFFSET_TYPE];
 8002ade:	6a7b      	ldr	r3, [r7, #36]	@ 0x24
 8002ae0:	3301      	adds	r3, #1
 8002ae2:	781b      	ldrb	r3, [r3, #0]
    }

    TU_ASSERT(TUSB_DESC_INTERFACE == tu_desc_type(p_desc));
 8002ae4:	2b04      	cmp	r3, #4
 8002ae6:	d00a      	beq.n	8002afe <process_set_config+0xb6>
 8002ae8:	4b64      	ldr	r3, [pc, #400]	@ (8002c7c <process_set_config+0x234>)
 8002aea:	63bb      	str	r3, [r7, #56]	@ 0x38
 8002aec:	6bbb      	ldr	r3, [r7, #56]	@ 0x38
 8002aee:	681b      	ldr	r3, [r3, #0]
 8002af0:	f003 0301 	and.w	r3, r3, #1
 8002af4:	2b00      	cmp	r3, #0
 8002af6:	d000      	beq.n	8002afa <process_set_config+0xb2>
 8002af8:	be00      	bkpt	0x0000
 8002afa:	2300      	movs	r3, #0
 8002afc:	e0ba      	b.n	8002c74 <process_set_config+0x22c>
    const tusb_desc_interface_t *desc_itf = (const tusb_desc_interface_t *)p_desc;
 8002afe:	6e7b      	ldr	r3, [r7, #100]	@ 0x64
 8002b00:	657b      	str	r3, [r7, #84]	@ 0x54

    // Find driver for this interface
    const uint16_t remaining_len = (uint16_t)(desc_end - p_desc);
 8002b02:	6dba      	ldr	r2, [r7, #88]	@ 0x58
 8002b04:	6e7b      	ldr	r3, [r7, #100]	@ 0x64
 8002b06:	1ad3      	subs	r3, r2, r3
 8002b08:	f8a7 3052 	strh.w	r3, [r7, #82]	@ 0x52
    uint8_t        drv_id;
    for (drv_id = 0; drv_id < TOTAL_DRIVER_COUNT; drv_id++) {
 8002b0c:	2300      	movs	r3, #0
 8002b0e:	f887 3063 	strb.w	r3, [r7, #99]	@ 0x63
 8002b12:	e076      	b.n	8002c02 <process_set_config+0x1ba>
 8002b14:	f897 3063 	ldrb.w	r3, [r7, #99]	@ 0x63
 8002b18:	f887 3023 	strb.w	r3, [r7, #35]	@ 0x23
  usbd_class_driver_t const *driver = NULL;
 8002b1c:	2300      	movs	r3, #0
 8002b1e:	61fb      	str	r3, [r7, #28]
  if (drvid < _app_driver_count) {
 8002b20:	4b58      	ldr	r3, [pc, #352]	@ (8002c84 <process_set_config+0x23c>)
 8002b22:	781b      	ldrb	r3, [r3, #0]
 8002b24:	f897 2023 	ldrb.w	r2, [r7, #35]	@ 0x23
 8002b28:	429a      	cmp	r2, r3
 8002b2a:	d20a      	bcs.n	8002b42 <process_set_config+0xfa>
    driver = &_app_driver[drvid];
 8002b2c:	4b56      	ldr	r3, [pc, #344]	@ (8002c88 <process_set_config+0x240>)
 8002b2e:	6819      	ldr	r1, [r3, #0]
 8002b30:	f897 2023 	ldrb.w	r2, [r7, #35]	@ 0x23
 8002b34:	4613      	mov	r3, r2
 8002b36:	00db      	lsls	r3, r3, #3
 8002b38:	4413      	add	r3, r2
 8002b3a:	009b      	lsls	r3, r3, #2
 8002b3c:	440b      	add	r3, r1
 8002b3e:	61fb      	str	r3, [r7, #28]
 8002b40:	e013      	b.n	8002b6a <process_set_config+0x122>
    drvid -= _app_driver_count;
 8002b42:	4b50      	ldr	r3, [pc, #320]	@ (8002c84 <process_set_config+0x23c>)
 8002b44:	781b      	ldrb	r3, [r3, #0]
 8002b46:	f897 2023 	ldrb.w	r2, [r7, #35]	@ 0x23
 8002b4a:	1ad3      	subs	r3, r2, r3
 8002b4c:	f887 3023 	strb.w	r3, [r7, #35]	@ 0x23
    if (drvid < BUILTIN_DRIVER_COUNT) {
 8002b50:	f897 3023 	ldrb.w	r3, [r7, #35]	@ 0x23
 8002b54:	2b00      	cmp	r3, #0
 8002b56:	d108      	bne.n	8002b6a <process_set_config+0x122>
      driver = &_usbd_driver[drvid];
 8002b58:	f897 2023 	ldrb.w	r2, [r7, #35]	@ 0x23
 8002b5c:	4613      	mov	r3, r2
 8002b5e:	00db      	lsls	r3, r3, #3
 8002b60:	4413      	add	r3, r2
 8002b62:	009b      	lsls	r3, r3, #2
 8002b64:	4a49      	ldr	r2, [pc, #292]	@ (8002c8c <process_set_config+0x244>)
 8002b66:	4413      	add	r3, r2
 8002b68:	61fb      	str	r3, [r7, #28]
  return driver;
 8002b6a:	69fb      	ldr	r3, [r7, #28]
      const usbd_class_driver_t *driver = get_driver(drv_id);
 8002b6c:	64fb      	str	r3, [r7, #76]	@ 0x4c
      TU_ASSERT(driver);
 8002b6e:	6cfb      	ldr	r3, [r7, #76]	@ 0x4c
 8002b70:	2b00      	cmp	r3, #0
 8002b72:	d10a      	bne.n	8002b8a <process_set_config+0x142>
 8002b74:	4b41      	ldr	r3, [pc, #260]	@ (8002c7c <process_set_config+0x234>)
 8002b76:	643b      	str	r3, [r7, #64]	@ 0x40
 8002b78:	6c3b      	ldr	r3, [r7, #64]	@ 0x40
 8002b7a:	681b      	ldr	r3, [r3, #0]
 8002b7c:	f003 0301 	and.w	r3, r3, #1
 8002b80:	2b00      	cmp	r3, #0
 8002b82:	d000      	beq.n	8002b86 <process_set_config+0x13e>
 8002b84:	be00      	bkpt	0x0000
 8002b86:	2300      	movs	r3, #0
 8002b88:	e074      	b.n	8002c74 <process_set_config+0x22c>
      const uint16_t drv_len = driver->open(rhport, desc_itf, remaining_len);
 8002b8a:	6cfb      	ldr	r3, [r7, #76]	@ 0x4c
 8002b8c:	691b      	ldr	r3, [r3, #16]
 8002b8e:	f8b7 2052 	ldrh.w	r2, [r7, #82]	@ 0x52
 8002b92:	79f8      	ldrb	r0, [r7, #7]
 8002b94:	6d79      	ldr	r1, [r7, #84]	@ 0x54
 8002b96:	4798      	blx	r3
 8002b98:	4603      	mov	r3, r0
 8002b9a:	f8a7 304a 	strh.w	r3, [r7, #74]	@ 0x4a

      if ((sizeof(tusb_desc_interface_t) <= drv_len) && (drv_len <= remaining_len)) {
 8002b9e:	f8b7 304a 	ldrh.w	r3, [r7, #74]	@ 0x4a
 8002ba2:	2b08      	cmp	r3, #8
 8002ba4:	d928      	bls.n	8002bf8 <process_set_config+0x1b0>
 8002ba6:	f8b7 204a 	ldrh.w	r2, [r7, #74]	@ 0x4a
 8002baa:	f8b7 3052 	ldrh.w	r3, [r7, #82]	@ 0x52
 8002bae:	429a      	cmp	r2, r3
 8002bb0:	d822      	bhi.n	8002bf8 <process_set_config+0x1b0>
        // Open successfully
        TU_LOG_USBD("  %s opened\r\n", driver->name);

        // bind found driver to all interfaces and endpoint within drv_len
        TU_ASSERT(tu_bind_driver_to_ep_itf(drv_id, _usbd_dev.ep2drv, _usbd_dev.itf2drv, CFG_TUD_INTERFACE_MAX, p_desc,
 8002bb2:	f897 0063 	ldrb.w	r0, [r7, #99]	@ 0x63
 8002bb6:	f8b7 304a 	ldrh.w	r3, [r7, #74]	@ 0x4a
 8002bba:	9301      	str	r3, [sp, #4]
 8002bbc:	6e7b      	ldr	r3, [r7, #100]	@ 0x64
 8002bbe:	9300      	str	r3, [sp, #0]
 8002bc0:	2310      	movs	r3, #16
 8002bc2:	4a33      	ldr	r2, [pc, #204]	@ (8002c90 <process_set_config+0x248>)
 8002bc4:	4933      	ldr	r1, [pc, #204]	@ (8002c94 <process_set_config+0x24c>)
 8002bc6:	f003 f82b 	bl	8005c20 <tu_bind_driver_to_ep_itf>
 8002bca:	4603      	mov	r3, r0
 8002bcc:	f083 0301 	eor.w	r3, r3, #1
 8002bd0:	b2db      	uxtb	r3, r3
 8002bd2:	2b00      	cmp	r3, #0
 8002bd4:	d00a      	beq.n	8002bec <process_set_config+0x1a4>
 8002bd6:	4b29      	ldr	r3, [pc, #164]	@ (8002c7c <process_set_config+0x234>)
 8002bd8:	647b      	str	r3, [r7, #68]	@ 0x44
 8002bda:	6c7b      	ldr	r3, [r7, #68]	@ 0x44
 8002bdc:	681b      	ldr	r3, [r3, #0]
 8002bde:	f003 0301 	and.w	r3, r3, #1
 8002be2:	2b00      	cmp	r3, #0
 8002be4:	d000      	beq.n	8002be8 <process_set_config+0x1a0>
 8002be6:	be00      	bkpt	0x0000
 8002be8:	2300      	movs	r3, #0
 8002bea:	e043      	b.n	8002c74 <process_set_config+0x22c>
                                           drv_len));

        p_desc += drv_len; // next Interface
 8002bec:	f8b7 304a 	ldrh.w	r3, [r7, #74]	@ 0x4a
 8002bf0:	6e7a      	ldr	r2, [r7, #100]	@ 0x64
 8002bf2:	4413      	add	r3, r2
 8002bf4:	667b      	str	r3, [r7, #100]	@ 0x64
        break; // exit driver find loop
 8002bf6:	e00c      	b.n	8002c12 <process_set_config+0x1ca>
    for (drv_id = 0; drv_id < TOTAL_DRIVER_COUNT; drv_id++) {
 8002bf8:	f897 3063 	ldrb.w	r3, [r7, #99]	@ 0x63
 8002bfc:	3301      	adds	r3, #1
 8002bfe:	f887 3063 	strb.w	r3, [r7, #99]	@ 0x63
 8002c02:	4b20      	ldr	r3, [pc, #128]	@ (8002c84 <process_set_config+0x23c>)
 8002c04:	781b      	ldrb	r3, [r3, #0]
 8002c06:	3301      	adds	r3, #1
 8002c08:	b2db      	uxtb	r3, r3
 8002c0a:	f897 2063 	ldrb.w	r2, [r7, #99]	@ 0x63
 8002c0e:	429a      	cmp	r2, r3
 8002c10:	d380      	bcc.n	8002b14 <process_set_config+0xcc>
      }
    }

    // Failed if there is no supported drivers
    TU_ASSERT(drv_id < TOTAL_DRIVER_COUNT);
 8002c12:	4b1c      	ldr	r3, [pc, #112]	@ (8002c84 <process_set_config+0x23c>)
 8002c14:	781b      	ldrb	r3, [r3, #0]
 8002c16:	3301      	adds	r3, #1
 8002c18:	b2db      	uxtb	r3, r3
 8002c1a:	f897 2063 	ldrb.w	r2, [r7, #99]	@ 0x63
 8002c1e:	429a      	cmp	r2, r3
 8002c20:	d30a      	bcc.n	8002c38 <process_set_config+0x1f0>
 8002c22:	4b16      	ldr	r3, [pc, #88]	@ (8002c7c <process_set_config+0x234>)
 8002c24:	63fb      	str	r3, [r7, #60]	@ 0x3c
 8002c26:	6bfb      	ldr	r3, [r7, #60]	@ 0x3c
 8002c28:	681b      	ldr	r3, [r3, #0]
 8002c2a:	f003 0301 	and.w	r3, r3, #1
 8002c2e:	2b00      	cmp	r3, #0
 8002c30:	d000      	beq.n	8002c34 <process_set_config+0x1ec>
 8002c32:	be00      	bkpt	0x0000
 8002c34:	2300      	movs	r3, #0
 8002c36:	e01d      	b.n	8002c74 <process_set_config+0x22c>
 8002c38:	6e7b      	ldr	r3, [r7, #100]	@ 0x64
 8002c3a:	61bb      	str	r3, [r7, #24]
 8002c3c:	6dbb      	ldr	r3, [r7, #88]	@ 0x58
 8002c3e:	617b      	str	r3, [r7, #20]
  return p_desc < desc_end && tu_desc_next(p_desc) <= desc_end;
 8002c40:	69ba      	ldr	r2, [r7, #24]
 8002c42:	697b      	ldr	r3, [r7, #20]
 8002c44:	429a      	cmp	r2, r3
 8002c46:	d20d      	bcs.n	8002c64 <process_set_config+0x21c>
 8002c48:	69bb      	ldr	r3, [r7, #24]
 8002c4a:	613b      	str	r3, [r7, #16]
  uint8_t const* desc8 = (uint8_t const*) desc;
 8002c4c:	693b      	ldr	r3, [r7, #16]
 8002c4e:	60fb      	str	r3, [r7, #12]
  return desc8 + desc8[DESC_OFFSET_LEN];
 8002c50:	68fb      	ldr	r3, [r7, #12]
 8002c52:	781b      	ldrb	r3, [r3, #0]
 8002c54:	461a      	mov	r2, r3
 8002c56:	68fb      	ldr	r3, [r7, #12]
 8002c58:	4413      	add	r3, r2
  return p_desc < desc_end && tu_desc_next(p_desc) <= desc_end;
 8002c5a:	697a      	ldr	r2, [r7, #20]
 8002c5c:	429a      	cmp	r2, r3
 8002c5e:	d301      	bcc.n	8002c64 <process_set_config+0x21c>
 8002c60:	2301      	movs	r3, #1
 8002c62:	e000      	b.n	8002c66 <process_set_config+0x21e>
 8002c64:	2300      	movs	r3, #0
 8002c66:	f003 0301 	and.w	r3, r3, #1
 8002c6a:	b2db      	uxtb	r3, r3
  while (tu_desc_in_bounds(p_desc, desc_end)) {
 8002c6c:	2b00      	cmp	r3, #0
 8002c6e:	f47f af22 	bne.w	8002ab6 <process_set_config+0x6e>
  }

  return true;
 8002c72:	2301      	movs	r3, #1
}
 8002c74:	4618      	mov	r0, r3
 8002c76:	3768      	adds	r7, #104	@ 0x68
 8002c78:	46bd      	mov	sp, r7
 8002c7a:	bd80      	pop	{r7, pc}
 8002c7c:	e000edf0 	.word	0xe000edf0
 8002c80:	20000434 	.word	0x20000434
 8002c84:	20000470 	.word	0x20000470
 8002c88:	2000046c 	.word	0x2000046c
 8002c8c:	080077fc 	.word	0x080077fc
 8002c90:	2000043b 	.word	0x2000043b
 8002c94:	2000044b 	.word	0x2000044b

08002c98 <process_get_descriptor>:

// return descriptor's buffer and update desc_len
static bool process_get_descriptor(uint8_t rhport, tusb_control_request_t const * p_request)
{
 8002c98:	b580      	push	{r7, lr}
 8002c9a:	b094      	sub	sp, #80	@ 0x50
 8002c9c:	af00      	add	r7, sp, #0
 8002c9e:	4603      	mov	r3, r0
 8002ca0:	6039      	str	r1, [r7, #0]
 8002ca2:	71fb      	strb	r3, [r7, #7]
  tusb_desc_type_t const desc_type = (tusb_desc_type_t) tu_u16_high(p_request->wValue);
 8002ca4:	683b      	ldr	r3, [r7, #0]
 8002ca6:	885b      	ldrh	r3, [r3, #2]
 8002ca8:	b29b      	uxth	r3, r3
 8002caa:	84bb      	strh	r3, [r7, #36]	@ 0x24
TU_ATTR_ALWAYS_INLINE static inline uint8_t tu_u16_high(uint16_t ui16) { return TU_U16_HIGH(ui16); }
 8002cac:	8cbb      	ldrh	r3, [r7, #36]	@ 0x24
 8002cae:	0a1b      	lsrs	r3, r3, #8
 8002cb0:	b29b      	uxth	r3, r3
 8002cb2:	b2db      	uxtb	r3, r3
 8002cb4:	f887 304b 	strb.w	r3, [r7, #75]	@ 0x4b
  uint8_t const desc_index = tu_u16_low( p_request->wValue );
 8002cb8:	683b      	ldr	r3, [r7, #0]
 8002cba:	885b      	ldrh	r3, [r3, #2]
 8002cbc:	b29b      	uxth	r3, r3
 8002cbe:	84fb      	strh	r3, [r7, #38]	@ 0x26
TU_ATTR_ALWAYS_INLINE static inline uint8_t tu_u16_low (uint16_t ui16) { return TU_U16_LOW(ui16); }
 8002cc0:	8cfb      	ldrh	r3, [r7, #38]	@ 0x26
 8002cc2:	b2db      	uxtb	r3, r3
 8002cc4:	f887 304a 	strb.w	r3, [r7, #74]	@ 0x4a

  switch(desc_type) { //-V2520
 8002cc8:	f897 304b 	ldrb.w	r3, [r7, #75]	@ 0x4b
 8002ccc:	3b01      	subs	r3, #1
 8002cce:	2b0e      	cmp	r3, #14
 8002cd0:	f200 80b4 	bhi.w	8002e3c <process_get_descriptor+0x1a4>
 8002cd4:	a201      	add	r2, pc, #4	@ (adr r2, 8002cdc <process_get_descriptor+0x44>)
 8002cd6:	f852 f023 	ldr.w	pc, [r2, r3, lsl #2]
 8002cda:	bf00      	nop
 8002cdc:	08002d19 	.word	0x08002d19
 8002ce0:	08002d7d 	.word	0x08002d7d
 8002ce4:	08002de3 	.word	0x08002de3
 8002ce8:	08002e3d 	.word	0x08002e3d
 8002cec:	08002e3d 	.word	0x08002e3d
 8002cf0:	08002e17 	.word	0x08002e17
 8002cf4:	08002d7d 	.word	0x08002d7d
 8002cf8:	08002e3d 	.word	0x08002e3d
 8002cfc:	08002e3d 	.word	0x08002e3d
 8002d00:	08002e3d 	.word	0x08002e3d
 8002d04:	08002e3d 	.word	0x08002e3d
 8002d08:	08002e3d 	.word	0x08002e3d
 8002d0c:	08002e3d 	.word	0x08002e3d
 8002d10:	08002e3d 	.word	0x08002e3d
 8002d14:	08002d4b 	.word	0x08002d4b
    case TUSB_DESC_DEVICE: {
      TU_LOG_USBD(" Device\r\n");

      void* desc_device = (void*) (uintptr_t) tud_descriptor_device_cb();
 8002d18:	f7fd fc82 	bl	8000620 <tud_descriptor_device_cb>
 8002d1c:	62f8      	str	r0, [r7, #44]	@ 0x2c
      TU_ASSERT(desc_device);
 8002d1e:	6afb      	ldr	r3, [r7, #44]	@ 0x2c
 8002d20:	2b00      	cmp	r3, #0
 8002d22:	d10a      	bne.n	8002d3a <process_get_descriptor+0xa2>
 8002d24:	4b48      	ldr	r3, [pc, #288]	@ (8002e48 <process_get_descriptor+0x1b0>)
 8002d26:	62bb      	str	r3, [r7, #40]	@ 0x28
 8002d28:	6abb      	ldr	r3, [r7, #40]	@ 0x28
 8002d2a:	681b      	ldr	r3, [r3, #0]
 8002d2c:	f003 0301 	and.w	r3, r3, #1
 8002d30:	2b00      	cmp	r3, #0
 8002d32:	d000      	beq.n	8002d36 <process_get_descriptor+0x9e>
 8002d34:	be00      	bkpt	0x0000
 8002d36:	2300      	movs	r3, #0
 8002d38:	e081      	b.n	8002e3e <process_get_descriptor+0x1a6>
        tusb_control_request_t mod_request = *p_request;
        mod_request.wLength = CFG_TUD_ENDPOINT0_SIZE;

        return tud_control_xfer(rhport, &mod_request, desc_device, CFG_TUD_ENDPOINT0_SIZE);
      }else {
        return tud_control_xfer(rhport, p_request, desc_device, sizeof(tusb_desc_device_t));
 8002d3a:	79f8      	ldrb	r0, [r7, #7]
 8002d3c:	2312      	movs	r3, #18
 8002d3e:	6afa      	ldr	r2, [r7, #44]	@ 0x2c
 8002d40:	6839      	ldr	r1, [r7, #0]
 8002d42:	f000 fe6d 	bl	8003a20 <tud_control_xfer>
 8002d46:	4603      	mov	r3, r0
 8002d48:	e079      	b.n	8002e3e <process_get_descriptor+0x1a6>

    case TUSB_DESC_BOS: {
      TU_LOG_USBD(" BOS\r\n");

      // requested by host if USB > 2.0 ( i.e 2.1 or 3.x )
      uintptr_t desc_bos = (uintptr_t) tud_descriptor_bos_cb();
 8002d4a:	f7ff f804 	bl	8001d56 <tud_descriptor_bos_cb>
 8002d4e:	4603      	mov	r3, r0
 8002d50:	647b      	str	r3, [r7, #68]	@ 0x44
      TU_VERIFY(desc_bos != 0);
 8002d52:	6c7b      	ldr	r3, [r7, #68]	@ 0x44
 8002d54:	2b00      	cmp	r3, #0
 8002d56:	d101      	bne.n	8002d5c <process_get_descriptor+0xc4>
 8002d58:	2300      	movs	r3, #0
 8002d5a:	e070      	b.n	8002e3e <process_get_descriptor+0x1a6>

      // Use offsetof to avoid pointer to the odd/misaligned address
      uint16_t const total_len = tu_le16toh( tu_unaligned_read16((const void*) (desc_bos + offsetof(tusb_desc_bos_t, wTotalLength))) );
 8002d5c:	6c7b      	ldr	r3, [r7, #68]	@ 0x44
 8002d5e:	3302      	adds	r3, #2
 8002d60:	623b      	str	r3, [r7, #32]
  return *((uint16_t const *) mem);
 8002d62:	6a3b      	ldr	r3, [r7, #32]
 8002d64:	881b      	ldrh	r3, [r3, #0]
 8002d66:	f8a7 3042 	strh.w	r3, [r7, #66]	@ 0x42

      return tud_control_xfer(rhport, p_request, (void*) desc_bos, total_len);
 8002d6a:	6c7a      	ldr	r2, [r7, #68]	@ 0x44
 8002d6c:	f8b7 3042 	ldrh.w	r3, [r7, #66]	@ 0x42
 8002d70:	79f8      	ldrb	r0, [r7, #7]
 8002d72:	6839      	ldr	r1, [r7, #0]
 8002d74:	f000 fe54 	bl	8003a20 <tud_control_xfer>
 8002d78:	4603      	mov	r3, r0
 8002d7a:	e060      	b.n	8002e3e <process_get_descriptor+0x1a6>

    case TUSB_DESC_CONFIGURATION:
    case TUSB_DESC_OTHER_SPEED_CONFIG: {
      uintptr_t desc_config;

      if ( desc_type == TUSB_DESC_CONFIGURATION ) {
 8002d7c:	f897 304b 	ldrb.w	r3, [r7, #75]	@ 0x4b
 8002d80:	2b02      	cmp	r3, #2
 8002d82:	d114      	bne.n	8002dae <process_get_descriptor+0x116>
        TU_LOG_USBD(" Configuration[%u]\r\n", desc_index);
        desc_config = (uintptr_t) tud_descriptor_configuration_cb(desc_index);
 8002d84:	f897 304a 	ldrb.w	r3, [r7, #74]	@ 0x4a
 8002d88:	4618      	mov	r0, r3
 8002d8a:	f7fd fc53 	bl	8000634 <tud_descriptor_configuration_cb>
 8002d8e:	4603      	mov	r3, r0
 8002d90:	64fb      	str	r3, [r7, #76]	@ 0x4c
        TU_ASSERT(desc_config != 0);
 8002d92:	6cfb      	ldr	r3, [r7, #76]	@ 0x4c
 8002d94:	2b00      	cmp	r3, #0
 8002d96:	d116      	bne.n	8002dc6 <process_get_descriptor+0x12e>
 8002d98:	4b2b      	ldr	r3, [pc, #172]	@ (8002e48 <process_get_descriptor+0x1b0>)
 8002d9a:	637b      	str	r3, [r7, #52]	@ 0x34
 8002d9c:	6b7b      	ldr	r3, [r7, #52]	@ 0x34
 8002d9e:	681b      	ldr	r3, [r3, #0]
 8002da0:	f003 0301 	and.w	r3, r3, #1
 8002da4:	2b00      	cmp	r3, #0
 8002da6:	d000      	beq.n	8002daa <process_get_descriptor+0x112>
 8002da8:	be00      	bkpt	0x0000
 8002daa:	2300      	movs	r3, #0
 8002dac:	e047      	b.n	8002e3e <process_get_descriptor+0x1a6>
      }else {
        // Host only request this after getting Device Qualifier descriptor
        TU_LOG_USBD(" Other Speed Configuration\r\n");
        desc_config = (uintptr_t) tud_descriptor_other_speed_configuration_cb(desc_index);
 8002dae:	f897 304a 	ldrb.w	r3, [r7, #74]	@ 0x4a
 8002db2:	4618      	mov	r0, r3
 8002db4:	f7fe ffdd 	bl	8001d72 <tud_descriptor_other_speed_configuration_cb>
 8002db8:	4603      	mov	r3, r0
 8002dba:	64fb      	str	r3, [r7, #76]	@ 0x4c
        TU_VERIFY(desc_config != 0);
 8002dbc:	6cfb      	ldr	r3, [r7, #76]	@ 0x4c
 8002dbe:	2b00      	cmp	r3, #0
 8002dc0:	d101      	bne.n	8002dc6 <process_get_descriptor+0x12e>
 8002dc2:	2300      	movs	r3, #0
 8002dc4:	e03b      	b.n	8002e3e <process_get_descriptor+0x1a6>
      }

      // Use offsetof to avoid pointer to the odd/misaligned address
      uint16_t const total_len = tu_le16toh( tu_unaligned_read16((const void*) (desc_config + offsetof(tusb_desc_configuration_t, wTotalLength))) );
 8002dc6:	6cfb      	ldr	r3, [r7, #76]	@ 0x4c
 8002dc8:	3302      	adds	r3, #2
 8002dca:	61fb      	str	r3, [r7, #28]
 8002dcc:	69fb      	ldr	r3, [r7, #28]
 8002dce:	881b      	ldrh	r3, [r3, #0]
 8002dd0:	867b      	strh	r3, [r7, #50]	@ 0x32

      return tud_control_xfer(rhport, p_request, (void*) desc_config, total_len);
 8002dd2:	6cfa      	ldr	r2, [r7, #76]	@ 0x4c
 8002dd4:	8e7b      	ldrh	r3, [r7, #50]	@ 0x32
 8002dd6:	79f8      	ldrb	r0, [r7, #7]
 8002dd8:	6839      	ldr	r1, [r7, #0]
 8002dda:	f000 fe21 	bl	8003a20 <tud_control_xfer>
 8002dde:	4603      	mov	r3, r0
 8002de0:	e02d      	b.n	8002e3e <process_get_descriptor+0x1a6>

    case TUSB_DESC_STRING: {
      TU_LOG_USBD(" String[%u]\r\n", desc_index);

      // String Descriptor always uses the desc set from user
      uint8_t const* desc_str = (uint8_t const*) tud_descriptor_string_cb(desc_index, tu_le16toh(p_request->wIndex));
 8002de2:	683b      	ldr	r3, [r7, #0]
 8002de4:	889b      	ldrh	r3, [r3, #4]
 8002de6:	b29a      	uxth	r2, r3
 8002de8:	f897 304a 	ldrb.w	r3, [r7, #74]	@ 0x4a
 8002dec:	4611      	mov	r1, r2
 8002dee:	4618      	mov	r0, r3
 8002df0:	f7fd fc2e 	bl	8000650 <tud_descriptor_string_cb>
 8002df4:	63b8      	str	r0, [r7, #56]	@ 0x38
      TU_VERIFY(desc_str);
 8002df6:	6bbb      	ldr	r3, [r7, #56]	@ 0x38
 8002df8:	2b00      	cmp	r3, #0
 8002dfa:	d101      	bne.n	8002e00 <process_get_descriptor+0x168>
 8002dfc:	2300      	movs	r3, #0
 8002dfe:	e01e      	b.n	8002e3e <process_get_descriptor+0x1a6>
 8002e00:	6bbb      	ldr	r3, [r7, #56]	@ 0x38
 8002e02:	61bb      	str	r3, [r7, #24]
  return ((uint8_t const*) desc)[DESC_OFFSET_LEN];
 8002e04:	69bb      	ldr	r3, [r7, #24]
 8002e06:	781b      	ldrb	r3, [r3, #0]

      // first byte of descriptor is its size
      return tud_control_xfer(rhport, p_request, (void*) (uintptr_t) desc_str, tu_desc_len(desc_str));
 8002e08:	79f8      	ldrb	r0, [r7, #7]
 8002e0a:	6bba      	ldr	r2, [r7, #56]	@ 0x38
 8002e0c:	6839      	ldr	r1, [r7, #0]
 8002e0e:	f000 fe07 	bl	8003a20 <tud_control_xfer>
 8002e12:	4603      	mov	r3, r0
 8002e14:	e013      	b.n	8002e3e <process_get_descriptor+0x1a6>
    }
    // break; // unreachable

    case TUSB_DESC_DEVICE_QUALIFIER: {
      TU_LOG_USBD(" Device Qualifier\r\n");
      uint8_t const* desc_qualifier = tud_descriptor_device_qualifier_cb();
 8002e16:	f7fe ffa5 	bl	8001d64 <tud_descriptor_device_qualifier_cb>
 8002e1a:	63f8      	str	r0, [r7, #60]	@ 0x3c
      TU_VERIFY(desc_qualifier);
 8002e1c:	6bfb      	ldr	r3, [r7, #60]	@ 0x3c
 8002e1e:	2b00      	cmp	r3, #0
 8002e20:	d101      	bne.n	8002e26 <process_get_descriptor+0x18e>
 8002e22:	2300      	movs	r3, #0
 8002e24:	e00b      	b.n	8002e3e <process_get_descriptor+0x1a6>
 8002e26:	6bfb      	ldr	r3, [r7, #60]	@ 0x3c
 8002e28:	617b      	str	r3, [r7, #20]
 8002e2a:	697b      	ldr	r3, [r7, #20]
 8002e2c:	781b      	ldrb	r3, [r3, #0]
      return tud_control_xfer(rhport, p_request, (void*) (uintptr_t) desc_qualifier, tu_desc_len(desc_qualifier));
 8002e2e:	79f8      	ldrb	r0, [r7, #7]
 8002e30:	6bfa      	ldr	r2, [r7, #60]	@ 0x3c
 8002e32:	6839      	ldr	r1, [r7, #0]
 8002e34:	f000 fdf4 	bl	8003a20 <tud_control_xfer>
 8002e38:	4603      	mov	r3, r0
 8002e3a:	e000      	b.n	8002e3e <process_get_descriptor+0x1a6>
    }
    // break; // unreachable

    default: return false;
 8002e3c:	2300      	movs	r3, #0
  }
}
 8002e3e:	4618      	mov	r0, r3
 8002e40:	3750      	adds	r7, #80	@ 0x50
 8002e42:	46bd      	mov	sp, r7
 8002e44:	bd80      	pop	{r7, pc}
 8002e46:	bf00      	nop
 8002e48:	e000edf0 	.word	0xe000edf0

08002e4c <dcd_event_handler>:

//--------------------------------------------------------------------+
// DCD Event Handler
//--------------------------------------------------------------------+
TU_ATTR_FAST_FUNC void dcd_event_handler(dcd_event_t const* event, bool in_isr) {
 8002e4c:	b590      	push	{r4, r7, lr}
 8002e4e:	b0af      	sub	sp, #188	@ 0xbc
 8002e50:	af00      	add	r7, sp, #0
 8002e52:	6078      	str	r0, [r7, #4]
 8002e54:	460b      	mov	r3, r1
 8002e56:	70fb      	strb	r3, [r7, #3]
  bool send = false;
 8002e58:	2300      	movs	r3, #0
 8002e5a:	f887 30b7 	strb.w	r3, [r7, #183]	@ 0xb7
  switch (event->event_id) {
 8002e5e:	687b      	ldr	r3, [r7, #4]
 8002e60:	785b      	ldrb	r3, [r3, #1]
 8002e62:	3b02      	subs	r3, #2
 8002e64:	2b05      	cmp	r3, #5
 8002e66:	f200 825c 	bhi.w	8003322 <dcd_event_handler+0x4d6>
 8002e6a:	a201      	add	r2, pc, #4	@ (adr r2, 8002e70 <dcd_event_handler+0x24>)
 8002e6c:	f852 f023 	ldr.w	pc, [r2, r3, lsl #2]
 8002e70:	08002e89 	.word	0x08002e89
 8002e74:	08002edd 	.word	0x08002edd
 8002e78:	08002ea9 	.word	0x08002ea9
 8002e7c:	08002ec3 	.word	0x08002ec3
 8002e80:	08003199 	.word	0x08003199
 8002e84:	080031af 	.word	0x080031af
    case DCD_EVENT_UNPLUGGED:
      _usbd_dev.connected = 0;
 8002e88:	4b7d      	ldr	r3, [pc, #500]	@ (8003080 <dcd_event_handler+0x234>)
 8002e8a:	2200      	movs	r2, #0
 8002e8c:	701a      	strb	r2, [r3, #0]
      _usbd_dev.addressed = 0;
 8002e8e:	4b7c      	ldr	r3, [pc, #496]	@ (8003080 <dcd_event_handler+0x234>)
 8002e90:	2200      	movs	r2, #0
 8002e92:	705a      	strb	r2, [r3, #1]
      _usbd_dev.cfg_num = 0;
 8002e94:	4b7a      	ldr	r3, [pc, #488]	@ (8003080 <dcd_event_handler+0x234>)
 8002e96:	2200      	movs	r2, #0
 8002e98:	711a      	strb	r2, [r3, #4]
      _usbd_dev.suspended = 0;
 8002e9a:	4b79      	ldr	r3, [pc, #484]	@ (8003080 <dcd_event_handler+0x234>)
 8002e9c:	2200      	movs	r2, #0
 8002e9e:	709a      	strb	r2, [r3, #2]
      send = true;
 8002ea0:	2301      	movs	r3, #1
 8002ea2:	f887 30b7 	strb.w	r3, [r7, #183]	@ 0xb7
      break;
 8002ea6:	e256      	b.n	8003356 <dcd_event_handler+0x50a>
    case DCD_EVENT_SUSPEND:
      // NOTE: When plugging/unplugging device, the D+/D- state are unstable and
      // can accidentally meet the SUSPEND condition ( Bus Idle for 3ms ).
      // In addition, some MCUs such as SAMD or boards that haven no VBUS detection cannot distinguish
      // suspended vs disconnected. We will skip handling SUSPEND/RESUME event if not currently connected
      if (_usbd_dev.connected) {
 8002ea8:	4b75      	ldr	r3, [pc, #468]	@ (8003080 <dcd_event_handler+0x234>)
 8002eaa:	781b      	ldrb	r3, [r3, #0]
 8002eac:	b2db      	uxtb	r3, r3
 8002eae:	2b00      	cmp	r3, #0
 8002eb0:	f000 823b 	beq.w	800332a <dcd_event_handler+0x4de>
        _usbd_dev.suspended = 1;
 8002eb4:	4b72      	ldr	r3, [pc, #456]	@ (8003080 <dcd_event_handler+0x234>)
 8002eb6:	2201      	movs	r2, #1
 8002eb8:	709a      	strb	r2, [r3, #2]
        send = true;
 8002eba:	2301      	movs	r3, #1
 8002ebc:	f887 30b7 	strb.w	r3, [r7, #183]	@ 0xb7
      }
      break;
 8002ec0:	e233      	b.n	800332a <dcd_event_handler+0x4de>

    case DCD_EVENT_RESUME:
      // skip event if not connected (especially required for SAMD)
      if (_usbd_dev.connected) {
 8002ec2:	4b6f      	ldr	r3, [pc, #444]	@ (8003080 <dcd_event_handler+0x234>)
 8002ec4:	781b      	ldrb	r3, [r3, #0]
 8002ec6:	b2db      	uxtb	r3, r3
 8002ec8:	2b00      	cmp	r3, #0
 8002eca:	f000 8230 	beq.w	800332e <dcd_event_handler+0x4e2>
        _usbd_dev.suspended = 0;
 8002ece:	4b6c      	ldr	r3, [pc, #432]	@ (8003080 <dcd_event_handler+0x234>)
 8002ed0:	2200      	movs	r2, #0
 8002ed2:	709a      	strb	r2, [r3, #2]
        send = true;
 8002ed4:	2301      	movs	r3, #1
 8002ed6:	f887 30b7 	strb.w	r3, [r7, #183]	@ 0xb7
      }
      break;
 8002eda:	e228      	b.n	800332e <dcd_event_handler+0x4e2>

    case DCD_EVENT_SOF:
      // SOF driver handler in ISR context
      for (uint8_t i = 0; i < TOTAL_DRIVER_COUNT; i++) {
 8002edc:	2300      	movs	r3, #0
 8002ede:	f887 30b6 	strb.w	r3, [r7, #182]	@ 0xb6
 8002ee2:	e048      	b.n	8002f76 <dcd_event_handler+0x12a>
 8002ee4:	f897 30b6 	ldrb.w	r3, [r7, #182]	@ 0xb6
 8002ee8:	f887 30a7 	strb.w	r3, [r7, #167]	@ 0xa7
  usbd_class_driver_t const *driver = NULL;
 8002eec:	2300      	movs	r3, #0
 8002eee:	f8c7 30a0 	str.w	r3, [r7, #160]	@ 0xa0
  if (drvid < _app_driver_count) {
 8002ef2:	4b64      	ldr	r3, [pc, #400]	@ (8003084 <dcd_event_handler+0x238>)
 8002ef4:	781b      	ldrb	r3, [r3, #0]
 8002ef6:	f897 20a7 	ldrb.w	r2, [r7, #167]	@ 0xa7
 8002efa:	429a      	cmp	r2, r3
 8002efc:	d20b      	bcs.n	8002f16 <dcd_event_handler+0xca>
    driver = &_app_driver[drvid];
 8002efe:	4b62      	ldr	r3, [pc, #392]	@ (8003088 <dcd_event_handler+0x23c>)
 8002f00:	6819      	ldr	r1, [r3, #0]
 8002f02:	f897 20a7 	ldrb.w	r2, [r7, #167]	@ 0xa7
 8002f06:	4613      	mov	r3, r2
 8002f08:	00db      	lsls	r3, r3, #3
 8002f0a:	4413      	add	r3, r2
 8002f0c:	009b      	lsls	r3, r3, #2
 8002f0e:	440b      	add	r3, r1
 8002f10:	f8c7 30a0 	str.w	r3, [r7, #160]	@ 0xa0
 8002f14:	e014      	b.n	8002f40 <dcd_event_handler+0xf4>
    drvid -= _app_driver_count;
 8002f16:	4b5b      	ldr	r3, [pc, #364]	@ (8003084 <dcd_event_handler+0x238>)
 8002f18:	781b      	ldrb	r3, [r3, #0]
 8002f1a:	f897 20a7 	ldrb.w	r2, [r7, #167]	@ 0xa7
 8002f1e:	1ad3      	subs	r3, r2, r3
 8002f20:	f887 30a7 	strb.w	r3, [r7, #167]	@ 0xa7
    if (drvid < BUILTIN_DRIVER_COUNT) {
 8002f24:	f897 30a7 	ldrb.w	r3, [r7, #167]	@ 0xa7
 8002f28:	2b00      	cmp	r3, #0
 8002f2a:	d109      	bne.n	8002f40 <dcd_event_handler+0xf4>
      driver = &_usbd_driver[drvid];
 8002f2c:	f897 20a7 	ldrb.w	r2, [r7, #167]	@ 0xa7
 8002f30:	4613      	mov	r3, r2
 8002f32:	00db      	lsls	r3, r3, #3
 8002f34:	4413      	add	r3, r2
 8002f36:	009b      	lsls	r3, r3, #2
 8002f38:	4a54      	ldr	r2, [pc, #336]	@ (800308c <dcd_event_handler+0x240>)
 8002f3a:	4413      	add	r3, r2
 8002f3c:	f8c7 30a0 	str.w	r3, [r7, #160]	@ 0xa0
  return driver;
 8002f40:	f8d7 30a0 	ldr.w	r3, [r7, #160]	@ 0xa0
        usbd_class_driver_t const* driver = get_driver(i);
 8002f44:	f8c7 30a8 	str.w	r3, [r7, #168]	@ 0xa8
        if (driver && driver->sof) {
 8002f48:	f8d7 30a8 	ldr.w	r3, [r7, #168]	@ 0xa8
 8002f4c:	2b00      	cmp	r3, #0
 8002f4e:	d00d      	beq.n	8002f6c <dcd_event_handler+0x120>
 8002f50:	f8d7 30a8 	ldr.w	r3, [r7, #168]	@ 0xa8
 8002f54:	6a1b      	ldr	r3, [r3, #32]
 8002f56:	2b00      	cmp	r3, #0
 8002f58:	d008      	beq.n	8002f6c <dcd_event_handler+0x120>
          driver->sof(event->rhport, event->sof.frame_count);
 8002f5a:	f8d7 30a8 	ldr.w	r3, [r7, #168]	@ 0xa8
 8002f5e:	6a1b      	ldr	r3, [r3, #32]
 8002f60:	687a      	ldr	r2, [r7, #4]
 8002f62:	7810      	ldrb	r0, [r2, #0]
 8002f64:	687a      	ldr	r2, [r7, #4]
 8002f66:	6852      	ldr	r2, [r2, #4]
 8002f68:	4611      	mov	r1, r2
 8002f6a:	4798      	blx	r3
      for (uint8_t i = 0; i < TOTAL_DRIVER_COUNT; i++) {
 8002f6c:	f897 30b6 	ldrb.w	r3, [r7, #182]	@ 0xb6
 8002f70:	3301      	adds	r3, #1
 8002f72:	f887 30b6 	strb.w	r3, [r7, #182]	@ 0xb6
 8002f76:	4b43      	ldr	r3, [pc, #268]	@ (8003084 <dcd_event_handler+0x238>)
 8002f78:	781b      	ldrb	r3, [r3, #0]
 8002f7a:	3301      	adds	r3, #1
 8002f7c:	b2db      	uxtb	r3, r3
 8002f7e:	f897 20b6 	ldrb.w	r2, [r7, #182]	@ 0xb6
 8002f82:	429a      	cmp	r2, r3
 8002f84:	d3ae      	bcc.n	8002ee4 <dcd_event_handler+0x98>
        }
      }

      // Some MCUs after running dcd_remote_wakeup() does not have way to detect the end of remote wakeup
      // which last 1-15 ms. DCD can use SOF as a clear indicator that bus is back to operational
      if (_usbd_dev.suspended) {
 8002f86:	4b3e      	ldr	r3, [pc, #248]	@ (8003080 <dcd_event_handler+0x234>)
 8002f88:	789b      	ldrb	r3, [r3, #2]
 8002f8a:	b2db      	uxtb	r3, r3
 8002f8c:	2b00      	cmp	r3, #0
 8002f8e:	f000 8084 	beq.w	800309a <dcd_event_handler+0x24e>
        _usbd_dev.suspended = 0;
 8002f92:	4b3b      	ldr	r3, [pc, #236]	@ (8003080 <dcd_event_handler+0x234>)
 8002f94:	2200      	movs	r2, #0
 8002f96:	709a      	strb	r2, [r3, #2]

        dcd_event_t const event_resume = {.rhport = event->rhport, .event_id = DCD_EVENT_RESUME};
 8002f98:	f107 0318 	add.w	r3, r7, #24
 8002f9c:	2200      	movs	r2, #0
 8002f9e:	601a      	str	r2, [r3, #0]
 8002fa0:	605a      	str	r2, [r3, #4]
 8002fa2:	609a      	str	r2, [r3, #8]
 8002fa4:	687b      	ldr	r3, [r7, #4]
 8002fa6:	781b      	ldrb	r3, [r3, #0]
 8002fa8:	763b      	strb	r3, [r7, #24]
 8002faa:	2305      	movs	r3, #5
 8002fac:	767b      	strb	r3, [r7, #25]
 8002fae:	f107 0318 	add.w	r3, r7, #24
 8002fb2:	f8c7 309c 	str.w	r3, [r7, #156]	@ 0x9c
 8002fb6:	78fb      	ldrb	r3, [r7, #3]
 8002fb8:	f887 309b 	strb.w	r3, [r7, #155]	@ 0x9b
  TU_ASSERT(osal_queue_send(_usbd_q, event, in_isr));
 8002fbc:	4b34      	ldr	r3, [pc, #208]	@ (8003090 <dcd_event_handler+0x244>)
 8002fbe:	681b      	ldr	r3, [r3, #0]
 8002fc0:	f8c7 3094 	str.w	r3, [r7, #148]	@ 0x94
 8002fc4:	f8d7 309c 	ldr.w	r3, [r7, #156]	@ 0x9c
 8002fc8:	f8c7 3090 	str.w	r3, [r7, #144]	@ 0x90
 8002fcc:	f897 309b 	ldrb.w	r3, [r7, #155]	@ 0x9b
 8002fd0:	f887 308f 	strb.w	r3, [r7, #143]	@ 0x8f
}

TU_ATTR_ALWAYS_INLINE static inline bool osal_queue_send(osal_queue_t qhdl, void const* data, bool in_isr) {
  if (!in_isr) {
 8002fd4:	f897 308f 	ldrb.w	r3, [r7, #143]	@ 0x8f
 8002fd8:	f083 0301 	eor.w	r3, r3, #1
 8002fdc:	b2db      	uxtb	r3, r3
 8002fde:	2b00      	cmp	r3, #0
 8002fe0:	d004      	beq.n	8002fec <dcd_event_handler+0x1a0>
    qhdl->interrupt_set(false);
 8002fe2:	f8d7 3094 	ldr.w	r3, [r7, #148]	@ 0x94
 8002fe6:	681b      	ldr	r3, [r3, #0]
 8002fe8:	2000      	movs	r0, #0
 8002fea:	4798      	blx	r3
  }

  const bool success = (tu_fifo_write_n(&qhdl->ff, data, qhdl->item_size) > 0);
 8002fec:	f8d7 3094 	ldr.w	r3, [r7, #148]	@ 0x94
 8002ff0:	3308      	adds	r3, #8
 8002ff2:	f8d7 2094 	ldr.w	r2, [r7, #148]	@ 0x94
 8002ff6:	8892      	ldrh	r2, [r2, #4]
 8002ff8:	f8c7 3088 	str.w	r3, [r7, #136]	@ 0x88
 8002ffc:	f8d7 3090 	ldr.w	r3, [r7, #144]	@ 0x90
 8003000:	f8c7 3084 	str.w	r3, [r7, #132]	@ 0x84
 8003004:	4613      	mov	r3, r2
 8003006:	f8a7 3082 	strh.w	r3, [r7, #130]	@ 0x82
  return tu_fifo_write_n_access_mode(f, data, n, NULL);
 800300a:	f8b7 2082 	ldrh.w	r2, [r7, #130]	@ 0x82
 800300e:	2300      	movs	r3, #0
 8003010:	f8d7 1084 	ldr.w	r1, [r7, #132]	@ 0x84
 8003014:	f8d7 0088 	ldr.w	r0, [r7, #136]	@ 0x88
 8003018:	f7fe fd28 	bl	8001a6c <tu_fifo_write_n_access_mode>
 800301c:	4603      	mov	r3, r0
 800301e:	2b00      	cmp	r3, #0
 8003020:	bf14      	ite	ne
 8003022:	2301      	movne	r3, #1
 8003024:	2300      	moveq	r3, #0
 8003026:	f887 3081 	strb.w	r3, [r7, #129]	@ 0x81

  if (!in_isr) {
 800302a:	f897 308f 	ldrb.w	r3, [r7, #143]	@ 0x8f
 800302e:	f083 0301 	eor.w	r3, r3, #1
 8003032:	b2db      	uxtb	r3, r3
 8003034:	2b00      	cmp	r3, #0
 8003036:	d004      	beq.n	8003042 <dcd_event_handler+0x1f6>
    qhdl->interrupt_set(true);
 8003038:	f8d7 3094 	ldr.w	r3, [r7, #148]	@ 0x94
 800303c:	681b      	ldr	r3, [r3, #0]
 800303e:	2001      	movs	r0, #1
 8003040:	4798      	blx	r3
  }

  return success;
 8003042:	f897 3081 	ldrb.w	r3, [r7, #129]	@ 0x81
 8003046:	f083 0301 	eor.w	r3, r3, #1
 800304a:	b2db      	uxtb	r3, r3
 800304c:	2b00      	cmp	r3, #0
 800304e:	d009      	beq.n	8003064 <dcd_event_handler+0x218>
 8003050:	4b10      	ldr	r3, [pc, #64]	@ (8003094 <dcd_event_handler+0x248>)
 8003052:	67fb      	str	r3, [r7, #124]	@ 0x7c
 8003054:	6ffb      	ldr	r3, [r7, #124]	@ 0x7c
 8003056:	681b      	ldr	r3, [r3, #0]
 8003058:	f003 0301 	and.w	r3, r3, #1
 800305c:	2b00      	cmp	r3, #0
 800305e:	d01b      	beq.n	8003098 <dcd_event_handler+0x24c>
 8003060:	be00      	bkpt	0x0000
 8003062:	e019      	b.n	8003098 <dcd_event_handler+0x24c>
  tud_event_hook_cb(event->rhport, event->event_id, in_isr);
 8003064:	f8d7 309c 	ldr.w	r3, [r7, #156]	@ 0x9c
 8003068:	7818      	ldrb	r0, [r3, #0]
 800306a:	f8d7 309c 	ldr.w	r3, [r7, #156]	@ 0x9c
 800306e:	785b      	ldrb	r3, [r3, #1]
 8003070:	4619      	mov	r1, r3
 8003072:	f897 309b 	ldrb.w	r3, [r7, #155]	@ 0x9b
 8003076:	461a      	mov	r2, r3
 8003078:	f7fe fe57 	bl	8001d2a <tud_event_hook_cb>
  return true;
 800307c:	e00d      	b.n	800309a <dcd_event_handler+0x24e>
 800307e:	bf00      	nop
 8003080:	20000434 	.word	0x20000434
 8003084:	20000470 	.word	0x20000470
 8003088:	2000046c 	.word	0x2000046c
 800308c:	080077fc 	.word	0x080077fc
 8003090:	20000534 	.word	0x20000534
 8003094:	e000edf0 	.word	0xe000edf0
  TU_ASSERT(osal_queue_send(_usbd_q, event, in_isr));
 8003098:	bf00      	nop
        queue_event(&event_resume, in_isr);
      }

      if (tu_bit_test(_usbd_dev.sof_consumer, SOF_CONSUMER_USER)) {
 800309a:	4ba7      	ldr	r3, [pc, #668]	@ (8003338 <dcd_event_handler+0x4ec>)
 800309c:	799b      	ldrb	r3, [r3, #6]
 800309e:	b2db      	uxtb	r3, r3
 80030a0:	67bb      	str	r3, [r7, #120]	@ 0x78
 80030a2:	2300      	movs	r3, #0
 80030a4:	f887 3077 	strb.w	r3, [r7, #119]	@ 0x77
TU_ATTR_ALWAYS_INLINE static inline bool     tu_bit_test (uint32_t value, uint8_t pos) { return (value & TU_BIT(pos)) ? true : false; }
 80030a8:	f897 3077 	ldrb.w	r3, [r7, #119]	@ 0x77
 80030ac:	6fba      	ldr	r2, [r7, #120]	@ 0x78
 80030ae:	fa22 f303 	lsr.w	r3, r2, r3
 80030b2:	f003 0301 	and.w	r3, r3, #1
 80030b6:	2b00      	cmp	r3, #0
 80030b8:	bf14      	ite	ne
 80030ba:	2301      	movne	r3, #1
 80030bc:	2300      	moveq	r3, #0
 80030be:	b2db      	uxtb	r3, r3
 80030c0:	2b00      	cmp	r3, #0
 80030c2:	f000 8136 	beq.w	8003332 <dcd_event_handler+0x4e6>
        dcd_event_t const event_sof = {.rhport = event->rhport, .event_id = DCD_EVENT_SOF, .sof.frame_count = event->sof.frame_count};
 80030c6:	f107 030c 	add.w	r3, r7, #12
 80030ca:	2200      	movs	r2, #0
 80030cc:	601a      	str	r2, [r3, #0]
 80030ce:	605a      	str	r2, [r3, #4]
 80030d0:	609a      	str	r2, [r3, #8]
 80030d2:	687b      	ldr	r3, [r7, #4]
 80030d4:	781b      	ldrb	r3, [r3, #0]
 80030d6:	733b      	strb	r3, [r7, #12]
 80030d8:	2303      	movs	r3, #3
 80030da:	737b      	strb	r3, [r7, #13]
 80030dc:	687b      	ldr	r3, [r7, #4]
 80030de:	685b      	ldr	r3, [r3, #4]
 80030e0:	613b      	str	r3, [r7, #16]
 80030e2:	f107 030c 	add.w	r3, r7, #12
 80030e6:	673b      	str	r3, [r7, #112]	@ 0x70
 80030e8:	78fb      	ldrb	r3, [r7, #3]
 80030ea:	f887 306f 	strb.w	r3, [r7, #111]	@ 0x6f
  TU_ASSERT(osal_queue_send(_usbd_q, event, in_isr));
 80030ee:	4b93      	ldr	r3, [pc, #588]	@ (800333c <dcd_event_handler+0x4f0>)
 80030f0:	681b      	ldr	r3, [r3, #0]
 80030f2:	66bb      	str	r3, [r7, #104]	@ 0x68
 80030f4:	6f3b      	ldr	r3, [r7, #112]	@ 0x70
 80030f6:	667b      	str	r3, [r7, #100]	@ 0x64
 80030f8:	f897 306f 	ldrb.w	r3, [r7, #111]	@ 0x6f
 80030fc:	f887 3063 	strb.w	r3, [r7, #99]	@ 0x63
  if (!in_isr) {
 8003100:	f897 3063 	ldrb.w	r3, [r7, #99]	@ 0x63
 8003104:	f083 0301 	eor.w	r3, r3, #1
 8003108:	b2db      	uxtb	r3, r3
 800310a:	2b00      	cmp	r3, #0
 800310c:	d003      	beq.n	8003116 <dcd_event_handler+0x2ca>
    qhdl->interrupt_set(false);
 800310e:	6ebb      	ldr	r3, [r7, #104]	@ 0x68
 8003110:	681b      	ldr	r3, [r3, #0]
 8003112:	2000      	movs	r0, #0
 8003114:	4798      	blx	r3
  const bool success = (tu_fifo_write_n(&qhdl->ff, data, qhdl->item_size) > 0);
 8003116:	6ebb      	ldr	r3, [r7, #104]	@ 0x68
 8003118:	3308      	adds	r3, #8
 800311a:	6eba      	ldr	r2, [r7, #104]	@ 0x68
 800311c:	8892      	ldrh	r2, [r2, #4]
 800311e:	65fb      	str	r3, [r7, #92]	@ 0x5c
 8003120:	6e7b      	ldr	r3, [r7, #100]	@ 0x64
 8003122:	65bb      	str	r3, [r7, #88]	@ 0x58
 8003124:	4613      	mov	r3, r2
 8003126:	f8a7 3056 	strh.w	r3, [r7, #86]	@ 0x56
 800312a:	f8b7 2056 	ldrh.w	r2, [r7, #86]	@ 0x56
 800312e:	2300      	movs	r3, #0
 8003130:	6db9      	ldr	r1, [r7, #88]	@ 0x58
 8003132:	6df8      	ldr	r0, [r7, #92]	@ 0x5c
 8003134:	f7fe fc9a 	bl	8001a6c <tu_fifo_write_n_access_mode>
 8003138:	4603      	mov	r3, r0
 800313a:	2b00      	cmp	r3, #0
 800313c:	bf14      	ite	ne
 800313e:	2301      	movne	r3, #1
 8003140:	2300      	moveq	r3, #0
 8003142:	f887 3055 	strb.w	r3, [r7, #85]	@ 0x55
  if (!in_isr) {
 8003146:	f897 3063 	ldrb.w	r3, [r7, #99]	@ 0x63
 800314a:	f083 0301 	eor.w	r3, r3, #1
 800314e:	b2db      	uxtb	r3, r3
 8003150:	2b00      	cmp	r3, #0
 8003152:	d003      	beq.n	800315c <dcd_event_handler+0x310>
    qhdl->interrupt_set(true);
 8003154:	6ebb      	ldr	r3, [r7, #104]	@ 0x68
 8003156:	681b      	ldr	r3, [r3, #0]
 8003158:	2001      	movs	r0, #1
 800315a:	4798      	blx	r3
  return success;
 800315c:	f897 3055 	ldrb.w	r3, [r7, #85]	@ 0x55
 8003160:	f083 0301 	eor.w	r3, r3, #1
 8003164:	b2db      	uxtb	r3, r3
 8003166:	2b00      	cmp	r3, #0
 8003168:	d009      	beq.n	800317e <dcd_event_handler+0x332>
 800316a:	4b75      	ldr	r3, [pc, #468]	@ (8003340 <dcd_event_handler+0x4f4>)
 800316c:	653b      	str	r3, [r7, #80]	@ 0x50
 800316e:	6d3b      	ldr	r3, [r7, #80]	@ 0x50
 8003170:	681b      	ldr	r3, [r3, #0]
 8003172:	f003 0301 	and.w	r3, r3, #1
 8003176:	2b00      	cmp	r3, #0
 8003178:	d00c      	beq.n	8003194 <dcd_event_handler+0x348>
 800317a:	be00      	bkpt	0x0000
 800317c:	e00a      	b.n	8003194 <dcd_event_handler+0x348>
  tud_event_hook_cb(event->rhport, event->event_id, in_isr);
 800317e:	6f3b      	ldr	r3, [r7, #112]	@ 0x70
 8003180:	7818      	ldrb	r0, [r3, #0]
 8003182:	6f3b      	ldr	r3, [r7, #112]	@ 0x70
 8003184:	785b      	ldrb	r3, [r3, #1]
 8003186:	4619      	mov	r1, r3
 8003188:	f897 306f 	ldrb.w	r3, [r7, #111]	@ 0x6f
 800318c:	461a      	mov	r2, r3
 800318e:	f7fe fdcc 	bl	8001d2a <tud_event_hook_cb>
  return true;
 8003192:	e000      	b.n	8003196 <dcd_event_handler+0x34a>
  TU_ASSERT(osal_queue_send(_usbd_q, event, in_isr));
 8003194:	bf00      	nop
        queue_event(&event_sof, in_isr);
      }
      break;
 8003196:	e0cc      	b.n	8003332 <dcd_event_handler+0x4e6>

    case DCD_EVENT_SETUP_RECEIVED:
      _usbd_queued_setup++;
 8003198:	4b6a      	ldr	r3, [pc, #424]	@ (8003344 <dcd_event_handler+0x4f8>)
 800319a:	781b      	ldrb	r3, [r3, #0]
 800319c:	b2db      	uxtb	r3, r3
 800319e:	3301      	adds	r3, #1
 80031a0:	b2da      	uxtb	r2, r3
 80031a2:	4b68      	ldr	r3, [pc, #416]	@ (8003344 <dcd_event_handler+0x4f8>)
 80031a4:	701a      	strb	r2, [r3, #0]
      send = true;
 80031a6:	2301      	movs	r3, #1
 80031a8:	f887 30b7 	strb.w	r3, [r7, #183]	@ 0xb7
      break;
 80031ac:	e0d3      	b.n	8003356 <dcd_event_handler+0x50a>

    case DCD_EVENT_XFER_COMPLETE: {
      // Invoke the class callback associated with the endpoint address
      uint8_t const ep_addr = event->xfer_complete.ep_addr;
 80031ae:	687b      	ldr	r3, [r7, #4]
 80031b0:	791b      	ldrb	r3, [r3, #4]
 80031b2:	f887 30b5 	strb.w	r3, [r7, #181]	@ 0xb5
 80031b6:	f897 30b5 	ldrb.w	r3, [r7, #181]	@ 0xb5
 80031ba:	f887 304e 	strb.w	r3, [r7, #78]	@ 0x4e
  return (uint8_t) (addr & TUSB_EPNUM_MASK);
 80031be:	f897 304e 	ldrb.w	r3, [r7, #78]	@ 0x4e
 80031c2:	f003 030f 	and.w	r3, r3, #15
 80031c6:	b2db      	uxtb	r3, r3
      uint8_t const epnum = tu_edpt_number(ep_addr);
 80031c8:	f887 30b4 	strb.w	r3, [r7, #180]	@ 0xb4
 80031cc:	f897 30b5 	ldrb.w	r3, [r7, #181]	@ 0xb5
 80031d0:	f887 304f 	strb.w	r3, [r7, #79]	@ 0x4f
  return (addr & TUSB_DIR_IN_MASK) ? TUSB_DIR_IN : TUSB_DIR_OUT;
 80031d4:	f897 304f 	ldrb.w	r3, [r7, #79]	@ 0x4f
 80031d8:	09db      	lsrs	r3, r3, #7
 80031da:	b2db      	uxtb	r3, r3
      uint8_t const ep_dir = tu_edpt_dir(ep_addr);
 80031dc:	f887 30b3 	strb.w	r3, [r7, #179]	@ 0xb3

      send = true;
 80031e0:	2301      	movs	r3, #1
 80031e2:	f887 30b7 	strb.w	r3, [r7, #183]	@ 0xb7
      if(epnum > 0) {
 80031e6:	f897 30b4 	ldrb.w	r3, [r7, #180]	@ 0xb4
 80031ea:	2b00      	cmp	r3, #0
 80031ec:	f000 80b2 	beq.w	8003354 <dcd_event_handler+0x508>
        usbd_class_driver_t const* driver = get_driver(_usbd_dev.ep2drv[epnum][ep_dir]);
 80031f0:	f897 20b4 	ldrb.w	r2, [r7, #180]	@ 0xb4
 80031f4:	f897 30b3 	ldrb.w	r3, [r7, #179]	@ 0xb3
 80031f8:	494f      	ldr	r1, [pc, #316]	@ (8003338 <dcd_event_handler+0x4ec>)
 80031fa:	0052      	lsls	r2, r2, #1
 80031fc:	440a      	add	r2, r1
 80031fe:	4413      	add	r3, r2
 8003200:	3317      	adds	r3, #23
 8003202:	781b      	ldrb	r3, [r3, #0]
 8003204:	f887 304d 	strb.w	r3, [r7, #77]	@ 0x4d
  usbd_class_driver_t const *driver = NULL;
 8003208:	2300      	movs	r3, #0
 800320a:	64bb      	str	r3, [r7, #72]	@ 0x48
  if (drvid < _app_driver_count) {
 800320c:	4b4e      	ldr	r3, [pc, #312]	@ (8003348 <dcd_event_handler+0x4fc>)
 800320e:	781b      	ldrb	r3, [r3, #0]
 8003210:	f897 204d 	ldrb.w	r2, [r7, #77]	@ 0x4d
 8003214:	429a      	cmp	r2, r3
 8003216:	d20a      	bcs.n	800322e <dcd_event_handler+0x3e2>
    driver = &_app_driver[drvid];
 8003218:	4b4c      	ldr	r3, [pc, #304]	@ (800334c <dcd_event_handler+0x500>)
 800321a:	6819      	ldr	r1, [r3, #0]
 800321c:	f897 204d 	ldrb.w	r2, [r7, #77]	@ 0x4d
 8003220:	4613      	mov	r3, r2
 8003222:	00db      	lsls	r3, r3, #3
 8003224:	4413      	add	r3, r2
 8003226:	009b      	lsls	r3, r3, #2
 8003228:	440b      	add	r3, r1
 800322a:	64bb      	str	r3, [r7, #72]	@ 0x48
 800322c:	e013      	b.n	8003256 <dcd_event_handler+0x40a>
    drvid -= _app_driver_count;
 800322e:	4b46      	ldr	r3, [pc, #280]	@ (8003348 <dcd_event_handler+0x4fc>)
 8003230:	781b      	ldrb	r3, [r3, #0]
 8003232:	f897 204d 	ldrb.w	r2, [r7, #77]	@ 0x4d
 8003236:	1ad3      	subs	r3, r2, r3
 8003238:	f887 304d 	strb.w	r3, [r7, #77]	@ 0x4d
    if (drvid < BUILTIN_DRIVER_COUNT) {
 800323c:	f897 304d 	ldrb.w	r3, [r7, #77]	@ 0x4d
 8003240:	2b00      	cmp	r3, #0
 8003242:	d108      	bne.n	8003256 <dcd_event_handler+0x40a>
      driver = &_usbd_driver[drvid];
 8003244:	f897 204d 	ldrb.w	r2, [r7, #77]	@ 0x4d
 8003248:	4613      	mov	r3, r2
 800324a:	00db      	lsls	r3, r3, #3
 800324c:	4413      	add	r3, r2
 800324e:	009b      	lsls	r3, r3, #2
 8003250:	4a3f      	ldr	r2, [pc, #252]	@ (8003350 <dcd_event_handler+0x504>)
 8003252:	4413      	add	r3, r2
 8003254:	64bb      	str	r3, [r7, #72]	@ 0x48
  return driver;
 8003256:	6cbb      	ldr	r3, [r7, #72]	@ 0x48
        usbd_class_driver_t const* driver = get_driver(_usbd_dev.ep2drv[epnum][ep_dir]);
 8003258:	f8c7 30ac 	str.w	r3, [r7, #172]	@ 0xac

        if (driver && driver->xfer_isr) {
 800325c:	f8d7 30ac 	ldr.w	r3, [r7, #172]	@ 0xac
 8003260:	2b00      	cmp	r3, #0
 8003262:	d077      	beq.n	8003354 <dcd_event_handler+0x508>
 8003264:	f8d7 30ac 	ldr.w	r3, [r7, #172]	@ 0xac
 8003268:	69db      	ldr	r3, [r3, #28]
 800326a:	2b00      	cmp	r3, #0
 800326c:	d072      	beq.n	8003354 <dcd_event_handler+0x508>
          _usbd_dev.ep_status[epnum][ep_dir].busy = 0;
 800326e:	f897 20b4 	ldrb.w	r2, [r7, #180]	@ 0xb4
 8003272:	f897 30b3 	ldrb.w	r3, [r7, #179]	@ 0xb3
 8003276:	4930      	ldr	r1, [pc, #192]	@ (8003338 <dcd_event_handler+0x4ec>)
 8003278:	0052      	lsls	r2, r2, #1
 800327a:	440a      	add	r2, r1
 800327c:	4413      	add	r3, r2
 800327e:	f103 0220 	add.w	r2, r3, #32
 8003282:	79d3      	ldrb	r3, [r2, #7]
 8003284:	f023 0301 	bic.w	r3, r3, #1
 8003288:	71d3      	strb	r3, [r2, #7]
          _usbd_dev.ep_status[epnum][ep_dir].claimed = 0;
 800328a:	f897 20b4 	ldrb.w	r2, [r7, #180]	@ 0xb4
 800328e:	f897 30b3 	ldrb.w	r3, [r7, #179]	@ 0xb3
 8003292:	4929      	ldr	r1, [pc, #164]	@ (8003338 <dcd_event_handler+0x4ec>)
 8003294:	0052      	lsls	r2, r2, #1
 8003296:	440a      	add	r2, r1
 8003298:	4413      	add	r3, r2
 800329a:	f103 0220 	add.w	r2, r3, #32
 800329e:	79d3      	ldrb	r3, [r2, #7]
 80032a0:	f023 0304 	bic.w	r3, r3, #4
 80032a4:	71d3      	strb	r3, [r2, #7]

          send = !driver->xfer_isr(event->rhport, ep_addr, (xfer_result_t) event->xfer_complete.result, event->xfer_complete.len);
 80032a6:	f8d7 30ac 	ldr.w	r3, [r7, #172]	@ 0xac
 80032aa:	69dc      	ldr	r4, [r3, #28]
 80032ac:	687b      	ldr	r3, [r7, #4]
 80032ae:	7818      	ldrb	r0, [r3, #0]
 80032b0:	687b      	ldr	r3, [r7, #4]
 80032b2:	795a      	ldrb	r2, [r3, #5]
 80032b4:	687b      	ldr	r3, [r7, #4]
 80032b6:	689b      	ldr	r3, [r3, #8]
 80032b8:	f897 10b5 	ldrb.w	r1, [r7, #181]	@ 0xb5
 80032bc:	47a0      	blx	r4
 80032be:	4603      	mov	r3, r0
 80032c0:	2b00      	cmp	r3, #0
 80032c2:	bf14      	ite	ne
 80032c4:	2301      	movne	r3, #1
 80032c6:	2300      	moveq	r3, #0
 80032c8:	b2db      	uxtb	r3, r3
 80032ca:	f083 0301 	eor.w	r3, r3, #1
 80032ce:	b2db      	uxtb	r3, r3
 80032d0:	f887 30b7 	strb.w	r3, [r7, #183]	@ 0xb7
 80032d4:	f897 30b7 	ldrb.w	r3, [r7, #183]	@ 0xb7
 80032d8:	f003 0301 	and.w	r3, r3, #1
 80032dc:	f887 30b7 	strb.w	r3, [r7, #183]	@ 0xb7

          // xfer_isr() is deferred to xfer_cb(), revert busy/claimed status
          if (send) {
 80032e0:	f897 30b7 	ldrb.w	r3, [r7, #183]	@ 0xb7
 80032e4:	2b00      	cmp	r3, #0
 80032e6:	d035      	beq.n	8003354 <dcd_event_handler+0x508>
            _usbd_dev.ep_status[epnum][ep_dir].busy = 1;
 80032e8:	f897 20b4 	ldrb.w	r2, [r7, #180]	@ 0xb4
 80032ec:	f897 30b3 	ldrb.w	r3, [r7, #179]	@ 0xb3
 80032f0:	4911      	ldr	r1, [pc, #68]	@ (8003338 <dcd_event_handler+0x4ec>)
 80032f2:	0052      	lsls	r2, r2, #1
 80032f4:	440a      	add	r2, r1
 80032f6:	4413      	add	r3, r2
 80032f8:	f103 0220 	add.w	r2, r3, #32
 80032fc:	79d3      	ldrb	r3, [r2, #7]
 80032fe:	f043 0301 	orr.w	r3, r3, #1
 8003302:	71d3      	strb	r3, [r2, #7]
            _usbd_dev.ep_status[epnum][ep_dir].claimed = 1;
 8003304:	f897 20b4 	ldrb.w	r2, [r7, #180]	@ 0xb4
 8003308:	f897 30b3 	ldrb.w	r3, [r7, #179]	@ 0xb3
 800330c:	490a      	ldr	r1, [pc, #40]	@ (8003338 <dcd_event_handler+0x4ec>)
 800330e:	0052      	lsls	r2, r2, #1
 8003310:	440a      	add	r2, r1
 8003312:	4413      	add	r3, r2
 8003314:	f103 0220 	add.w	r2, r3, #32
 8003318:	79d3      	ldrb	r3, [r2, #7]
 800331a:	f043 0304 	orr.w	r3, r3, #4
 800331e:	71d3      	strb	r3, [r2, #7]
          }
        }
      }
      break;
 8003320:	e018      	b.n	8003354 <dcd_event_handler+0x508>
    }

    default:
      send = true;
 8003322:	2301      	movs	r3, #1
 8003324:	f887 30b7 	strb.w	r3, [r7, #183]	@ 0xb7
      break;
 8003328:	e015      	b.n	8003356 <dcd_event_handler+0x50a>
      break;
 800332a:	bf00      	nop
 800332c:	e013      	b.n	8003356 <dcd_event_handler+0x50a>
      break;
 800332e:	bf00      	nop
 8003330:	e011      	b.n	8003356 <dcd_event_handler+0x50a>
      break;
 8003332:	bf00      	nop
 8003334:	e00f      	b.n	8003356 <dcd_event_handler+0x50a>
 8003336:	bf00      	nop
 8003338:	20000434 	.word	0x20000434
 800333c:	20000534 	.word	0x20000534
 8003340:	e000edf0 	.word	0xe000edf0
 8003344:	2000046b 	.word	0x2000046b
 8003348:	20000470 	.word	0x20000470
 800334c:	2000046c 	.word	0x2000046c
 8003350:	080077fc 	.word	0x080077fc
      break;
 8003354:	bf00      	nop
  }

  if (send) {
 8003356:	f897 30b7 	ldrb.w	r3, [r7, #183]	@ 0xb7
 800335a:	2b00      	cmp	r3, #0
 800335c:	d056      	beq.n	800340c <dcd_event_handler+0x5c0>
 800335e:	687b      	ldr	r3, [r7, #4]
 8003360:	647b      	str	r3, [r7, #68]	@ 0x44
 8003362:	78fb      	ldrb	r3, [r7, #3]
 8003364:	f887 3043 	strb.w	r3, [r7, #67]	@ 0x43
  TU_ASSERT(osal_queue_send(_usbd_q, event, in_isr));
 8003368:	4b2a      	ldr	r3, [pc, #168]	@ (8003414 <dcd_event_handler+0x5c8>)
 800336a:	681b      	ldr	r3, [r3, #0]
 800336c:	63fb      	str	r3, [r7, #60]	@ 0x3c
 800336e:	6c7b      	ldr	r3, [r7, #68]	@ 0x44
 8003370:	63bb      	str	r3, [r7, #56]	@ 0x38
 8003372:	f897 3043 	ldrb.w	r3, [r7, #67]	@ 0x43
 8003376:	f887 3037 	strb.w	r3, [r7, #55]	@ 0x37
  if (!in_isr) {
 800337a:	f897 3037 	ldrb.w	r3, [r7, #55]	@ 0x37
 800337e:	f083 0301 	eor.w	r3, r3, #1
 8003382:	b2db      	uxtb	r3, r3
 8003384:	2b00      	cmp	r3, #0
 8003386:	d003      	beq.n	8003390 <dcd_event_handler+0x544>
    qhdl->interrupt_set(false);
 8003388:	6bfb      	ldr	r3, [r7, #60]	@ 0x3c
 800338a:	681b      	ldr	r3, [r3, #0]
 800338c:	2000      	movs	r0, #0
 800338e:	4798      	blx	r3
  const bool success = (tu_fifo_write_n(&qhdl->ff, data, qhdl->item_size) > 0);
 8003390:	6bfb      	ldr	r3, [r7, #60]	@ 0x3c
 8003392:	3308      	adds	r3, #8
 8003394:	6bfa      	ldr	r2, [r7, #60]	@ 0x3c
 8003396:	8892      	ldrh	r2, [r2, #4]
 8003398:	633b      	str	r3, [r7, #48]	@ 0x30
 800339a:	6bbb      	ldr	r3, [r7, #56]	@ 0x38
 800339c:	62fb      	str	r3, [r7, #44]	@ 0x2c
 800339e:	4613      	mov	r3, r2
 80033a0:	857b      	strh	r3, [r7, #42]	@ 0x2a
 80033a2:	8d7a      	ldrh	r2, [r7, #42]	@ 0x2a
 80033a4:	2300      	movs	r3, #0
 80033a6:	6af9      	ldr	r1, [r7, #44]	@ 0x2c
 80033a8:	6b38      	ldr	r0, [r7, #48]	@ 0x30
 80033aa:	f7fe fb5f 	bl	8001a6c <tu_fifo_write_n_access_mode>
 80033ae:	4603      	mov	r3, r0
 80033b0:	2b00      	cmp	r3, #0
 80033b2:	bf14      	ite	ne
 80033b4:	2301      	movne	r3, #1
 80033b6:	2300      	moveq	r3, #0
 80033b8:	f887 3029 	strb.w	r3, [r7, #41]	@ 0x29
  if (!in_isr) {
 80033bc:	f897 3037 	ldrb.w	r3, [r7, #55]	@ 0x37
 80033c0:	f083 0301 	eor.w	r3, r3, #1
 80033c4:	b2db      	uxtb	r3, r3
 80033c6:	2b00      	cmp	r3, #0
 80033c8:	d003      	beq.n	80033d2 <dcd_event_handler+0x586>
    qhdl->interrupt_set(true);
 80033ca:	6bfb      	ldr	r3, [r7, #60]	@ 0x3c
 80033cc:	681b      	ldr	r3, [r3, #0]
 80033ce:	2001      	movs	r0, #1
 80033d0:	4798      	blx	r3
  return success;
 80033d2:	f897 3029 	ldrb.w	r3, [r7, #41]	@ 0x29
 80033d6:	f083 0301 	eor.w	r3, r3, #1
 80033da:	b2db      	uxtb	r3, r3
 80033dc:	2b00      	cmp	r3, #0
 80033de:	d009      	beq.n	80033f4 <dcd_event_handler+0x5a8>
 80033e0:	4b0d      	ldr	r3, [pc, #52]	@ (8003418 <dcd_event_handler+0x5cc>)
 80033e2:	627b      	str	r3, [r7, #36]	@ 0x24
 80033e4:	6a7b      	ldr	r3, [r7, #36]	@ 0x24
 80033e6:	681b      	ldr	r3, [r3, #0]
 80033e8:	f003 0301 	and.w	r3, r3, #1
 80033ec:	2b00      	cmp	r3, #0
 80033ee:	d00c      	beq.n	800340a <dcd_event_handler+0x5be>
 80033f0:	be00      	bkpt	0x0000
 80033f2:	e00a      	b.n	800340a <dcd_event_handler+0x5be>
  tud_event_hook_cb(event->rhport, event->event_id, in_isr);
 80033f4:	6c7b      	ldr	r3, [r7, #68]	@ 0x44
 80033f6:	7818      	ldrb	r0, [r3, #0]
 80033f8:	6c7b      	ldr	r3, [r7, #68]	@ 0x44
 80033fa:	785b      	ldrb	r3, [r3, #1]
 80033fc:	4619      	mov	r1, r3
 80033fe:	f897 3043 	ldrb.w	r3, [r7, #67]	@ 0x43
 8003402:	461a      	mov	r2, r3
 8003404:	f7fe fc91 	bl	8001d2a <tud_event_hook_cb>
  return true;
 8003408:	e000      	b.n	800340c <dcd_event_handler+0x5c0>
  TU_ASSERT(osal_queue_send(_usbd_q, event, in_isr));
 800340a:	bf00      	nop
    queue_event(event, in_isr);
  }
}
 800340c:	bf00      	nop
 800340e:	37bc      	adds	r7, #188	@ 0xbc
 8003410:	46bd      	mov	sp, r7
 8003412:	bd90      	pop	{r4, r7, pc}
 8003414:	20000534 	.word	0x20000534
 8003418:	e000edf0 	.word	0xe000edf0

0800341c <usbd_int_set>:

//--------------------------------------------------------------------+
// USBD API For Class Driver
//--------------------------------------------------------------------+

void usbd_int_set(bool enabled) {
 800341c:	b580      	push	{r7, lr}
 800341e:	b082      	sub	sp, #8
 8003420:	af00      	add	r7, sp, #0
 8003422:	4603      	mov	r3, r0
 8003424:	71fb      	strb	r3, [r7, #7]
  if (enabled) {
 8003426:	79fb      	ldrb	r3, [r7, #7]
 8003428:	2b00      	cmp	r3, #0
 800342a:	d005      	beq.n	8003438 <usbd_int_set+0x1c>
    dcd_int_enable(_usbd_rhport);
 800342c:	4b07      	ldr	r3, [pc, #28]	@ (800344c <usbd_int_set+0x30>)
 800342e:	781b      	ldrb	r3, [r3, #0]
 8003430:	4618      	mov	r0, r3
 8003432:	f002 fa6d 	bl	8005910 <dcd_int_enable>
  } else {
    dcd_int_disable(_usbd_rhport);
  }
}
 8003436:	e004      	b.n	8003442 <usbd_int_set+0x26>
    dcd_int_disable(_usbd_rhport);
 8003438:	4b04      	ldr	r3, [pc, #16]	@ (800344c <usbd_int_set+0x30>)
 800343a:	781b      	ldrb	r3, [r3, #0]
 800343c:	4618      	mov	r0, r3
 800343e:	f002 fa8b 	bl	8005958 <dcd_int_disable>
}
 8003442:	bf00      	nop
 8003444:	3708      	adds	r7, #8
 8003446:	46bd      	mov	sp, r7
 8003448:	bd80      	pop	{r7, pc}
 800344a:	bf00      	nop
 800344c:	20000018 	.word	0x20000018

08003450 <usbd_edpt_open>:

//--------------------------------------------------------------------+
// USBD Endpoint API
//--------------------------------------------------------------------+

bool usbd_edpt_open(uint8_t rhport, tusb_desc_endpoint_t const* desc_ep) {
 8003450:	b580      	push	{r7, lr}
 8003452:	b088      	sub	sp, #32
 8003454:	af00      	add	r7, sp, #0
 8003456:	4603      	mov	r3, r0
 8003458:	6039      	str	r1, [r7, #0]
 800345a:	71fb      	strb	r3, [r7, #7]
  rhport = _usbd_rhport;
 800345c:	4b21      	ldr	r3, [pc, #132]	@ (80034e4 <usbd_edpt_open+0x94>)
 800345e:	781b      	ldrb	r3, [r3, #0]
 8003460:	71fb      	strb	r3, [r7, #7]

  TU_ASSERT(tu_edpt_number(desc_ep->bEndpointAddress) < CFG_TUD_ENDPPOINT_MAX);
 8003462:	683b      	ldr	r3, [r7, #0]
 8003464:	789b      	ldrb	r3, [r3, #2]
 8003466:	75fb      	strb	r3, [r7, #23]
  return (uint8_t) (addr & TUSB_EPNUM_MASK);
 8003468:	7dfb      	ldrb	r3, [r7, #23]
 800346a:	f003 030f 	and.w	r3, r3, #15
 800346e:	b2db      	uxtb	r3, r3
 8003470:	2b07      	cmp	r3, #7
 8003472:	d90a      	bls.n	800348a <usbd_edpt_open+0x3a>
 8003474:	4b1c      	ldr	r3, [pc, #112]	@ (80034e8 <usbd_edpt_open+0x98>)
 8003476:	61bb      	str	r3, [r7, #24]
 8003478:	69bb      	ldr	r3, [r7, #24]
 800347a:	681b      	ldr	r3, [r3, #0]
 800347c:	f003 0301 	and.w	r3, r3, #1
 8003480:	2b00      	cmp	r3, #0
 8003482:	d000      	beq.n	8003486 <usbd_edpt_open+0x36>
 8003484:	be00      	bkpt	0x0000
 8003486:	2300      	movs	r3, #0
 8003488:	e028      	b.n	80034dc <usbd_edpt_open+0x8c>
  TU_ASSERT(tu_edpt_validate(desc_ep, (tusb_speed_t)_usbd_dev.speed));
 800348a:	4b18      	ldr	r3, [pc, #96]	@ (80034ec <usbd_edpt_open+0x9c>)
 800348c:	795a      	ldrb	r2, [r3, #5]
 800348e:	683b      	ldr	r3, [r7, #0]
 8003490:	613b      	str	r3, [r7, #16]
 8003492:	4613      	mov	r3, r2
 8003494:	73fb      	strb	r3, [r7, #15]
 8003496:	693b      	ldr	r3, [r7, #16]
 8003498:	60bb      	str	r3, [r7, #8]
  return tu_le16toh(desc_ep->wMaxPacketSize) & 0x7FF;
 800349a:	68bb      	ldr	r3, [r7, #8]
 800349c:	889b      	ldrh	r3, [r3, #4]
 800349e:	b29b      	uxth	r3, r3
 80034a0:	f3c3 030a 	ubfx	r3, r3, #0, #11
 80034a4:	b29b      	uxth	r3, r3
  return tu_edpt_packet_size(desc_ep) > 0;
 80034a6:	2b00      	cmp	r3, #0
 80034a8:	bf14      	ite	ne
 80034aa:	2301      	movne	r3, #1
 80034ac:	2300      	moveq	r3, #0
 80034ae:	b2db      	uxtb	r3, r3
 80034b0:	f083 0301 	eor.w	r3, r3, #1
 80034b4:	b2db      	uxtb	r3, r3
 80034b6:	2b00      	cmp	r3, #0
 80034b8:	d00a      	beq.n	80034d0 <usbd_edpt_open+0x80>
 80034ba:	4b0b      	ldr	r3, [pc, #44]	@ (80034e8 <usbd_edpt_open+0x98>)
 80034bc:	61fb      	str	r3, [r7, #28]
 80034be:	69fb      	ldr	r3, [r7, #28]
 80034c0:	681b      	ldr	r3, [r3, #0]
 80034c2:	f003 0301 	and.w	r3, r3, #1
 80034c6:	2b00      	cmp	r3, #0
 80034c8:	d000      	beq.n	80034cc <usbd_edpt_open+0x7c>
 80034ca:	be00      	bkpt	0x0000
 80034cc:	2300      	movs	r3, #0
 80034ce:	e005      	b.n	80034dc <usbd_edpt_open+0x8c>

  return dcd_edpt_open(rhport, desc_ep);
 80034d0:	79fb      	ldrb	r3, [r7, #7]
 80034d2:	6839      	ldr	r1, [r7, #0]
 80034d4:	4618      	mov	r0, r3
 80034d6:	f001 fc51 	bl	8004d7c <dcd_edpt_open>
 80034da:	4603      	mov	r3, r0
}
 80034dc:	4618      	mov	r0, r3
 80034de:	3720      	adds	r7, #32
 80034e0:	46bd      	mov	sp, r7
 80034e2:	bd80      	pop	{r7, pc}
 80034e4:	20000018 	.word	0x20000018
 80034e8:	e000edf0 	.word	0xe000edf0
 80034ec:	20000434 	.word	0x20000434

080034f0 <usbd_edpt_claim>:

bool usbd_edpt_claim(uint8_t rhport, uint8_t ep_addr) {
 80034f0:	b580      	push	{r7, lr}
 80034f2:	b086      	sub	sp, #24
 80034f4:	af00      	add	r7, sp, #0
 80034f6:	4603      	mov	r3, r0
 80034f8:	460a      	mov	r2, r1
 80034fa:	71fb      	strb	r3, [r7, #7]
 80034fc:	4613      	mov	r3, r2
 80034fe:	71bb      	strb	r3, [r7, #6]
 8003500:	79bb      	ldrb	r3, [r7, #6]
 8003502:	73bb      	strb	r3, [r7, #14]
  return (uint8_t) (addr & TUSB_EPNUM_MASK);
 8003504:	7bbb      	ldrb	r3, [r7, #14]
 8003506:	f003 030f 	and.w	r3, r3, #15
 800350a:	b2db      	uxtb	r3, r3
  (void) rhport;

  // TODO add this check later, also make sure we don't starve an out endpoint while suspending
  // TU_VERIFY(tud_ready());

  uint8_t const epnum = tu_edpt_number(ep_addr);
 800350c:	75fb      	strb	r3, [r7, #23]
 800350e:	79bb      	ldrb	r3, [r7, #6]
 8003510:	73fb      	strb	r3, [r7, #15]
  return (addr & TUSB_DIR_IN_MASK) ? TUSB_DIR_IN : TUSB_DIR_OUT;
 8003512:	7bfb      	ldrb	r3, [r7, #15]
 8003514:	09db      	lsrs	r3, r3, #7
 8003516:	b2db      	uxtb	r3, r3
  uint8_t const dir = tu_edpt_dir(ep_addr);
 8003518:	75bb      	strb	r3, [r7, #22]
  tu_edpt_state_t* ep_state = &_usbd_dev.ep_status[epnum][dir];
 800351a:	7dfa      	ldrb	r2, [r7, #23]
 800351c:	7dbb      	ldrb	r3, [r7, #22]
 800351e:	0052      	lsls	r2, r2, #1
 8003520:	4413      	add	r3, r2
 8003522:	3320      	adds	r3, #32
 8003524:	4a06      	ldr	r2, [pc, #24]	@ (8003540 <usbd_edpt_claim+0x50>)
 8003526:	4413      	add	r3, r2
 8003528:	3307      	adds	r3, #7
 800352a:	613b      	str	r3, [r7, #16]

  return tu_edpt_claim(ep_state, _usbd_mutex);
 800352c:	2100      	movs	r1, #0
 800352e:	6938      	ldr	r0, [r7, #16]
 8003530:	f002 fb12 	bl	8005b58 <tu_edpt_claim>
 8003534:	4603      	mov	r3, r0
}
 8003536:	4618      	mov	r0, r3
 8003538:	3718      	adds	r7, #24
 800353a:	46bd      	mov	sp, r7
 800353c:	bd80      	pop	{r7, pc}
 800353e:	bf00      	nop
 8003540:	20000434 	.word	0x20000434

08003544 <usbd_edpt_release>:

bool usbd_edpt_release(uint8_t rhport, uint8_t ep_addr) {
 8003544:	b580      	push	{r7, lr}
 8003546:	b086      	sub	sp, #24
 8003548:	af00      	add	r7, sp, #0
 800354a:	4603      	mov	r3, r0
 800354c:	460a      	mov	r2, r1
 800354e:	71fb      	strb	r3, [r7, #7]
 8003550:	4613      	mov	r3, r2
 8003552:	71bb      	strb	r3, [r7, #6]
 8003554:	79bb      	ldrb	r3, [r7, #6]
 8003556:	73bb      	strb	r3, [r7, #14]
  return (uint8_t) (addr & TUSB_EPNUM_MASK);
 8003558:	7bbb      	ldrb	r3, [r7, #14]
 800355a:	f003 030f 	and.w	r3, r3, #15
 800355e:	b2db      	uxtb	r3, r3
  (void) rhport;

  uint8_t const epnum = tu_edpt_number(ep_addr);
 8003560:	75fb      	strb	r3, [r7, #23]
 8003562:	79bb      	ldrb	r3, [r7, #6]
 8003564:	73fb      	strb	r3, [r7, #15]
  return (addr & TUSB_DIR_IN_MASK) ? TUSB_DIR_IN : TUSB_DIR_OUT;
 8003566:	7bfb      	ldrb	r3, [r7, #15]
 8003568:	09db      	lsrs	r3, r3, #7
 800356a:	b2db      	uxtb	r3, r3
  uint8_t const dir = tu_edpt_dir(ep_addr);
 800356c:	75bb      	strb	r3, [r7, #22]
  tu_edpt_state_t* ep_state = &_usbd_dev.ep_status[epnum][dir];
 800356e:	7dfa      	ldrb	r2, [r7, #23]
 8003570:	7dbb      	ldrb	r3, [r7, #22]
 8003572:	0052      	lsls	r2, r2, #1
 8003574:	4413      	add	r3, r2
 8003576:	3320      	adds	r3, #32
 8003578:	4a06      	ldr	r2, [pc, #24]	@ (8003594 <usbd_edpt_release+0x50>)
 800357a:	4413      	add	r3, r2
 800357c:	3307      	adds	r3, #7
 800357e:	613b      	str	r3, [r7, #16]

  return tu_edpt_release(ep_state, _usbd_mutex);
 8003580:	2100      	movs	r1, #0
 8003582:	6938      	ldr	r0, [r7, #16]
 8003584:	f002 fb23 	bl	8005bce <tu_edpt_release>
 8003588:	4603      	mov	r3, r0
}
 800358a:	4618      	mov	r0, r3
 800358c:	3718      	adds	r7, #24
 800358e:	46bd      	mov	sp, r7
 8003590:	bd80      	pop	{r7, pc}
 8003592:	bf00      	nop
 8003594:	20000434 	.word	0x20000434

08003598 <usbd_edpt_xfer>:

bool usbd_edpt_xfer(uint8_t rhport, uint8_t ep_addr, uint8_t* buffer, uint16_t total_bytes, bool is_isr) {
 8003598:	b580      	push	{r7, lr}
 800359a:	b088      	sub	sp, #32
 800359c:	af02      	add	r7, sp, #8
 800359e:	603a      	str	r2, [r7, #0]
 80035a0:	461a      	mov	r2, r3
 80035a2:	4603      	mov	r3, r0
 80035a4:	71fb      	strb	r3, [r7, #7]
 80035a6:	460b      	mov	r3, r1
 80035a8:	71bb      	strb	r3, [r7, #6]
 80035aa:	4613      	mov	r3, r2
 80035ac:	80bb      	strh	r3, [r7, #4]
  rhport = _usbd_rhport;
 80035ae:	4b34      	ldr	r3, [pc, #208]	@ (8003680 <usbd_edpt_xfer+0xe8>)
 80035b0:	781b      	ldrb	r3, [r3, #0]
 80035b2:	71fb      	strb	r3, [r7, #7]
 80035b4:	79bb      	ldrb	r3, [r7, #6]
 80035b6:	72bb      	strb	r3, [r7, #10]
  return (uint8_t) (addr & TUSB_EPNUM_MASK);
 80035b8:	7abb      	ldrb	r3, [r7, #10]
 80035ba:	f003 030f 	and.w	r3, r3, #15
 80035be:	b2db      	uxtb	r3, r3

  uint8_t const epnum = tu_edpt_number(ep_addr);
 80035c0:	75fb      	strb	r3, [r7, #23]
 80035c2:	79bb      	ldrb	r3, [r7, #6]
 80035c4:	72fb      	strb	r3, [r7, #11]
  return (addr & TUSB_DIR_IN_MASK) ? TUSB_DIR_IN : TUSB_DIR_OUT;
 80035c6:	7afb      	ldrb	r3, [r7, #11]
 80035c8:	09db      	lsrs	r3, r3, #7
 80035ca:	b2db      	uxtb	r3, r3
  uint8_t const dir = tu_edpt_dir(ep_addr);
 80035cc:	75bb      	strb	r3, [r7, #22]
    TU_LOG_MEM(CFG_TUD_LOG_LEVEL, buffer, total_bytes, 2);
  }
#endif

  // Attempt to transfer on a busy endpoint, sound like an race condition !
  TU_ASSERT(_usbd_dev.ep_status[epnum][dir].busy == 0);
 80035ce:	7dfa      	ldrb	r2, [r7, #23]
 80035d0:	7dbb      	ldrb	r3, [r7, #22]
 80035d2:	492c      	ldr	r1, [pc, #176]	@ (8003684 <usbd_edpt_xfer+0xec>)
 80035d4:	0052      	lsls	r2, r2, #1
 80035d6:	440a      	add	r2, r1
 80035d8:	4413      	add	r3, r2
 80035da:	3320      	adds	r3, #32
 80035dc:	79db      	ldrb	r3, [r3, #7]
 80035de:	f3c3 0300 	ubfx	r3, r3, #0, #1
 80035e2:	b2db      	uxtb	r3, r3
 80035e4:	2b00      	cmp	r3, #0
 80035e6:	d00a      	beq.n	80035fe <usbd_edpt_xfer+0x66>
 80035e8:	4b27      	ldr	r3, [pc, #156]	@ (8003688 <usbd_edpt_xfer+0xf0>)
 80035ea:	60fb      	str	r3, [r7, #12]
 80035ec:	68fb      	ldr	r3, [r7, #12]
 80035ee:	681b      	ldr	r3, [r3, #0]
 80035f0:	f003 0301 	and.w	r3, r3, #1
 80035f4:	2b00      	cmp	r3, #0
 80035f6:	d000      	beq.n	80035fa <usbd_edpt_xfer+0x62>
 80035f8:	be00      	bkpt	0x0000
 80035fa:	2300      	movs	r3, #0
 80035fc:	e03c      	b.n	8003678 <usbd_edpt_xfer+0xe0>

  // Set busy first since the actual transfer can be complete before dcd_edpt_xfer()
  // could return and USBD task can preempt and clear the busy
  _usbd_dev.ep_status[epnum][dir].busy = 1;
 80035fe:	7dfa      	ldrb	r2, [r7, #23]
 8003600:	7dbb      	ldrb	r3, [r7, #22]
 8003602:	4920      	ldr	r1, [pc, #128]	@ (8003684 <usbd_edpt_xfer+0xec>)
 8003604:	0052      	lsls	r2, r2, #1
 8003606:	440a      	add	r2, r1
 8003608:	4413      	add	r3, r2
 800360a:	f103 0220 	add.w	r2, r3, #32
 800360e:	79d3      	ldrb	r3, [r2, #7]
 8003610:	f043 0301 	orr.w	r3, r3, #1
 8003614:	71d3      	strb	r3, [r2, #7]

  if (dcd_edpt_xfer(rhport, ep_addr, buffer, total_bytes, is_isr)) {
 8003616:	88ba      	ldrh	r2, [r7, #4]
 8003618:	79b9      	ldrb	r1, [r7, #6]
 800361a:	79f8      	ldrb	r0, [r7, #7]
 800361c:	f897 3020 	ldrb.w	r3, [r7, #32]
 8003620:	9300      	str	r3, [sp, #0]
 8003622:	4613      	mov	r3, r2
 8003624:	683a      	ldr	r2, [r7, #0]
 8003626:	f001 ff6f 	bl	8005508 <dcd_edpt_xfer>
 800362a:	4603      	mov	r3, r0
 800362c:	2b00      	cmp	r3, #0
 800362e:	d001      	beq.n	8003634 <usbd_edpt_xfer+0x9c>
    return true;
 8003630:	2301      	movs	r3, #1
 8003632:	e021      	b.n	8003678 <usbd_edpt_xfer+0xe0>
  } else {
    // DCD error, mark endpoint as ready to allow next transfer
    _usbd_dev.ep_status[epnum][dir].busy = 0;
 8003634:	7dfa      	ldrb	r2, [r7, #23]
 8003636:	7dbb      	ldrb	r3, [r7, #22]
 8003638:	4912      	ldr	r1, [pc, #72]	@ (8003684 <usbd_edpt_xfer+0xec>)
 800363a:	0052      	lsls	r2, r2, #1
 800363c:	440a      	add	r2, r1
 800363e:	4413      	add	r3, r2
 8003640:	f103 0220 	add.w	r2, r3, #32
 8003644:	79d3      	ldrb	r3, [r2, #7]
 8003646:	f023 0301 	bic.w	r3, r3, #1
 800364a:	71d3      	strb	r3, [r2, #7]
    _usbd_dev.ep_status[epnum][dir].claimed = 0;
 800364c:	7dfa      	ldrb	r2, [r7, #23]
 800364e:	7dbb      	ldrb	r3, [r7, #22]
 8003650:	490c      	ldr	r1, [pc, #48]	@ (8003684 <usbd_edpt_xfer+0xec>)
 8003652:	0052      	lsls	r2, r2, #1
 8003654:	440a      	add	r2, r1
 8003656:	4413      	add	r3, r2
 8003658:	f103 0220 	add.w	r2, r3, #32
 800365c:	79d3      	ldrb	r3, [r2, #7]
 800365e:	f023 0304 	bic.w	r3, r3, #4
 8003662:	71d3      	strb	r3, [r2, #7]
    TU_LOG_USBD("FAILED\r\n");
    TU_BREAKPOINT();
 8003664:	4b08      	ldr	r3, [pc, #32]	@ (8003688 <usbd_edpt_xfer+0xf0>)
 8003666:	613b      	str	r3, [r7, #16]
 8003668:	693b      	ldr	r3, [r7, #16]
 800366a:	681b      	ldr	r3, [r3, #0]
 800366c:	f003 0301 	and.w	r3, r3, #1
 8003670:	2b00      	cmp	r3, #0
 8003672:	d000      	beq.n	8003676 <usbd_edpt_xfer+0xde>
 8003674:	be00      	bkpt	0x0000
    return false;
 8003676:	2300      	movs	r3, #0
  }
}
 8003678:	4618      	mov	r0, r3
 800367a:	3718      	adds	r7, #24
 800367c:	46bd      	mov	sp, r7
 800367e:	bd80      	pop	{r7, pc}
 8003680:	20000018 	.word	0x20000018
 8003684:	20000434 	.word	0x20000434
 8003688:	e000edf0 	.word	0xe000edf0

0800368c <usbd_edpt_xfer_fifo>:

// The number of bytes has to be given explicitly to allow more flexible control of how many
// bytes should be written and second to keep the return value free to give back a boolean
// success message. If total_bytes is too big, the FIFO will copy only what is available
// into the USB buffer!
bool usbd_edpt_xfer_fifo(uint8_t rhport, uint8_t ep_addr, tu_fifo_t* ff, uint16_t total_bytes, bool is_isr) {
 800368c:	b580      	push	{r7, lr}
 800368e:	b088      	sub	sp, #32
 8003690:	af02      	add	r7, sp, #8
 8003692:	603a      	str	r2, [r7, #0]
 8003694:	461a      	mov	r2, r3
 8003696:	4603      	mov	r3, r0
 8003698:	71fb      	strb	r3, [r7, #7]
 800369a:	460b      	mov	r3, r1
 800369c:	71bb      	strb	r3, [r7, #6]
 800369e:	4613      	mov	r3, r2
 80036a0:	80bb      	strh	r3, [r7, #4]
  #if CFG_TUD_EDPT_DEDICATED_HWFIFO
  rhport = _usbd_rhport;
 80036a2:	4b34      	ldr	r3, [pc, #208]	@ (8003774 <usbd_edpt_xfer_fifo+0xe8>)
 80036a4:	781b      	ldrb	r3, [r3, #0]
 80036a6:	71fb      	strb	r3, [r7, #7]
 80036a8:	79bb      	ldrb	r3, [r7, #6]
 80036aa:	72bb      	strb	r3, [r7, #10]
  return (uint8_t) (addr & TUSB_EPNUM_MASK);
 80036ac:	7abb      	ldrb	r3, [r7, #10]
 80036ae:	f003 030f 	and.w	r3, r3, #15
 80036b2:	b2db      	uxtb	r3, r3

  uint8_t const epnum = tu_edpt_number(ep_addr);
 80036b4:	75fb      	strb	r3, [r7, #23]
 80036b6:	79bb      	ldrb	r3, [r7, #6]
 80036b8:	72fb      	strb	r3, [r7, #11]
  return (addr & TUSB_DIR_IN_MASK) ? TUSB_DIR_IN : TUSB_DIR_OUT;
 80036ba:	7afb      	ldrb	r3, [r7, #11]
 80036bc:	09db      	lsrs	r3, r3, #7
 80036be:	b2db      	uxtb	r3, r3
  uint8_t const dir = tu_edpt_dir(ep_addr);
 80036c0:	75bb      	strb	r3, [r7, #22]

  TU_LOG_USBD("  Queue FIFO EP %02X with %u bytes ... ", ep_addr, total_bytes);

  // Attempt to transfer on a busy endpoint, sound like a race condition !
  TU_ASSERT(_usbd_dev.ep_status[epnum][dir].busy == 0);
 80036c2:	7dfa      	ldrb	r2, [r7, #23]
 80036c4:	7dbb      	ldrb	r3, [r7, #22]
 80036c6:	492c      	ldr	r1, [pc, #176]	@ (8003778 <usbd_edpt_xfer_fifo+0xec>)
 80036c8:	0052      	lsls	r2, r2, #1
 80036ca:	440a      	add	r2, r1
 80036cc:	4413      	add	r3, r2
 80036ce:	3320      	adds	r3, #32
 80036d0:	79db      	ldrb	r3, [r3, #7]
 80036d2:	f3c3 0300 	ubfx	r3, r3, #0, #1
 80036d6:	b2db      	uxtb	r3, r3
 80036d8:	2b00      	cmp	r3, #0
 80036da:	d00a      	beq.n	80036f2 <usbd_edpt_xfer_fifo+0x66>
 80036dc:	4b27      	ldr	r3, [pc, #156]	@ (800377c <usbd_edpt_xfer_fifo+0xf0>)
 80036de:	60fb      	str	r3, [r7, #12]
 80036e0:	68fb      	ldr	r3, [r7, #12]
 80036e2:	681b      	ldr	r3, [r3, #0]
 80036e4:	f003 0301 	and.w	r3, r3, #1
 80036e8:	2b00      	cmp	r3, #0
 80036ea:	d000      	beq.n	80036ee <usbd_edpt_xfer_fifo+0x62>
 80036ec:	be00      	bkpt	0x0000
 80036ee:	2300      	movs	r3, #0
 80036f0:	e03c      	b.n	800376c <usbd_edpt_xfer_fifo+0xe0>

  // Set busy first since the actual transfer can be complete before dcd_edpt_xfer() could return
  // and usbd task can preempt and clear the busy
  _usbd_dev.ep_status[epnum][dir].busy = 1;
 80036f2:	7dfa      	ldrb	r2, [r7, #23]
 80036f4:	7dbb      	ldrb	r3, [r7, #22]
 80036f6:	4920      	ldr	r1, [pc, #128]	@ (8003778 <usbd_edpt_xfer_fifo+0xec>)
 80036f8:	0052      	lsls	r2, r2, #1
 80036fa:	440a      	add	r2, r1
 80036fc:	4413      	add	r3, r2
 80036fe:	f103 0220 	add.w	r2, r3, #32
 8003702:	79d3      	ldrb	r3, [r2, #7]
 8003704:	f043 0301 	orr.w	r3, r3, #1
 8003708:	71d3      	strb	r3, [r2, #7]

  if (dcd_edpt_xfer_fifo(rhport, ep_addr, ff, total_bytes, is_isr)) {
 800370a:	88ba      	ldrh	r2, [r7, #4]
 800370c:	79b9      	ldrb	r1, [r7, #6]
 800370e:	79f8      	ldrb	r0, [r7, #7]
 8003710:	f897 3020 	ldrb.w	r3, [r7, #32]
 8003714:	9300      	str	r3, [sp, #0]
 8003716:	4613      	mov	r3, r2
 8003718:	683a      	ldr	r2, [r7, #0]
 800371a:	f001 ff33 	bl	8005584 <dcd_edpt_xfer_fifo>
 800371e:	4603      	mov	r3, r0
 8003720:	2b00      	cmp	r3, #0
 8003722:	d001      	beq.n	8003728 <usbd_edpt_xfer_fifo+0x9c>
    TU_LOG_USBD("OK\r\n");
    return true;
 8003724:	2301      	movs	r3, #1
 8003726:	e021      	b.n	800376c <usbd_edpt_xfer_fifo+0xe0>
  } else {
    // DCD error, mark endpoint as ready to allow next transfer
    _usbd_dev.ep_status[epnum][dir].busy = 0;
 8003728:	7dfa      	ldrb	r2, [r7, #23]
 800372a:	7dbb      	ldrb	r3, [r7, #22]
 800372c:	4912      	ldr	r1, [pc, #72]	@ (8003778 <usbd_edpt_xfer_fifo+0xec>)
 800372e:	0052      	lsls	r2, r2, #1
 8003730:	440a      	add	r2, r1
 8003732:	4413      	add	r3, r2
 8003734:	f103 0220 	add.w	r2, r3, #32
 8003738:	79d3      	ldrb	r3, [r2, #7]
 800373a:	f023 0301 	bic.w	r3, r3, #1
 800373e:	71d3      	strb	r3, [r2, #7]
    _usbd_dev.ep_status[epnum][dir].claimed = 0;
 8003740:	7dfa      	ldrb	r2, [r7, #23]
 8003742:	7dbb      	ldrb	r3, [r7, #22]
 8003744:	490c      	ldr	r1, [pc, #48]	@ (8003778 <usbd_edpt_xfer_fifo+0xec>)
 8003746:	0052      	lsls	r2, r2, #1
 8003748:	440a      	add	r2, r1
 800374a:	4413      	add	r3, r2
 800374c:	f103 0220 	add.w	r2, r3, #32
 8003750:	79d3      	ldrb	r3, [r2, #7]
 8003752:	f023 0304 	bic.w	r3, r3, #4
 8003756:	71d3      	strb	r3, [r2, #7]
    TU_LOG_USBD("failed\r\n");
    TU_BREAKPOINT();
 8003758:	4b08      	ldr	r3, [pc, #32]	@ (800377c <usbd_edpt_xfer_fifo+0xf0>)
 800375a:	613b      	str	r3, [r7, #16]
 800375c:	693b      	ldr	r3, [r7, #16]
 800375e:	681b      	ldr	r3, [r3, #0]
 8003760:	f003 0301 	and.w	r3, r3, #1
 8003764:	2b00      	cmp	r3, #0
 8003766:	d000      	beq.n	800376a <usbd_edpt_xfer_fifo+0xde>
 8003768:	be00      	bkpt	0x0000
    return false;
 800376a:	2300      	movs	r3, #0
  (void)ff;
  (void)total_bytes;
  (void)is_isr;
  return false;
  #endif
}
 800376c:	4618      	mov	r0, r3
 800376e:	3718      	adds	r7, #24
 8003770:	46bd      	mov	sp, r7
 8003772:	bd80      	pop	{r7, pc}
 8003774:	20000018 	.word	0x20000018
 8003778:	20000434 	.word	0x20000434
 800377c:	e000edf0 	.word	0xe000edf0

08003780 <usbd_edpt_stall>:
  uint8_t const dir = tu_edpt_dir(ep_addr);

  return _usbd_dev.ep_status[epnum][dir].busy;
}

void usbd_edpt_stall(uint8_t rhport, uint8_t ep_addr) {
 8003780:	b580      	push	{r7, lr}
 8003782:	b084      	sub	sp, #16
 8003784:	af00      	add	r7, sp, #0
 8003786:	4603      	mov	r3, r0
 8003788:	460a      	mov	r2, r1
 800378a:	71fb      	strb	r3, [r7, #7]
 800378c:	4613      	mov	r3, r2
 800378e:	71bb      	strb	r3, [r7, #6]
  rhport = _usbd_rhport;
 8003790:	4b18      	ldr	r3, [pc, #96]	@ (80037f4 <usbd_edpt_stall+0x74>)
 8003792:	781b      	ldrb	r3, [r3, #0]
 8003794:	71fb      	strb	r3, [r7, #7]
 8003796:	79bb      	ldrb	r3, [r7, #6]
 8003798:	733b      	strb	r3, [r7, #12]
  return (uint8_t) (addr & TUSB_EPNUM_MASK);
 800379a:	7b3b      	ldrb	r3, [r7, #12]
 800379c:	f003 030f 	and.w	r3, r3, #15
 80037a0:	b2db      	uxtb	r3, r3

  uint8_t const epnum = tu_edpt_number(ep_addr);
 80037a2:	73fb      	strb	r3, [r7, #15]
 80037a4:	79bb      	ldrb	r3, [r7, #6]
 80037a6:	737b      	strb	r3, [r7, #13]
  return (addr & TUSB_DIR_IN_MASK) ? TUSB_DIR_IN : TUSB_DIR_OUT;
 80037a8:	7b7b      	ldrb	r3, [r7, #13]
 80037aa:	09db      	lsrs	r3, r3, #7
 80037ac:	b2db      	uxtb	r3, r3
  uint8_t const dir = tu_edpt_dir(ep_addr);
 80037ae:	73bb      	strb	r3, [r7, #14]

  // only stalled if currently cleared
  TU_LOG_USBD("    Stall EP %02X\r\n", ep_addr);
  dcd_edpt_stall(rhport, ep_addr);
 80037b0:	79ba      	ldrb	r2, [r7, #6]
 80037b2:	79fb      	ldrb	r3, [r7, #7]
 80037b4:	4611      	mov	r1, r2
 80037b6:	4618      	mov	r0, r3
 80037b8:	f001 ff22 	bl	8005600 <dcd_edpt_stall>
  _usbd_dev.ep_status[epnum][dir].stalled = 1;
 80037bc:	7bfa      	ldrb	r2, [r7, #15]
 80037be:	7bbb      	ldrb	r3, [r7, #14]
 80037c0:	490d      	ldr	r1, [pc, #52]	@ (80037f8 <usbd_edpt_stall+0x78>)
 80037c2:	0052      	lsls	r2, r2, #1
 80037c4:	440a      	add	r2, r1
 80037c6:	4413      	add	r3, r2
 80037c8:	f103 0220 	add.w	r2, r3, #32
 80037cc:	79d3      	ldrb	r3, [r2, #7]
 80037ce:	f043 0302 	orr.w	r3, r3, #2
 80037d2:	71d3      	strb	r3, [r2, #7]
  _usbd_dev.ep_status[epnum][dir].busy = 1;
 80037d4:	7bfa      	ldrb	r2, [r7, #15]
 80037d6:	7bbb      	ldrb	r3, [r7, #14]
 80037d8:	4907      	ldr	r1, [pc, #28]	@ (80037f8 <usbd_edpt_stall+0x78>)
 80037da:	0052      	lsls	r2, r2, #1
 80037dc:	440a      	add	r2, r1
 80037de:	4413      	add	r3, r2
 80037e0:	f103 0220 	add.w	r2, r3, #32
 80037e4:	79d3      	ldrb	r3, [r2, #7]
 80037e6:	f043 0301 	orr.w	r3, r3, #1
 80037ea:	71d3      	strb	r3, [r2, #7]
}
 80037ec:	bf00      	nop
 80037ee:	3710      	adds	r7, #16
 80037f0:	46bd      	mov	sp, r7
 80037f2:	bd80      	pop	{r7, pc}
 80037f4:	20000018 	.word	0x20000018
 80037f8:	20000434 	.word	0x20000434

080037fc <usbd_edpt_clear_stall>:

void usbd_edpt_clear_stall(uint8_t rhport, uint8_t ep_addr) {
 80037fc:	b580      	push	{r7, lr}
 80037fe:	b084      	sub	sp, #16
 8003800:	af00      	add	r7, sp, #0
 8003802:	4603      	mov	r3, r0
 8003804:	460a      	mov	r2, r1
 8003806:	71fb      	strb	r3, [r7, #7]
 8003808:	4613      	mov	r3, r2
 800380a:	71bb      	strb	r3, [r7, #6]
  rhport = _usbd_rhport;
 800380c:	4b18      	ldr	r3, [pc, #96]	@ (8003870 <usbd_edpt_clear_stall+0x74>)
 800380e:	781b      	ldrb	r3, [r3, #0]
 8003810:	71fb      	strb	r3, [r7, #7]
 8003812:	79bb      	ldrb	r3, [r7, #6]
 8003814:	733b      	strb	r3, [r7, #12]
  return (uint8_t) (addr & TUSB_EPNUM_MASK);
 8003816:	7b3b      	ldrb	r3, [r7, #12]
 8003818:	f003 030f 	and.w	r3, r3, #15
 800381c:	b2db      	uxtb	r3, r3

  uint8_t const epnum = tu_edpt_number(ep_addr);
 800381e:	73fb      	strb	r3, [r7, #15]
 8003820:	79bb      	ldrb	r3, [r7, #6]
 8003822:	737b      	strb	r3, [r7, #13]
  return (addr & TUSB_DIR_IN_MASK) ? TUSB_DIR_IN : TUSB_DIR_OUT;
 8003824:	7b7b      	ldrb	r3, [r7, #13]
 8003826:	09db      	lsrs	r3, r3, #7
 8003828:	b2db      	uxtb	r3, r3
  uint8_t const dir = tu_edpt_dir(ep_addr);
 800382a:	73bb      	strb	r3, [r7, #14]

  // only clear if currently stalled
  TU_LOG_USBD("    Clear Stall EP %02X\r\n", ep_addr);
  dcd_edpt_clear_stall(rhport, ep_addr);
 800382c:	79ba      	ldrb	r2, [r7, #6]
 800382e:	79fb      	ldrb	r3, [r7, #7]
 8003830:	4611      	mov	r1, r2
 8003832:	4618      	mov	r0, r3
 8003834:	f001 ff8e 	bl	8005754 <dcd_edpt_clear_stall>
  _usbd_dev.ep_status[epnum][dir].stalled = 0;
 8003838:	7bfa      	ldrb	r2, [r7, #15]
 800383a:	7bbb      	ldrb	r3, [r7, #14]
 800383c:	490d      	ldr	r1, [pc, #52]	@ (8003874 <usbd_edpt_clear_stall+0x78>)
 800383e:	0052      	lsls	r2, r2, #1
 8003840:	440a      	add	r2, r1
 8003842:	4413      	add	r3, r2
 8003844:	f103 0220 	add.w	r2, r3, #32
 8003848:	79d3      	ldrb	r3, [r2, #7]
 800384a:	f023 0302 	bic.w	r3, r3, #2
 800384e:	71d3      	strb	r3, [r2, #7]
  _usbd_dev.ep_status[epnum][dir].busy = 0;
 8003850:	7bfa      	ldrb	r2, [r7, #15]
 8003852:	7bbb      	ldrb	r3, [r7, #14]
 8003854:	4907      	ldr	r1, [pc, #28]	@ (8003874 <usbd_edpt_clear_stall+0x78>)
 8003856:	0052      	lsls	r2, r2, #1
 8003858:	440a      	add	r2, r1
 800385a:	4413      	add	r3, r2
 800385c:	f103 0220 	add.w	r2, r3, #32
 8003860:	79d3      	ldrb	r3, [r2, #7]
 8003862:	f023 0301 	bic.w	r3, r3, #1
 8003866:	71d3      	strb	r3, [r2, #7]
}
 8003868:	bf00      	nop
 800386a:	3710      	adds	r7, #16
 800386c:	46bd      	mov	sp, r7
 800386e:	bd80      	pop	{r7, pc}
 8003870:	20000018 	.word	0x20000018
 8003874:	20000434 	.word	0x20000434

08003878 <usbd_edpt_stalled>:

bool usbd_edpt_stalled(uint8_t rhport, uint8_t ep_addr) {
 8003878:	b480      	push	{r7}
 800387a:	b085      	sub	sp, #20
 800387c:	af00      	add	r7, sp, #0
 800387e:	4603      	mov	r3, r0
 8003880:	460a      	mov	r2, r1
 8003882:	71fb      	strb	r3, [r7, #7]
 8003884:	4613      	mov	r3, r2
 8003886:	71bb      	strb	r3, [r7, #6]
 8003888:	79bb      	ldrb	r3, [r7, #6]
 800388a:	733b      	strb	r3, [r7, #12]
  return (uint8_t) (addr & TUSB_EPNUM_MASK);
 800388c:	7b3b      	ldrb	r3, [r7, #12]
 800388e:	f003 030f 	and.w	r3, r3, #15
 8003892:	b2db      	uxtb	r3, r3
  (void) rhport;

  uint8_t const epnum = tu_edpt_number(ep_addr);
 8003894:	73fb      	strb	r3, [r7, #15]
 8003896:	79bb      	ldrb	r3, [r7, #6]
 8003898:	737b      	strb	r3, [r7, #13]
  return (addr & TUSB_DIR_IN_MASK) ? TUSB_DIR_IN : TUSB_DIR_OUT;
 800389a:	7b7b      	ldrb	r3, [r7, #13]
 800389c:	09db      	lsrs	r3, r3, #7
 800389e:	b2db      	uxtb	r3, r3
  uint8_t const dir = tu_edpt_dir(ep_addr);
 80038a0:	73bb      	strb	r3, [r7, #14]

  return _usbd_dev.ep_status[epnum][dir].stalled;
 80038a2:	7bfa      	ldrb	r2, [r7, #15]
 80038a4:	7bbb      	ldrb	r3, [r7, #14]
 80038a6:	4909      	ldr	r1, [pc, #36]	@ (80038cc <usbd_edpt_stalled+0x54>)
 80038a8:	0052      	lsls	r2, r2, #1
 80038aa:	440a      	add	r2, r1
 80038ac:	4413      	add	r3, r2
 80038ae:	3320      	adds	r3, #32
 80038b0:	79db      	ldrb	r3, [r3, #7]
 80038b2:	f3c3 0340 	ubfx	r3, r3, #1, #1
 80038b6:	b2db      	uxtb	r3, r3
 80038b8:	2b00      	cmp	r3, #0
 80038ba:	bf14      	ite	ne
 80038bc:	2301      	movne	r3, #1
 80038be:	2300      	moveq	r3, #0
 80038c0:	b2db      	uxtb	r3, r3
}
 80038c2:	4618      	mov	r0, r3
 80038c4:	3714      	adds	r7, #20
 80038c6:	46bd      	mov	sp, r7
 80038c8:	bc80      	pop	{r7}
 80038ca:	4770      	bx	lr
 80038cc:	20000434 	.word	0x20000434

080038d0 <status_stage_xact>:
//--------------------------------------------------------------------+
// Application API
//--------------------------------------------------------------------+

// Queue ZLP status transaction
static inline bool status_stage_xact(uint8_t rhport, const tusb_control_request_t* request) {
 80038d0:	b580      	push	{r7, lr}
 80038d2:	b086      	sub	sp, #24
 80038d4:	af02      	add	r7, sp, #8
 80038d6:	4603      	mov	r3, r0
 80038d8:	6039      	str	r1, [r7, #0]
 80038da:	71fb      	strb	r3, [r7, #7]
  // Opposite to endpoint in Data Phase
  const uint8_t ep_addr = request->bmRequestType_bit.direction ? EDPT_CTRL_OUT : EDPT_CTRL_IN;
 80038dc:	683b      	ldr	r3, [r7, #0]
 80038de:	781b      	ldrb	r3, [r3, #0]
 80038e0:	f023 037f 	bic.w	r3, r3, #127	@ 0x7f
 80038e4:	b2db      	uxtb	r3, r3
 80038e6:	2b00      	cmp	r3, #0
 80038e8:	d001      	beq.n	80038ee <status_stage_xact+0x1e>
 80038ea:	2300      	movs	r3, #0
 80038ec:	e000      	b.n	80038f0 <status_stage_xact+0x20>
 80038ee:	2380      	movs	r3, #128	@ 0x80
 80038f0:	73fb      	strb	r3, [r7, #15]
  return usbd_edpt_xfer(rhport, ep_addr, NULL, 0, false);
 80038f2:	7bf9      	ldrb	r1, [r7, #15]
 80038f4:	79f8      	ldrb	r0, [r7, #7]
 80038f6:	2300      	movs	r3, #0
 80038f8:	9300      	str	r3, [sp, #0]
 80038fa:	2300      	movs	r3, #0
 80038fc:	2200      	movs	r2, #0
 80038fe:	f7ff fe4b 	bl	8003598 <usbd_edpt_xfer>
 8003902:	4603      	mov	r3, r0
}
 8003904:	4618      	mov	r0, r3
 8003906:	3710      	adds	r7, #16
 8003908:	46bd      	mov	sp, r7
 800390a:	bd80      	pop	{r7, pc}

0800390c <tud_control_status>:

// Status phase
bool tud_control_status(uint8_t rhport, const tusb_control_request_t* request) {
 800390c:	b580      	push	{r7, lr}
 800390e:	b082      	sub	sp, #8
 8003910:	af00      	add	r7, sp, #0
 8003912:	4603      	mov	r3, r0
 8003914:	6039      	str	r1, [r7, #0]
 8003916:	71fb      	strb	r3, [r7, #7]
  _ctrl_xfer.request = (*request);
 8003918:	4b0b      	ldr	r3, [pc, #44]	@ (8003948 <tud_control_status+0x3c>)
 800391a:	683a      	ldr	r2, [r7, #0]
 800391c:	6810      	ldr	r0, [r2, #0]
 800391e:	6851      	ldr	r1, [r2, #4]
 8003920:	c303      	stmia	r3!, {r0, r1}
  _ctrl_xfer.buffer = NULL;
 8003922:	4b09      	ldr	r3, [pc, #36]	@ (8003948 <tud_control_status+0x3c>)
 8003924:	2200      	movs	r2, #0
 8003926:	609a      	str	r2, [r3, #8]
  _ctrl_xfer.total_xferred = 0;
 8003928:	4b07      	ldr	r3, [pc, #28]	@ (8003948 <tud_control_status+0x3c>)
 800392a:	2200      	movs	r2, #0
 800392c:	81da      	strh	r2, [r3, #14]
  _ctrl_xfer.data_len = 0;
 800392e:	4b06      	ldr	r3, [pc, #24]	@ (8003948 <tud_control_status+0x3c>)
 8003930:	2200      	movs	r2, #0
 8003932:	819a      	strh	r2, [r3, #12]

  return status_stage_xact(rhport, request);
 8003934:	79fb      	ldrb	r3, [r7, #7]
 8003936:	6839      	ldr	r1, [r7, #0]
 8003938:	4618      	mov	r0, r3
 800393a:	f7ff ffc9 	bl	80038d0 <status_stage_xact>
 800393e:	4603      	mov	r3, r0
}
 8003940:	4618      	mov	r0, r3
 8003942:	3708      	adds	r7, #8
 8003944:	46bd      	mov	sp, r7
 8003946:	bd80      	pop	{r7, pc}
 8003948:	20000538 	.word	0x20000538

0800394c <data_stage_xact>:

// Queue a transaction in Data Stage
// Each transaction has up to Endpoint0's max packet size.
// This function can also transfer an zero-length packet
static bool data_stage_xact(uint8_t rhport) {
 800394c:	b590      	push	{r4, r7, lr}
 800394e:	b08b      	sub	sp, #44	@ 0x2c
 8003950:	af02      	add	r7, sp, #8
 8003952:	4603      	mov	r3, r0
 8003954:	71fb      	strb	r3, [r7, #7]
  const uint16_t xact_len = tu_min16(_ctrl_xfer.data_len - _ctrl_xfer.total_xferred, CFG_TUD_ENDPOINT0_BUFSIZE);
 8003956:	4b30      	ldr	r3, [pc, #192]	@ (8003a18 <data_stage_xact+0xcc>)
 8003958:	899a      	ldrh	r2, [r3, #12]
 800395a:	4b2f      	ldr	r3, [pc, #188]	@ (8003a18 <data_stage_xact+0xcc>)
 800395c:	89db      	ldrh	r3, [r3, #14]
 800395e:	1ad3      	subs	r3, r2, r3
 8003960:	b29b      	uxth	r3, r3
 8003962:	837b      	strh	r3, [r7, #26]
 8003964:	2340      	movs	r3, #64	@ 0x40
 8003966:	833b      	strh	r3, [r7, #24]
TU_ATTR_ALWAYS_INLINE static inline uint16_t tu_min16 (uint16_t x, uint16_t y) { return (x < y) ? x : y; }
 8003968:	8b7a      	ldrh	r2, [r7, #26]
 800396a:	8b3b      	ldrh	r3, [r7, #24]
 800396c:	4293      	cmp	r3, r2
 800396e:	bf28      	it	cs
 8003970:	4613      	movcs	r3, r2
 8003972:	b29b      	uxth	r3, r3
 8003974:	83bb      	strh	r3, [r7, #28]
  uint8_t ep_addr = EDPT_CTRL_OUT;
 8003976:	2300      	movs	r3, #0
 8003978:	77fb      	strb	r3, [r7, #31]

  if (_ctrl_xfer.request.bmRequestType_bit.direction == TUSB_DIR_IN) {
 800397a:	4b27      	ldr	r3, [pc, #156]	@ (8003a18 <data_stage_xact+0xcc>)
 800397c:	781b      	ldrb	r3, [r3, #0]
 800397e:	f023 037f 	bic.w	r3, r3, #127	@ 0x7f
 8003982:	b2db      	uxtb	r3, r3
 8003984:	2b00      	cmp	r3, #0
 8003986:	d034      	beq.n	80039f2 <data_stage_xact+0xa6>
    ep_addr = EDPT_CTRL_IN;
 8003988:	2380      	movs	r3, #128	@ 0x80
 800398a:	77fb      	strb	r3, [r7, #31]
    if (0u != xact_len && _ctrl_xfer.buffer != _ctrl_epbuf.buf) {
 800398c:	8bbb      	ldrh	r3, [r7, #28]
 800398e:	2b00      	cmp	r3, #0
 8003990:	d02f      	beq.n	80039f2 <data_stage_xact+0xa6>
 8003992:	4b21      	ldr	r3, [pc, #132]	@ (8003a18 <data_stage_xact+0xcc>)
 8003994:	689b      	ldr	r3, [r3, #8]
 8003996:	4a21      	ldr	r2, [pc, #132]	@ (8003a1c <data_stage_xact+0xd0>)
 8003998:	4293      	cmp	r3, r2
 800399a:	d02a      	beq.n	80039f2 <data_stage_xact+0xa6>
      TU_VERIFY(0 == tu_memcpy_s(_ctrl_epbuf.buf, CFG_TUD_ENDPOINT0_BUFSIZE, _ctrl_xfer.buffer, xact_len));
 800399c:	4b1e      	ldr	r3, [pc, #120]	@ (8003a18 <data_stage_xact+0xcc>)
 800399e:	689a      	ldr	r2, [r3, #8]
 80039a0:	8bbb      	ldrh	r3, [r7, #28]
 80039a2:	491e      	ldr	r1, [pc, #120]	@ (8003a1c <data_stage_xact+0xd0>)
 80039a4:	6179      	str	r1, [r7, #20]
 80039a6:	2140      	movs	r1, #64	@ 0x40
 80039a8:	6139      	str	r1, [r7, #16]
 80039aa:	60fa      	str	r2, [r7, #12]
 80039ac:	60bb      	str	r3, [r7, #8]
  if (dest == NULL) {
 80039ae:	697b      	ldr	r3, [r7, #20]
 80039b0:	2b00      	cmp	r3, #0
 80039b2:	d102      	bne.n	80039ba <data_stage_xact+0x6e>
    return -1;
 80039b4:	f04f 33ff 	mov.w	r3, #4294967295
 80039b8:	e017      	b.n	80039ea <data_stage_xact+0x9e>
  if (count == 0u) {
 80039ba:	68bb      	ldr	r3, [r7, #8]
 80039bc:	2b00      	cmp	r3, #0
 80039be:	d101      	bne.n	80039c4 <data_stage_xact+0x78>
    return 0;
 80039c0:	2300      	movs	r3, #0
 80039c2:	e012      	b.n	80039ea <data_stage_xact+0x9e>
  if (src == NULL) {
 80039c4:	68fb      	ldr	r3, [r7, #12]
 80039c6:	2b00      	cmp	r3, #0
 80039c8:	d102      	bne.n	80039d0 <data_stage_xact+0x84>
    return -1;
 80039ca:	f04f 33ff 	mov.w	r3, #4294967295
 80039ce:	e00c      	b.n	80039ea <data_stage_xact+0x9e>
  if (count > destsz) {
 80039d0:	693a      	ldr	r2, [r7, #16]
 80039d2:	68bb      	ldr	r3, [r7, #8]
 80039d4:	429a      	cmp	r2, r3
 80039d6:	d202      	bcs.n	80039de <data_stage_xact+0x92>
    return -1;
 80039d8:	f04f 33ff 	mov.w	r3, #4294967295
 80039dc:	e005      	b.n	80039ea <data_stage_xact+0x9e>
  (void) memcpy(dest, src, count);
 80039de:	68ba      	ldr	r2, [r7, #8]
 80039e0:	68f9      	ldr	r1, [r7, #12]
 80039e2:	6978      	ldr	r0, [r7, #20]
 80039e4:	f003 fe9c 	bl	8007720 <memcpy>
  return 0;
 80039e8:	2300      	movs	r3, #0
 80039ea:	2b00      	cmp	r3, #0
 80039ec:	d001      	beq.n	80039f2 <data_stage_xact+0xa6>
 80039ee:	2300      	movs	r3, #0
 80039f0:	e00d      	b.n	8003a0e <data_stage_xact+0xc2>
    }
  }

  return usbd_edpt_xfer(rhport, ep_addr, xact_len ? _ctrl_epbuf.buf : NULL, xact_len, false);
 80039f2:	8bbb      	ldrh	r3, [r7, #28]
 80039f4:	2b00      	cmp	r3, #0
 80039f6:	d001      	beq.n	80039fc <data_stage_xact+0xb0>
 80039f8:	4a08      	ldr	r2, [pc, #32]	@ (8003a1c <data_stage_xact+0xd0>)
 80039fa:	e000      	b.n	80039fe <data_stage_xact+0xb2>
 80039fc:	2200      	movs	r2, #0
 80039fe:	8bbb      	ldrh	r3, [r7, #28]
 8003a00:	7ff9      	ldrb	r1, [r7, #31]
 8003a02:	79f8      	ldrb	r0, [r7, #7]
 8003a04:	2400      	movs	r4, #0
 8003a06:	9400      	str	r4, [sp, #0]
 8003a08:	f7ff fdc6 	bl	8003598 <usbd_edpt_xfer>
 8003a0c:	4603      	mov	r3, r0
}
 8003a0e:	4618      	mov	r0, r3
 8003a10:	3724      	adds	r7, #36	@ 0x24
 8003a12:	46bd      	mov	sp, r7
 8003a14:	bd90      	pop	{r4, r7, pc}
 8003a16:	bf00      	nop
 8003a18:	20000538 	.word	0x20000538
 8003a1c:	2000054c 	.word	0x2000054c

08003a20 <tud_control_xfer>:

// Transmit data to/from the control endpoint.
// If the request's wLength is zero, a status packet is sent instead.
bool tud_control_xfer(uint8_t rhport, const tusb_control_request_t* request, void* buffer, uint16_t len) {
 8003a20:	b580      	push	{r7, lr}
 8003a22:	b088      	sub	sp, #32
 8003a24:	af00      	add	r7, sp, #0
 8003a26:	60b9      	str	r1, [r7, #8]
 8003a28:	607a      	str	r2, [r7, #4]
 8003a2a:	461a      	mov	r2, r3
 8003a2c:	4603      	mov	r3, r0
 8003a2e:	73fb      	strb	r3, [r7, #15]
 8003a30:	4613      	mov	r3, r2
 8003a32:	81bb      	strh	r3, [r7, #12]
  _ctrl_xfer.request = (*request);
 8003a34:	4b30      	ldr	r3, [pc, #192]	@ (8003af8 <tud_control_xfer+0xd8>)
 8003a36:	68ba      	ldr	r2, [r7, #8]
 8003a38:	6810      	ldr	r0, [r2, #0]
 8003a3a:	6851      	ldr	r1, [r2, #4]
 8003a3c:	c303      	stmia	r3!, {r0, r1}
  _ctrl_xfer.buffer = (uint8_t*) buffer;
 8003a3e:	4a2e      	ldr	r2, [pc, #184]	@ (8003af8 <tud_control_xfer+0xd8>)
 8003a40:	687b      	ldr	r3, [r7, #4]
 8003a42:	6093      	str	r3, [r2, #8]
  _ctrl_xfer.total_xferred = 0U;
 8003a44:	4b2c      	ldr	r3, [pc, #176]	@ (8003af8 <tud_control_xfer+0xd8>)
 8003a46:	2200      	movs	r2, #0
 8003a48:	81da      	strh	r2, [r3, #14]
  _ctrl_xfer.data_len = tu_min16(len, request->wLength);
 8003a4a:	68bb      	ldr	r3, [r7, #8]
 8003a4c:	88db      	ldrh	r3, [r3, #6]
 8003a4e:	b29a      	uxth	r2, r3
 8003a50:	89bb      	ldrh	r3, [r7, #12]
 8003a52:	827b      	strh	r3, [r7, #18]
 8003a54:	4613      	mov	r3, r2
 8003a56:	823b      	strh	r3, [r7, #16]
TU_ATTR_ALWAYS_INLINE static inline uint16_t tu_min16 (uint16_t x, uint16_t y) { return (x < y) ? x : y; }
 8003a58:	8a7a      	ldrh	r2, [r7, #18]
 8003a5a:	8a3b      	ldrh	r3, [r7, #16]
 8003a5c:	4293      	cmp	r3, r2
 8003a5e:	bf28      	it	cs
 8003a60:	4613      	movcs	r3, r2
 8003a62:	b29a      	uxth	r2, r3
 8003a64:	4b24      	ldr	r3, [pc, #144]	@ (8003af8 <tud_control_xfer+0xd8>)
 8003a66:	819a      	strh	r2, [r3, #12]

  if (request->wLength > 0U) {
 8003a68:	68bb      	ldr	r3, [r7, #8]
 8003a6a:	88db      	ldrh	r3, [r3, #6]
 8003a6c:	b29b      	uxth	r3, r3
 8003a6e:	2b00      	cmp	r3, #0
 8003a70:	d026      	beq.n	8003ac0 <tud_control_xfer+0xa0>
    if (_ctrl_xfer.data_len > 0U) {
 8003a72:	4b21      	ldr	r3, [pc, #132]	@ (8003af8 <tud_control_xfer+0xd8>)
 8003a74:	899b      	ldrh	r3, [r3, #12]
 8003a76:	2b00      	cmp	r3, #0
 8003a78:	d00d      	beq.n	8003a96 <tud_control_xfer+0x76>
      TU_ASSERT(buffer);
 8003a7a:	687b      	ldr	r3, [r7, #4]
 8003a7c:	2b00      	cmp	r3, #0
 8003a7e:	d10a      	bne.n	8003a96 <tud_control_xfer+0x76>
 8003a80:	4b1e      	ldr	r3, [pc, #120]	@ (8003afc <tud_control_xfer+0xdc>)
 8003a82:	61bb      	str	r3, [r7, #24]
 8003a84:	69bb      	ldr	r3, [r7, #24]
 8003a86:	681b      	ldr	r3, [r3, #0]
 8003a88:	f003 0301 	and.w	r3, r3, #1
 8003a8c:	2b00      	cmp	r3, #0
 8003a8e:	d000      	beq.n	8003a92 <tud_control_xfer+0x72>
 8003a90:	be00      	bkpt	0x0000
 8003a92:	2300      	movs	r3, #0
 8003a94:	e02b      	b.n	8003aee <tud_control_xfer+0xce>
    }
    TU_ASSERT(data_stage_xact(rhport));
 8003a96:	7bfb      	ldrb	r3, [r7, #15]
 8003a98:	4618      	mov	r0, r3
 8003a9a:	f7ff ff57 	bl	800394c <data_stage_xact>
 8003a9e:	4603      	mov	r3, r0
 8003aa0:	f083 0301 	eor.w	r3, r3, #1
 8003aa4:	b2db      	uxtb	r3, r3
 8003aa6:	2b00      	cmp	r3, #0
 8003aa8:	d020      	beq.n	8003aec <tud_control_xfer+0xcc>
 8003aaa:	4b14      	ldr	r3, [pc, #80]	@ (8003afc <tud_control_xfer+0xdc>)
 8003aac:	617b      	str	r3, [r7, #20]
 8003aae:	697b      	ldr	r3, [r7, #20]
 8003ab0:	681b      	ldr	r3, [r3, #0]
 8003ab2:	f003 0301 	and.w	r3, r3, #1
 8003ab6:	2b00      	cmp	r3, #0
 8003ab8:	d000      	beq.n	8003abc <tud_control_xfer+0x9c>
 8003aba:	be00      	bkpt	0x0000
 8003abc:	2300      	movs	r3, #0
 8003abe:	e016      	b.n	8003aee <tud_control_xfer+0xce>
  } else {
    TU_ASSERT(status_stage_xact(rhport, request));
 8003ac0:	7bfb      	ldrb	r3, [r7, #15]
 8003ac2:	68b9      	ldr	r1, [r7, #8]
 8003ac4:	4618      	mov	r0, r3
 8003ac6:	f7ff ff03 	bl	80038d0 <status_stage_xact>
 8003aca:	4603      	mov	r3, r0
 8003acc:	f083 0301 	eor.w	r3, r3, #1
 8003ad0:	b2db      	uxtb	r3, r3
 8003ad2:	2b00      	cmp	r3, #0
 8003ad4:	d00a      	beq.n	8003aec <tud_control_xfer+0xcc>
 8003ad6:	4b09      	ldr	r3, [pc, #36]	@ (8003afc <tud_control_xfer+0xdc>)
 8003ad8:	61fb      	str	r3, [r7, #28]
 8003ada:	69fb      	ldr	r3, [r7, #28]
 8003adc:	681b      	ldr	r3, [r3, #0]
 8003ade:	f003 0301 	and.w	r3, r3, #1
 8003ae2:	2b00      	cmp	r3, #0
 8003ae4:	d000      	beq.n	8003ae8 <tud_control_xfer+0xc8>
 8003ae6:	be00      	bkpt	0x0000
 8003ae8:	2300      	movs	r3, #0
 8003aea:	e000      	b.n	8003aee <tud_control_xfer+0xce>
  }

  return true;
 8003aec:	2301      	movs	r3, #1
}
 8003aee:	4618      	mov	r0, r3
 8003af0:	3720      	adds	r7, #32
 8003af2:	46bd      	mov	sp, r7
 8003af4:	bd80      	pop	{r7, pc}
 8003af6:	bf00      	nop
 8003af8:	20000538 	.word	0x20000538
 8003afc:	e000edf0 	.word	0xe000edf0

08003b00 <usbd_control_reset>:
void usbd_control_reset(void);
void usbd_control_set_request(const tusb_control_request_t* request);
void usbd_control_set_complete_callback(usbd_control_xfer_cb_t fp);
bool usbd_control_xfer_cb(uint8_t rhport, uint8_t ep_addr, xfer_result_t result, uint32_t xferred_bytes);

void usbd_control_reset(void) {
 8003b00:	b580      	push	{r7, lr}
 8003b02:	af00      	add	r7, sp, #0
  tu_varclr(&_ctrl_xfer);
 8003b04:	2214      	movs	r2, #20
 8003b06:	2100      	movs	r1, #0
 8003b08:	4802      	ldr	r0, [pc, #8]	@ (8003b14 <usbd_control_reset+0x14>)
 8003b0a:	f003 fddd 	bl	80076c8 <memset>
}
 8003b0e:	bf00      	nop
 8003b10:	bd80      	pop	{r7, pc}
 8003b12:	bf00      	nop
 8003b14:	20000538 	.word	0x20000538

08003b18 <usbd_control_set_complete_callback>:

// Set complete callback
void usbd_control_set_complete_callback(usbd_control_xfer_cb_t fp) {
 8003b18:	b480      	push	{r7}
 8003b1a:	b083      	sub	sp, #12
 8003b1c:	af00      	add	r7, sp, #0
 8003b1e:	6078      	str	r0, [r7, #4]
  _ctrl_xfer.complete_cb = fp;
 8003b20:	4a03      	ldr	r2, [pc, #12]	@ (8003b30 <usbd_control_set_complete_callback+0x18>)
 8003b22:	687b      	ldr	r3, [r7, #4]
 8003b24:	6113      	str	r3, [r2, #16]
}
 8003b26:	bf00      	nop
 8003b28:	370c      	adds	r7, #12
 8003b2a:	46bd      	mov	sp, r7
 8003b2c:	bc80      	pop	{r7}
 8003b2e:	4770      	bx	lr
 8003b30:	20000538 	.word	0x20000538

08003b34 <usbd_control_set_request>:

// for dcd_set_address where DCD is responsible for status response
void usbd_control_set_request(const tusb_control_request_t* request) {
 8003b34:	b480      	push	{r7}
 8003b36:	b083      	sub	sp, #12
 8003b38:	af00      	add	r7, sp, #0
 8003b3a:	6078      	str	r0, [r7, #4]
  _ctrl_xfer.request = (*request);
 8003b3c:	4b09      	ldr	r3, [pc, #36]	@ (8003b64 <usbd_control_set_request+0x30>)
 8003b3e:	687a      	ldr	r2, [r7, #4]
 8003b40:	6810      	ldr	r0, [r2, #0]
 8003b42:	6851      	ldr	r1, [r2, #4]
 8003b44:	c303      	stmia	r3!, {r0, r1}
  _ctrl_xfer.buffer = NULL;
 8003b46:	4b07      	ldr	r3, [pc, #28]	@ (8003b64 <usbd_control_set_request+0x30>)
 8003b48:	2200      	movs	r2, #0
 8003b4a:	609a      	str	r2, [r3, #8]
  _ctrl_xfer.total_xferred = 0;
 8003b4c:	4b05      	ldr	r3, [pc, #20]	@ (8003b64 <usbd_control_set_request+0x30>)
 8003b4e:	2200      	movs	r2, #0
 8003b50:	81da      	strh	r2, [r3, #14]
  _ctrl_xfer.data_len = 0;
 8003b52:	4b04      	ldr	r3, [pc, #16]	@ (8003b64 <usbd_control_set_request+0x30>)
 8003b54:	2200      	movs	r2, #0
 8003b56:	819a      	strh	r2, [r3, #12]
}
 8003b58:	bf00      	nop
 8003b5a:	370c      	adds	r7, #12
 8003b5c:	46bd      	mov	sp, r7
 8003b5e:	bc80      	pop	{r7}
 8003b60:	4770      	bx	lr
 8003b62:	bf00      	nop
 8003b64:	20000538 	.word	0x20000538

08003b68 <usbd_control_xfer_cb>:

// callback when a transaction complete on
// - DATA stage of control endpoint or
// - Status stage
bool usbd_control_xfer_cb(uint8_t rhport, uint8_t ep_addr, xfer_result_t result, uint32_t xferred_bytes) {
 8003b68:	b580      	push	{r7, lr}
 8003b6a:	b088      	sub	sp, #32
 8003b6c:	af00      	add	r7, sp, #0
 8003b6e:	603b      	str	r3, [r7, #0]
 8003b70:	4603      	mov	r3, r0
 8003b72:	71fb      	strb	r3, [r7, #7]
 8003b74:	460b      	mov	r3, r1
 8003b76:	71bb      	strb	r3, [r7, #6]
 8003b78:	4613      	mov	r3, r2
 8003b7a:	717b      	strb	r3, [r7, #5]
 8003b7c:	79bb      	ldrb	r3, [r7, #6]
 8003b7e:	73fb      	strb	r3, [r7, #15]
 8003b80:	7bfb      	ldrb	r3, [r7, #15]
 8003b82:	09db      	lsrs	r3, r3, #7
 8003b84:	b2db      	uxtb	r3, r3
  (void) result;

  // Endpoint Address is opposite to direction bit, this is Status Stage complete event
  if (tu_edpt_dir(ep_addr) != _ctrl_xfer.request.bmRequestType_bit.direction) {
 8003b86:	4a51      	ldr	r2, [pc, #324]	@ (8003ccc <usbd_control_xfer_cb+0x164>)
 8003b88:	7812      	ldrb	r2, [r2, #0]
 8003b8a:	f3c2 12c0 	ubfx	r2, r2, #7, #1
 8003b8e:	b2d2      	uxtb	r2, r2
 8003b90:	4293      	cmp	r3, r2
 8003b92:	d01e      	beq.n	8003bd2 <usbd_control_xfer_cb+0x6a>
    TU_ASSERT(0 == xferred_bytes);
 8003b94:	683b      	ldr	r3, [r7, #0]
 8003b96:	2b00      	cmp	r3, #0
 8003b98:	d00a      	beq.n	8003bb0 <usbd_control_xfer_cb+0x48>
 8003b9a:	4b4d      	ldr	r3, [pc, #308]	@ (8003cd0 <usbd_control_xfer_cb+0x168>)
 8003b9c:	613b      	str	r3, [r7, #16]
 8003b9e:	693b      	ldr	r3, [r7, #16]
 8003ba0:	681b      	ldr	r3, [r3, #0]
 8003ba2:	f003 0301 	and.w	r3, r3, #1
 8003ba6:	2b00      	cmp	r3, #0
 8003ba8:	d000      	beq.n	8003bac <usbd_control_xfer_cb+0x44>
 8003baa:	be00      	bkpt	0x0000
 8003bac:	2300      	movs	r3, #0
 8003bae:	e089      	b.n	8003cc4 <usbd_control_xfer_cb+0x15c>

    // invoke optional dcd hook if available
    dcd_edpt0_status_complete(rhport, &_ctrl_xfer.request);
 8003bb0:	79fb      	ldrb	r3, [r7, #7]
 8003bb2:	4946      	ldr	r1, [pc, #280]	@ (8003ccc <usbd_control_xfer_cb+0x164>)
 8003bb4:	4618      	mov	r0, r3
 8003bb6:	f000 fed9 	bl	800496c <dcd_edpt0_status_complete>

    if (NULL != _ctrl_xfer.complete_cb) {
 8003bba:	4b44      	ldr	r3, [pc, #272]	@ (8003ccc <usbd_control_xfer_cb+0x164>)
 8003bbc:	691b      	ldr	r3, [r3, #16]
 8003bbe:	2b00      	cmp	r3, #0
 8003bc0:	d005      	beq.n	8003bce <usbd_control_xfer_cb+0x66>
      // TODO refactor with usbd_driver_print_control_complete_name
      _ctrl_xfer.complete_cb(rhport, CONTROL_STAGE_ACK, &_ctrl_xfer.request);
 8003bc2:	4b42      	ldr	r3, [pc, #264]	@ (8003ccc <usbd_control_xfer_cb+0x164>)
 8003bc4:	691b      	ldr	r3, [r3, #16]
 8003bc6:	79f8      	ldrb	r0, [r7, #7]
 8003bc8:	4a40      	ldr	r2, [pc, #256]	@ (8003ccc <usbd_control_xfer_cb+0x164>)
 8003bca:	2103      	movs	r1, #3
 8003bcc:	4798      	blx	r3
    }

    return true;
 8003bce:	2301      	movs	r3, #1
 8003bd0:	e078      	b.n	8003cc4 <usbd_control_xfer_cb+0x15c>
  }

  if (_ctrl_xfer.request.bmRequestType_bit.direction == TUSB_DIR_OUT) {
 8003bd2:	4b3e      	ldr	r3, [pc, #248]	@ (8003ccc <usbd_control_xfer_cb+0x164>)
 8003bd4:	781b      	ldrb	r3, [r3, #0]
 8003bd6:	f023 037f 	bic.w	r3, r3, #127	@ 0x7f
 8003bda:	b2db      	uxtb	r3, r3
 8003bdc:	2b00      	cmp	r3, #0
 8003bde:	d111      	bne.n	8003c04 <usbd_control_xfer_cb+0x9c>
    TU_VERIFY(_ctrl_xfer.buffer);
 8003be0:	4b3a      	ldr	r3, [pc, #232]	@ (8003ccc <usbd_control_xfer_cb+0x164>)
 8003be2:	689b      	ldr	r3, [r3, #8]
 8003be4:	2b00      	cmp	r3, #0
 8003be6:	d101      	bne.n	8003bec <usbd_control_xfer_cb+0x84>
 8003be8:	2300      	movs	r3, #0
 8003bea:	e06b      	b.n	8003cc4 <usbd_control_xfer_cb+0x15c>
    if (_ctrl_xfer.buffer != _ctrl_epbuf.buf) {
 8003bec:	4b37      	ldr	r3, [pc, #220]	@ (8003ccc <usbd_control_xfer_cb+0x164>)
 8003bee:	689b      	ldr	r3, [r3, #8]
 8003bf0:	4a38      	ldr	r2, [pc, #224]	@ (8003cd4 <usbd_control_xfer_cb+0x16c>)
 8003bf2:	4293      	cmp	r3, r2
 8003bf4:	d006      	beq.n	8003c04 <usbd_control_xfer_cb+0x9c>
      memcpy(_ctrl_xfer.buffer, _ctrl_epbuf.buf, xferred_bytes);
 8003bf6:	4b35      	ldr	r3, [pc, #212]	@ (8003ccc <usbd_control_xfer_cb+0x164>)
 8003bf8:	689b      	ldr	r3, [r3, #8]
 8003bfa:	683a      	ldr	r2, [r7, #0]
 8003bfc:	4935      	ldr	r1, [pc, #212]	@ (8003cd4 <usbd_control_xfer_cb+0x16c>)
 8003bfe:	4618      	mov	r0, r3
 8003c00:	f003 fd8e 	bl	8007720 <memcpy>
    }
    TU_LOG_MEM(CFG_TUD_LOG_LEVEL, _ctrl_xfer.buffer, xferred_bytes, 2);
  }

  _ctrl_xfer.total_xferred += (uint16_t) xferred_bytes;
 8003c04:	4b31      	ldr	r3, [pc, #196]	@ (8003ccc <usbd_control_xfer_cb+0x164>)
 8003c06:	89da      	ldrh	r2, [r3, #14]
 8003c08:	683b      	ldr	r3, [r7, #0]
 8003c0a:	b29b      	uxth	r3, r3
 8003c0c:	4413      	add	r3, r2
 8003c0e:	b29a      	uxth	r2, r3
 8003c10:	4b2e      	ldr	r3, [pc, #184]	@ (8003ccc <usbd_control_xfer_cb+0x164>)
 8003c12:	81da      	strh	r2, [r3, #14]
  _ctrl_xfer.buffer += xferred_bytes;
 8003c14:	4b2d      	ldr	r3, [pc, #180]	@ (8003ccc <usbd_control_xfer_cb+0x164>)
 8003c16:	689a      	ldr	r2, [r3, #8]
 8003c18:	683b      	ldr	r3, [r7, #0]
 8003c1a:	4413      	add	r3, r2
 8003c1c:	4a2b      	ldr	r2, [pc, #172]	@ (8003ccc <usbd_control_xfer_cb+0x164>)
 8003c1e:	6093      	str	r3, [r2, #8]

  // Data Stage is complete when all request's length are transferred or
  // a short packet is sent including zero-length packet.
  if ((_ctrl_xfer.request.wLength == _ctrl_xfer.total_xferred) ||
 8003c20:	4b2a      	ldr	r3, [pc, #168]	@ (8003ccc <usbd_control_xfer_cb+0x164>)
 8003c22:	88da      	ldrh	r2, [r3, #6]
 8003c24:	4b29      	ldr	r3, [pc, #164]	@ (8003ccc <usbd_control_xfer_cb+0x164>)
 8003c26:	89db      	ldrh	r3, [r3, #14]
 8003c28:	429a      	cmp	r2, r3
 8003c2a:	d002      	beq.n	8003c32 <usbd_control_xfer_cb+0xca>
 8003c2c:	683b      	ldr	r3, [r7, #0]
 8003c2e:	2b3f      	cmp	r3, #63	@ 0x3f
 8003c30:	d831      	bhi.n	8003c96 <usbd_control_xfer_cb+0x12e>
      (xferred_bytes < CFG_TUD_ENDPOINT0_BUFSIZE)) {
    // DATA stage is complete
    bool is_ok = true;
 8003c32:	2301      	movs	r3, #1
 8003c34:	77fb      	strb	r3, [r7, #31]

    // invoke complete callback if set
    // callback can still stall control in status phase e.g out data does not make sense
    if (NULL != _ctrl_xfer.complete_cb) {
 8003c36:	4b25      	ldr	r3, [pc, #148]	@ (8003ccc <usbd_control_xfer_cb+0x164>)
 8003c38:	691b      	ldr	r3, [r3, #16]
 8003c3a:	2b00      	cmp	r3, #0
 8003c3c:	d007      	beq.n	8003c4e <usbd_control_xfer_cb+0xe6>
      #if CFG_TUSB_DEBUG >= CFG_TUD_LOG_LEVEL
      usbd_driver_print_control_complete_name(_ctrl_xfer.complete_cb);
      #endif

      is_ok = _ctrl_xfer.complete_cb(rhport, CONTROL_STAGE_DATA, &_ctrl_xfer.request);
 8003c3e:	4b23      	ldr	r3, [pc, #140]	@ (8003ccc <usbd_control_xfer_cb+0x164>)
 8003c40:	691b      	ldr	r3, [r3, #16]
 8003c42:	79f8      	ldrb	r0, [r7, #7]
 8003c44:	4a21      	ldr	r2, [pc, #132]	@ (8003ccc <usbd_control_xfer_cb+0x164>)
 8003c46:	2102      	movs	r1, #2
 8003c48:	4798      	blx	r3
 8003c4a:	4603      	mov	r3, r0
 8003c4c:	77fb      	strb	r3, [r7, #31]
    }

    if (is_ok) {
 8003c4e:	7ffb      	ldrb	r3, [r7, #31]
 8003c50:	2b00      	cmp	r3, #0
 8003c52:	d015      	beq.n	8003c80 <usbd_control_xfer_cb+0x118>
      TU_ASSERT(status_stage_xact(rhport, &_ctrl_xfer.request));
 8003c54:	79fb      	ldrb	r3, [r7, #7]
 8003c56:	491d      	ldr	r1, [pc, #116]	@ (8003ccc <usbd_control_xfer_cb+0x164>)
 8003c58:	4618      	mov	r0, r3
 8003c5a:	f7ff fe39 	bl	80038d0 <status_stage_xact>
 8003c5e:	4603      	mov	r3, r0
 8003c60:	f083 0301 	eor.w	r3, r3, #1
 8003c64:	b2db      	uxtb	r3, r3
 8003c66:	2b00      	cmp	r3, #0
 8003c68:	d02a      	beq.n	8003cc0 <usbd_control_xfer_cb+0x158>
 8003c6a:	4b19      	ldr	r3, [pc, #100]	@ (8003cd0 <usbd_control_xfer_cb+0x168>)
 8003c6c:	617b      	str	r3, [r7, #20]
 8003c6e:	697b      	ldr	r3, [r7, #20]
 8003c70:	681b      	ldr	r3, [r3, #0]
 8003c72:	f003 0301 	and.w	r3, r3, #1
 8003c76:	2b00      	cmp	r3, #0
 8003c78:	d000      	beq.n	8003c7c <usbd_control_xfer_cb+0x114>
 8003c7a:	be00      	bkpt	0x0000
 8003c7c:	2300      	movs	r3, #0
 8003c7e:	e021      	b.n	8003cc4 <usbd_control_xfer_cb+0x15c>
    } else {
      // Stall both IN and OUT control endpoint
      dcd_edpt_stall(rhport, EDPT_CTRL_OUT);
 8003c80:	79fb      	ldrb	r3, [r7, #7]
 8003c82:	2100      	movs	r1, #0
 8003c84:	4618      	mov	r0, r3
 8003c86:	f001 fcbb 	bl	8005600 <dcd_edpt_stall>
      dcd_edpt_stall(rhport, EDPT_CTRL_IN);
 8003c8a:	79fb      	ldrb	r3, [r7, #7]
 8003c8c:	2180      	movs	r1, #128	@ 0x80
 8003c8e:	4618      	mov	r0, r3
 8003c90:	f001 fcb6 	bl	8005600 <dcd_edpt_stall>
      (xferred_bytes < CFG_TUD_ENDPOINT0_BUFSIZE)) {
 8003c94:	e014      	b.n	8003cc0 <usbd_control_xfer_cb+0x158>
    }
  } else {
    // More data to transfer
    TU_ASSERT(data_stage_xact(rhport));
 8003c96:	79fb      	ldrb	r3, [r7, #7]
 8003c98:	4618      	mov	r0, r3
 8003c9a:	f7ff fe57 	bl	800394c <data_stage_xact>
 8003c9e:	4603      	mov	r3, r0
 8003ca0:	f083 0301 	eor.w	r3, r3, #1
 8003ca4:	b2db      	uxtb	r3, r3
 8003ca6:	2b00      	cmp	r3, #0
 8003ca8:	d00b      	beq.n	8003cc2 <usbd_control_xfer_cb+0x15a>
 8003caa:	4b09      	ldr	r3, [pc, #36]	@ (8003cd0 <usbd_control_xfer_cb+0x168>)
 8003cac:	61bb      	str	r3, [r7, #24]
 8003cae:	69bb      	ldr	r3, [r7, #24]
 8003cb0:	681b      	ldr	r3, [r3, #0]
 8003cb2:	f003 0301 	and.w	r3, r3, #1
 8003cb6:	2b00      	cmp	r3, #0
 8003cb8:	d000      	beq.n	8003cbc <usbd_control_xfer_cb+0x154>
 8003cba:	be00      	bkpt	0x0000
 8003cbc:	2300      	movs	r3, #0
 8003cbe:	e001      	b.n	8003cc4 <usbd_control_xfer_cb+0x15c>
      (xferred_bytes < CFG_TUD_ENDPOINT0_BUFSIZE)) {
 8003cc0:	bf00      	nop
  }

  return true;
 8003cc2:	2301      	movs	r3, #1
}
 8003cc4:	4618      	mov	r0, r3
 8003cc6:	3720      	adds	r7, #32
 8003cc8:	46bd      	mov	sp, r7
 8003cca:	bd80      	pop	{r7, pc}
 8003ccc:	20000538 	.word	0x20000538
 8003cd0:	e000edf0 	.word	0xe000edf0
 8003cd4:	2000054c 	.word	0x2000054c

08003cd8 <__NVIC_EnableIRQ>:
  \details Enables a device specific interrupt in the NVIC interrupt controller.
  \param [in]      IRQn  Device specific interrupt number.
  \note    IRQn must not be negative.
 */
__STATIC_INLINE void __NVIC_EnableIRQ(IRQn_Type IRQn)
{
 8003cd8:	b480      	push	{r7}
 8003cda:	b083      	sub	sp, #12
 8003cdc:	af00      	add	r7, sp, #0
 8003cde:	4603      	mov	r3, r0
 8003ce0:	71fb      	strb	r3, [r7, #7]
  if ((int32_t)(IRQn) >= 0)
 8003ce2:	f997 3007 	ldrsb.w	r3, [r7, #7]
 8003ce6:	2b00      	cmp	r3, #0
 8003ce8:	db0b      	blt.n	8003d02 <__NVIC_EnableIRQ+0x2a>
  {
    NVIC->ISER[(((uint32_t)IRQn) >> 5UL)] = (uint32_t)(1UL << (((uint32_t)IRQn) & 0x1FUL));
 8003cea:	79fb      	ldrb	r3, [r7, #7]
 8003cec:	f003 021f 	and.w	r2, r3, #31
 8003cf0:	4906      	ldr	r1, [pc, #24]	@ (8003d0c <__NVIC_EnableIRQ+0x34>)
 8003cf2:	f997 3007 	ldrsb.w	r3, [r7, #7]
 8003cf6:	095b      	lsrs	r3, r3, #5
 8003cf8:	2001      	movs	r0, #1
 8003cfa:	fa00 f202 	lsl.w	r2, r0, r2
 8003cfe:	f841 2023 	str.w	r2, [r1, r3, lsl #2]
  }
}
 8003d02:	bf00      	nop
 8003d04:	370c      	adds	r7, #12
 8003d06:	46bd      	mov	sp, r7
 8003d08:	bc80      	pop	{r7}
 8003d0a:	4770      	bx	lr
 8003d0c:	e000e100 	.word	0xe000e100

08003d10 <__NVIC_DisableIRQ>:
  \details Disables a device specific interrupt in the NVIC interrupt controller.
  \param [in]      IRQn  Device specific interrupt number.
  \note    IRQn must not be negative.
 */
__STATIC_INLINE void __NVIC_DisableIRQ(IRQn_Type IRQn)
{
 8003d10:	b480      	push	{r7}
 8003d12:	b083      	sub	sp, #12
 8003d14:	af00      	add	r7, sp, #0
 8003d16:	4603      	mov	r3, r0
 8003d18:	71fb      	strb	r3, [r7, #7]
  if ((int32_t)(IRQn) >= 0)
 8003d1a:	f997 3007 	ldrsb.w	r3, [r7, #7]
 8003d1e:	2b00      	cmp	r3, #0
 8003d20:	db12      	blt.n	8003d48 <__NVIC_DisableIRQ+0x38>
  {
    NVIC->ICER[(((uint32_t)IRQn) >> 5UL)] = (uint32_t)(1UL << (((uint32_t)IRQn) & 0x1FUL));
 8003d22:	79fb      	ldrb	r3, [r7, #7]
 8003d24:	f003 021f 	and.w	r2, r3, #31
 8003d28:	490a      	ldr	r1, [pc, #40]	@ (8003d54 <__NVIC_DisableIRQ+0x44>)
 8003d2a:	f997 3007 	ldrsb.w	r3, [r7, #7]
 8003d2e:	095b      	lsrs	r3, r3, #5
 8003d30:	2001      	movs	r0, #1
 8003d32:	fa00 f202 	lsl.w	r2, r0, r2
 8003d36:	3320      	adds	r3, #32
 8003d38:	f841 2023 	str.w	r2, [r1, r3, lsl #2]
  \details Acts as a special kind of Data Memory Barrier.
           It completes when all explicit memory accesses before this instruction complete.
 */
__STATIC_FORCEINLINE void __DSB(void)
{
  __ASM volatile ("dsb 0xF":::"memory");
 8003d3c:	f3bf 8f4f 	dsb	sy
}
 8003d40:	bf00      	nop
  __ASM volatile ("isb 0xF":::"memory");
 8003d42:	f3bf 8f6f 	isb	sy
}
 8003d46:	bf00      	nop
    __DSB();
    __ISB();
  }
}
 8003d48:	bf00      	nop
 8003d4a:	370c      	adds	r7, #12
 8003d4c:	46bd      	mov	sp, r7
 8003d4e:	bc80      	pop	{r7}
 8003d50:	4770      	bx	lr
 8003d52:	bf00      	nop
 8003d54:	e000e100 	.word	0xe000e100

08003d58 <dcd_init>:
}

//--------------------------------------------------------------------+
// Controller API
//--------------------------------------------------------------------+
bool dcd_init(uint8_t rhport, const tusb_rhport_init_t *rh_init) {
 8003d58:	b580      	push	{r7, lr}
 8003d5a:	b082      	sub	sp, #8
 8003d5c:	af00      	add	r7, sp, #0
 8003d5e:	4603      	mov	r3, r0
 8003d60:	6039      	str	r1, [r7, #0]
 8003d62:	71fb      	strb	r3, [r7, #7]
  (void)rh_init;

  fsdev_core_reset();
 8003d64:	f001 fe16 	bl	8005994 <fsdev_core_reset>

  FSDEV_REG->CNTR = 0; // Enable USB
 8003d68:	4b0f      	ldr	r3, [pc, #60]	@ (8003da8 <dcd_init+0x50>)
 8003d6a:	2200      	movs	r2, #0
 8003d6c:	f8a3 2040 	strh.w	r2, [r3, #64]	@ 0x40

  #if !defined( CFG_TUSB_FSDEV_32BIT)
  // BTABLE register does not exist any more on 32-bit bus devices
  FSDEV_REG->BTABLE = FSDEV_BTABLE_BASE;
 8003d70:	4b0d      	ldr	r3, [pc, #52]	@ (8003da8 <dcd_init+0x50>)
 8003d72:	2200      	movs	r2, #0
 8003d74:	f8a3 2050 	strh.w	r2, [r3, #80]	@ 0x50
  #endif

  // Enable interrupts for device mode
  FSDEV_REG->CNTR |=
 8003d78:	4b0b      	ldr	r3, [pc, #44]	@ (8003da8 <dcd_init+0x50>)
 8003d7a:	f8b3 3040 	ldrh.w	r3, [r3, #64]	@ 0x40
 8003d7e:	b29a      	uxth	r2, r3
 8003d80:	4909      	ldr	r1, [pc, #36]	@ (8003da8 <dcd_init+0x50>)
 8003d82:	4b0a      	ldr	r3, [pc, #40]	@ (8003dac <dcd_init+0x54>)
 8003d84:	4313      	orrs	r3, r2
 8003d86:	b29b      	uxth	r3, r3
 8003d88:	f8a1 3040 	strh.w	r3, [r1, #64]	@ 0x40
    U_CNTR_RESETM | U_CNTR_ESOFM | U_CNTR_CTRM | U_CNTR_SUSPM | U_CNTR_WKUPM | U_CNTR_PMAOVRM;

  handle_bus_reset(rhport);
 8003d8c:	79fb      	ldrb	r3, [r7, #7]
 8003d8e:	4618      	mov	r0, r3
 8003d90:	f000 f84a 	bl	8003e28 <handle_bus_reset>

  // Enable pull-up if supported
  dcd_connect(rhport);
 8003d94:	79fb      	ldrb	r3, [r7, #7]
 8003d96:	4618      	mov	r0, r3
 8003d98:	f7fe f820 	bl	8001ddc <dcd_connect>

  return true;
 8003d9c:	2301      	movs	r3, #1
}
 8003d9e:	4618      	mov	r0, r3
 8003da0:	3708      	adds	r7, #8
 8003da2:	46bd      	mov	sp, r7
 8003da4:	bd80      	pop	{r7, pc}
 8003da6:	bf00      	nop
 8003da8:	40005c00 	.word	0x40005c00
 8003dac:	ffffdd00 	.word	0xffffdd00

08003db0 <dcd_sof_enable>:
  fsdev_deinit();

  return true;
}

void dcd_sof_enable(uint8_t rhport, bool en) {
 8003db0:	b480      	push	{r7}
 8003db2:	b083      	sub	sp, #12
 8003db4:	af00      	add	r7, sp, #0
 8003db6:	4603      	mov	r3, r0
 8003db8:	460a      	mov	r2, r1
 8003dba:	71fb      	strb	r3, [r7, #7]
 8003dbc:	4613      	mov	r3, r2
 8003dbe:	71bb      	strb	r3, [r7, #6]
  (void)rhport;

  if (en) {
 8003dc0:	79bb      	ldrb	r3, [r7, #6]
 8003dc2:	2b00      	cmp	r3, #0
 8003dc4:	d00a      	beq.n	8003ddc <dcd_sof_enable+0x2c>
    FSDEV_REG->CNTR |= U_CNTR_SOFM;
 8003dc6:	4b0d      	ldr	r3, [pc, #52]	@ (8003dfc <dcd_sof_enable+0x4c>)
 8003dc8:	f8b3 3040 	ldrh.w	r3, [r3, #64]	@ 0x40
 8003dcc:	b29b      	uxth	r3, r3
 8003dce:	4a0b      	ldr	r2, [pc, #44]	@ (8003dfc <dcd_sof_enable+0x4c>)
 8003dd0:	f443 7300 	orr.w	r3, r3, #512	@ 0x200
 8003dd4:	b29b      	uxth	r3, r3
 8003dd6:	f8a2 3040 	strh.w	r3, [r2, #64]	@ 0x40
  } else {
    FSDEV_REG->CNTR &= ~U_CNTR_SOFM;
  }
}
 8003dda:	e009      	b.n	8003df0 <dcd_sof_enable+0x40>
    FSDEV_REG->CNTR &= ~U_CNTR_SOFM;
 8003ddc:	4b07      	ldr	r3, [pc, #28]	@ (8003dfc <dcd_sof_enable+0x4c>)
 8003dde:	f8b3 3040 	ldrh.w	r3, [r3, #64]	@ 0x40
 8003de2:	b29b      	uxth	r3, r3
 8003de4:	4a05      	ldr	r2, [pc, #20]	@ (8003dfc <dcd_sof_enable+0x4c>)
 8003de6:	f423 7300 	bic.w	r3, r3, #512	@ 0x200
 8003dea:	b29b      	uxth	r3, r3
 8003dec:	f8a2 3040 	strh.w	r3, [r2, #64]	@ 0x40
}
 8003df0:	bf00      	nop
 8003df2:	370c      	adds	r7, #12
 8003df4:	46bd      	mov	sp, r7
 8003df6:	bc80      	pop	{r7}
 8003df8:	4770      	bx	lr
 8003dfa:	bf00      	nop
 8003dfc:	40005c00 	.word	0x40005c00

08003e00 <dcd_set_address>:

// Receive Set Address request, mcu port must also include status IN response
void dcd_set_address(uint8_t rhport, uint8_t dev_addr) {
 8003e00:	b580      	push	{r7, lr}
 8003e02:	b084      	sub	sp, #16
 8003e04:	af02      	add	r7, sp, #8
 8003e06:	4603      	mov	r3, r0
 8003e08:	460a      	mov	r2, r1
 8003e0a:	71fb      	strb	r3, [r7, #7]
 8003e0c:	4613      	mov	r3, r2
 8003e0e:	71bb      	strb	r3, [r7, #6]
  (void)dev_addr;

  // Respond with status
  dcd_edpt_xfer(rhport, TUSB_DIR_IN_MASK | 0x00, NULL, 0, false);
 8003e10:	79f8      	ldrb	r0, [r7, #7]
 8003e12:	2300      	movs	r3, #0
 8003e14:	9300      	str	r3, [sp, #0]
 8003e16:	2300      	movs	r3, #0
 8003e18:	2200      	movs	r2, #0
 8003e1a:	2180      	movs	r1, #128	@ 0x80
 8003e1c:	f001 fb74 	bl	8005508 <dcd_edpt_xfer>

  // DCD can only set address after status for this request is complete.
  // do it at dcd_edpt0_status_complete()
}
 8003e20:	bf00      	nop
 8003e22:	3708      	adds	r7, #8
 8003e24:	46bd      	mov	sp, r7
 8003e26:	bd80      	pop	{r7, pc}

08003e28 <handle_bus_reset>:

  FSDEV_REG->CNTR |= U_CNTR_RESUME;
  remoteWakeCountdown = 4u; // required to be 1 to 15 ms, ESOF should trigger every 1ms.
}

static void handle_bus_reset(uint8_t rhport) {
 8003e28:	b580      	push	{r7, lr}
 8003e2a:	b084      	sub	sp, #16
 8003e2c:	af00      	add	r7, sp, #0
 8003e2e:	4603      	mov	r3, r0
 8003e30:	71fb      	strb	r3, [r7, #7]
  FSDEV_REG->DADDR = 0u; // disable USB Function
 8003e32:	4b19      	ldr	r3, [pc, #100]	@ (8003e98 <handle_bus_reset+0x70>)
 8003e34:	2200      	movs	r2, #0
 8003e36:	f8a3 204c 	strh.w	r2, [r3, #76]	@ 0x4c

  for (uint32_t i = 0; i < FSDEV_EP_COUNT; i++) {
 8003e3a:	2300      	movs	r3, #0
 8003e3c:	60fb      	str	r3, [r7, #12]
 8003e3e:	e019      	b.n	8003e74 <handle_bus_reset+0x4c>
    // Clear EP allocation status
    ep_alloc_status[i].ep_num       = 0xFF;
 8003e40:	4a16      	ldr	r2, [pc, #88]	@ (8003e9c <handle_bus_reset+0x74>)
 8003e42:	68fb      	ldr	r3, [r7, #12]
 8003e44:	21ff      	movs	r1, #255	@ 0xff
 8003e46:	f802 1023 	strb.w	r1, [r2, r3, lsl #2]
    ep_alloc_status[i].ep_type      = 0xFF;
 8003e4a:	4a14      	ldr	r2, [pc, #80]	@ (8003e9c <handle_bus_reset+0x74>)
 8003e4c:	68fb      	ldr	r3, [r7, #12]
 8003e4e:	009b      	lsls	r3, r3, #2
 8003e50:	4413      	add	r3, r2
 8003e52:	22ff      	movs	r2, #255	@ 0xff
 8003e54:	705a      	strb	r2, [r3, #1]
    ep_alloc_status[i].allocated[0] = false;
 8003e56:	4a11      	ldr	r2, [pc, #68]	@ (8003e9c <handle_bus_reset+0x74>)
 8003e58:	68fb      	ldr	r3, [r7, #12]
 8003e5a:	009b      	lsls	r3, r3, #2
 8003e5c:	4413      	add	r3, r2
 8003e5e:	2200      	movs	r2, #0
 8003e60:	709a      	strb	r2, [r3, #2]
    ep_alloc_status[i].allocated[1] = false;
 8003e62:	4a0e      	ldr	r2, [pc, #56]	@ (8003e9c <handle_bus_reset+0x74>)
 8003e64:	68fb      	ldr	r3, [r7, #12]
 8003e66:	009b      	lsls	r3, r3, #2
 8003e68:	4413      	add	r3, r2
 8003e6a:	2200      	movs	r2, #0
 8003e6c:	70da      	strb	r2, [r3, #3]
  for (uint32_t i = 0; i < FSDEV_EP_COUNT; i++) {
 8003e6e:	68fb      	ldr	r3, [r7, #12]
 8003e70:	3301      	adds	r3, #1
 8003e72:	60fb      	str	r3, [r7, #12]
 8003e74:	68fb      	ldr	r3, [r7, #12]
 8003e76:	2b07      	cmp	r3, #7
 8003e78:	d9e2      	bls.n	8003e40 <handle_bus_reset+0x18>
  }

  // Reset PMA allocation
  ep_buf_ptr = FSDEV_BTABLE_BASE + 8 * FSDEV_EP_COUNT;
 8003e7a:	4b09      	ldr	r3, [pc, #36]	@ (8003ea0 <handle_bus_reset+0x78>)
 8003e7c:	2240      	movs	r2, #64	@ 0x40
 8003e7e:	801a      	strh	r2, [r3, #0]

  edpt0_open(rhport);              // open control endpoint (both IN & OUT)
 8003e80:	79fb      	ldrb	r3, [r7, #7]
 8003e82:	4618      	mov	r0, r3
 8003e84:	f000 fe90 	bl	8004ba8 <edpt0_open>

  FSDEV_REG->DADDR = U_DADDR_EF; // Enable USB Function
 8003e88:	4b03      	ldr	r3, [pc, #12]	@ (8003e98 <handle_bus_reset+0x70>)
 8003e8a:	2280      	movs	r2, #128	@ 0x80
 8003e8c:	f8a3 204c 	strh.w	r2, [r3, #76]	@ 0x4c
}
 8003e90:	bf00      	nop
 8003e92:	3710      	adds	r7, #16
 8003e94:	46bd      	mov	sp, r7
 8003e96:	bd80      	pop	{r7, pc}
 8003e98:	40005c00 	.word	0x40005c00
 8003e9c:	2000068c 	.word	0x2000068c
 8003ea0:	200006ae 	.word	0x200006ae

08003ea4 <handle_ctr_tx>:

// Handle CTR interrupt for the TX/IN direction
static void handle_ctr_tx(uint32_t ep_id) {
 8003ea4:	b580      	push	{r7, lr}
 8003ea6:	b092      	sub	sp, #72	@ 0x48
 8003ea8:	af00      	add	r7, sp, #0
 8003eaa:	6078      	str	r0, [r7, #4]
 8003eac:	687b      	ldr	r3, [r7, #4]
 8003eae:	62fb      	str	r3, [r7, #44]	@ 0x2c

#define CH_STAT_MASK(_dir) (3u << (U_EPTX_STAT_Pos + ((_dir) == TUSB_DIR_IN ? 8 : 0)))
#define CH_DTOG_MASK(_dir) (1u << (U_EP_DTOG_TX_Pos + ((_dir) == TUSB_DIR_IN ? 8 : 0)))

TU_ATTR_ALWAYS_INLINE static inline uint32_t ep_read(uint32_t ep_id) {
  return FSDEV_REG->ep[ep_id].reg;
 8003eb0:	4a50      	ldr	r2, [pc, #320]	@ (8003ff4 <handle_ctr_tx+0x150>)
 8003eb2:	6afb      	ldr	r3, [r7, #44]	@ 0x2c
 8003eb4:	f832 3023 	ldrh.w	r3, [r2, r3, lsl #2]
 8003eb8:	b29b      	uxth	r3, r3
  uint32_t ep_reg = ep_read(ep_id) | U_EP_CTR_TX | U_EP_CTR_RX;
 8003eba:	f443 4300 	orr.w	r3, r3, #32768	@ 0x8000
 8003ebe:	f043 0380 	orr.w	r3, r3, #128	@ 0x80
 8003ec2:	647b      	str	r3, [r7, #68]	@ 0x44

  const uint8_t ep_num = ep_reg & U_EPADDR_FIELD;
 8003ec4:	6c7b      	ldr	r3, [r7, #68]	@ 0x44
 8003ec6:	b2db      	uxtb	r3, r3
 8003ec8:	f003 030f 	and.w	r3, r3, #15
 8003ecc:	f887 3043 	strb.w	r3, [r7, #67]	@ 0x43
 8003ed0:	f897 3043 	ldrb.w	r3, [r7, #67]	@ 0x43
 8003ed4:	f887 3033 	strb.w	r3, [r7, #51]	@ 0x33
 8003ed8:	2301      	movs	r3, #1
 8003eda:	f887 3032 	strb.w	r3, [r7, #50]	@ 0x32
  return &xfer_status[epnum][dir];
 8003ede:	f897 2033 	ldrb.w	r2, [r7, #51]	@ 0x33
 8003ee2:	f897 3032 	ldrb.w	r3, [r7, #50]	@ 0x32
 8003ee6:	0052      	lsls	r2, r2, #1
 8003ee8:	4413      	add	r3, r2
 8003eea:	011b      	lsls	r3, r3, #4
 8003eec:	4a42      	ldr	r2, [pc, #264]	@ (8003ff8 <handle_ctr_tx+0x154>)
 8003eee:	4413      	add	r3, r2
  xfer_ctl_t   *xfer   = xfer_ctl_ptr(ep_num, TUSB_DIR_IN);
 8003ef0:	63fb      	str	r3, [r7, #60]	@ 0x3c
 8003ef2:	6c7b      	ldr	r3, [r7, #68]	@ 0x44
 8003ef4:	637b      	str	r3, [r7, #52]	@ 0x34
TU_ATTR_ALWAYS_INLINE static inline void ep_change_dtog(uint32_t *reg, tusb_dir_t dir, uint8_t state) {
  *reg ^= (state << (U_EP_DTOG_TX_Pos + (dir == TUSB_DIR_IN ? 0 : 8)));
}

TU_ATTR_ALWAYS_INLINE static inline bool ep_is_iso(uint32_t reg) {
  return (reg & U_EP_TYPE_MASK) == U_EP_ISOCHRONOUS;
 8003ef6:	6b7b      	ldr	r3, [r7, #52]	@ 0x34
 8003ef8:	f403 63c0 	and.w	r3, r3, #1536	@ 0x600
 8003efc:	f5b3 6f80 	cmp.w	r3, #1024	@ 0x400
 8003f00:	bf0c      	ite	eq
 8003f02:	2301      	moveq	r3, #1
 8003f04:	2300      	movne	r3, #0
 8003f06:	b2db      	uxtb	r3, r3

  if (ep_is_iso(ep_reg)) {
 8003f08:	2b00      	cmp	r3, #0
 8003f0a:	d03c      	beq.n	8003f86 <handle_ctr_tx+0xe2>
    // Ignore spurious interrupts that we don't schedule
    // host can send IN token while there is no data to send, since ISO does not have NAK
    // this will result to zero length packet --> trigger interrupt (which cannot be masked)
    if (!xfer->iso_in_sending) {
 8003f0c:	6bfb      	ldr	r3, [r7, #60]	@ 0x3c
 8003f0e:	7bdb      	ldrb	r3, [r3, #15]
 8003f10:	f083 0301 	eor.w	r3, r3, #1
 8003f14:	b2db      	uxtb	r3, r3
 8003f16:	2b00      	cmp	r3, #0
 8003f18:	d167      	bne.n	8003fea <handle_ctr_tx+0x146>
      return;
    }
    xfer->iso_in_sending = false;
 8003f1a:	6bfb      	ldr	r3, [r7, #60]	@ 0x3c
 8003f1c:	2200      	movs	r2, #0
 8003f1e:	73da      	strb	r2, [r3, #15]
  #if FSDEV_USE_SBUF_ISO == 0
    uint8_t buf_id = (ep_reg & U_EP_DTOG_TX) ? 0 : 1;
 8003f20:	6c7b      	ldr	r3, [r7, #68]	@ 0x44
 8003f22:	f003 0340 	and.w	r3, r3, #64	@ 0x40
 8003f26:	2b00      	cmp	r3, #0
 8003f28:	bf0c      	ite	eq
 8003f2a:	2301      	moveq	r3, #1
 8003f2c:	2300      	movne	r3, #0
 8003f2e:	b2db      	uxtb	r3, r3
 8003f30:	f887 303b 	strb.w	r3, [r7, #59]	@ 0x3b
 8003f34:	687b      	ldr	r3, [r7, #4]
 8003f36:	62bb      	str	r3, [r7, #40]	@ 0x28
 8003f38:	f897 303b 	ldrb.w	r3, [r7, #59]	@ 0x3b
 8003f3c:	f887 3027 	strb.w	r3, [r7, #39]	@ 0x27
 8003f40:	2300      	movs	r3, #0
 8003f42:	84bb      	strh	r3, [r7, #36]	@ 0x24
  uint32_t count_addr = FSDEV_BTABLE->ep32[ep_id][buf_id].count_addr;
  count_addr          = (count_addr & ~0x03FF0000u) | ((byte_count & 0x3FFu) << 16);

  FSDEV_BTABLE->ep32[ep_id][buf_id].count_addr = count_addr;
#else
  uint16_t cnt = FSDEV_BTABLE->ep16[ep_id][buf_id].count;
 8003f44:	492d      	ldr	r1, [pc, #180]	@ (8003ffc <handle_ctr_tx+0x158>)
 8003f46:	f897 3027 	ldrb.w	r3, [r7, #39]	@ 0x27
 8003f4a:	6aba      	ldr	r2, [r7, #40]	@ 0x28
 8003f4c:	0052      	lsls	r2, r2, #1
 8003f4e:	4413      	add	r3, r2
 8003f50:	00db      	lsls	r3, r3, #3
 8003f52:	440b      	add	r3, r1
 8003f54:	889b      	ldrh	r3, [r3, #4]
 8003f56:	847b      	strh	r3, [r7, #34]	@ 0x22
  cnt          = (cnt & ~0x3FFU) | (byte_count & 0x3FFU);
 8003f58:	8c7b      	ldrh	r3, [r7, #34]	@ 0x22
 8003f5a:	f423 737f 	bic.w	r3, r3, #1020	@ 0x3fc
 8003f5e:	f023 0303 	bic.w	r3, r3, #3
 8003f62:	b29a      	uxth	r2, r3
 8003f64:	8cbb      	ldrh	r3, [r7, #36]	@ 0x24
 8003f66:	f3c3 0309 	ubfx	r3, r3, #0, #10
 8003f6a:	b29b      	uxth	r3, r3
 8003f6c:	4313      	orrs	r3, r2
 8003f6e:	847b      	strh	r3, [r7, #34]	@ 0x22

  FSDEV_BTABLE->ep16[ep_id][buf_id].count = cnt;
 8003f70:	4922      	ldr	r1, [pc, #136]	@ (8003ffc <handle_ctr_tx+0x158>)
 8003f72:	f897 3027 	ldrb.w	r3, [r7, #39]	@ 0x27
 8003f76:	6aba      	ldr	r2, [r7, #40]	@ 0x28
 8003f78:	0052      	lsls	r2, r2, #1
 8003f7a:	4413      	add	r3, r2
 8003f7c:	00db      	lsls	r3, r3, #3
 8003f7e:	440b      	add	r3, r1
 8003f80:	8c7a      	ldrh	r2, [r7, #34]	@ 0x22
 8003f82:	809a      	strh	r2, [r3, #4]
#endif
}
 8003f84:	bf00      	nop
    uint8_t buf_id = BTABLE_BUF_TX;
  #endif
    btable_set_count(ep_id, buf_id, 0);
  }

  if (xfer->total_len != xfer->queued_len) {
 8003f86:	6bfb      	ldr	r3, [r7, #60]	@ 0x3c
 8003f88:	891a      	ldrh	r2, [r3, #8]
 8003f8a:	6bfb      	ldr	r3, [r7, #60]	@ 0x3c
 8003f8c:	895b      	ldrh	r3, [r3, #10]
 8003f8e:	429a      	cmp	r2, r3
 8003f90:	d006      	beq.n	8003fa0 <handle_ctr_tx+0xfc>
    dcd_transmit_packet(xfer, ep_id);
 8003f92:	687b      	ldr	r3, [r7, #4]
 8003f94:	b29b      	uxth	r3, r3
 8003f96:	4619      	mov	r1, r3
 8003f98:	6bf8      	ldr	r0, [r7, #60]	@ 0x3c
 8003f9a:	f001 f8b7 	bl	800510c <dcd_transmit_packet>
 8003f9e:	e025      	b.n	8003fec <handle_ctr_tx+0x148>
  } else {
    dcd_event_xfer_complete(0, ep_num | TUSB_DIR_IN_MASK, xfer->queued_len, XFER_RESULT_SUCCESS, true);
 8003fa0:	f897 3043 	ldrb.w	r3, [r7, #67]	@ 0x43
 8003fa4:	f063 037f 	orn	r3, r3, #127	@ 0x7f
 8003fa8:	b2da      	uxtb	r2, r3
 8003faa:	6bfb      	ldr	r3, [r7, #60]	@ 0x3c
 8003fac:	895b      	ldrh	r3, [r3, #10]
 8003fae:	2100      	movs	r1, #0
 8003fb0:	f887 1021 	strb.w	r1, [r7, #33]	@ 0x21
 8003fb4:	f887 2020 	strb.w	r2, [r7, #32]
 8003fb8:	61fb      	str	r3, [r7, #28]
 8003fba:	2300      	movs	r3, #0
 8003fbc:	76fb      	strb	r3, [r7, #27]
 8003fbe:	2301      	movs	r3, #1
 8003fc0:	76bb      	strb	r3, [r7, #26]
}

// helper to send transfer complete event
TU_ATTR_ALWAYS_INLINE static inline void dcd_event_xfer_complete (uint8_t rhport, uint8_t ep_addr, uint32_t xferred_bytes, uint8_t result, bool in_isr) {
  dcd_event_t event;
  event.rhport = rhport;
 8003fc2:	f897 3021 	ldrb.w	r3, [r7, #33]	@ 0x21
 8003fc6:	733b      	strb	r3, [r7, #12]
  event.event_id = DCD_EVENT_XFER_COMPLETE;
 8003fc8:	2307      	movs	r3, #7
 8003fca:	737b      	strb	r3, [r7, #13]
  event.xfer_complete.ep_addr = ep_addr;
 8003fcc:	f897 3020 	ldrb.w	r3, [r7, #32]
 8003fd0:	743b      	strb	r3, [r7, #16]
  event.xfer_complete.len     = xferred_bytes;
 8003fd2:	69fb      	ldr	r3, [r7, #28]
 8003fd4:	617b      	str	r3, [r7, #20]
  event.xfer_complete.result  = result;
 8003fd6:	7efb      	ldrb	r3, [r7, #27]
 8003fd8:	747b      	strb	r3, [r7, #17]
  dcd_event_handler(&event, in_isr);
 8003fda:	7eba      	ldrb	r2, [r7, #26]
 8003fdc:	f107 030c 	add.w	r3, r7, #12
 8003fe0:	4611      	mov	r1, r2
 8003fe2:	4618      	mov	r0, r3
 8003fe4:	f7fe ff32 	bl	8002e4c <dcd_event_handler>
}
 8003fe8:	e000      	b.n	8003fec <handle_ctr_tx+0x148>
      return;
 8003fea:	bf00      	nop
  }
}
 8003fec:	3748      	adds	r7, #72	@ 0x48
 8003fee:	46bd      	mov	sp, r7
 8003ff0:	bd80      	pop	{r7, pc}
 8003ff2:	bf00      	nop
 8003ff4:	40005c00 	.word	0x40005c00
 8003ff8:	2000058c 	.word	0x2000058c
 8003ffc:	40006000 	.word	0x40006000

08004000 <handle_ctr_setup>:

static void handle_ctr_setup(uint32_t ep_id) {
 8004000:	b580      	push	{r7, lr}
 8004002:	b098      	sub	sp, #96	@ 0x60
 8004004:	af00      	add	r7, sp, #0
 8004006:	6078      	str	r0, [r7, #4]
 8004008:	687b      	ldr	r3, [r7, #4]
 800400a:	633b      	str	r3, [r7, #48]	@ 0x30
 800400c:	2301      	movs	r3, #1
 800400e:	f887 302f 	strb.w	r3, [r7, #47]	@ 0x2f
  count = FSDEV_BTABLE->ep16[ep_id][buf_id].count;
 8004012:	4969      	ldr	r1, [pc, #420]	@ (80041b8 <handle_ctr_setup+0x1b8>)
 8004014:	f897 302f 	ldrb.w	r3, [r7, #47]	@ 0x2f
 8004018:	6b3a      	ldr	r2, [r7, #48]	@ 0x30
 800401a:	0052      	lsls	r2, r2, #1
 800401c:	4413      	add	r3, r2
 800401e:	00db      	lsls	r3, r3, #3
 8004020:	440b      	add	r3, r1
 8004022:	889b      	ldrh	r3, [r3, #4]
 8004024:	85bb      	strh	r3, [r7, #44]	@ 0x2c
  return count & 0x3FFU;
 8004026:	8dbb      	ldrh	r3, [r7, #44]	@ 0x2c
 8004028:	f3c3 0309 	ubfx	r3, r3, #0, #10
 800402c:	b29b      	uxth	r3, r3
  uint16_t rx_count = btable_get_count(ep_id, BTABLE_BUF_RX);
 800402e:	f8a7 305e 	strh.w	r3, [r7, #94]	@ 0x5e
 8004032:	687b      	ldr	r3, [r7, #4]
 8004034:	63bb      	str	r3, [r7, #56]	@ 0x38
 8004036:	2301      	movs	r3, #1
 8004038:	f887 3037 	strb.w	r3, [r7, #55]	@ 0x37
  return FSDEV_BTABLE->ep16[ep_id][buf_id].addr;
 800403c:	495e      	ldr	r1, [pc, #376]	@ (80041b8 <handle_ctr_setup+0x1b8>)
 800403e:	f897 3037 	ldrb.w	r3, [r7, #55]	@ 0x37
 8004042:	6bba      	ldr	r2, [r7, #56]	@ 0x38
 8004044:	0052      	lsls	r2, r2, #1
 8004046:	4413      	add	r3, r2
 8004048:	f831 3033 	ldrh.w	r3, [r1, r3, lsl #3]
 800404c:	b29b      	uxth	r3, r3
  uint16_t rx_addr  = btable_get_addr(ep_id, BTABLE_BUF_RX);
 800404e:	f8a7 305c 	strh.w	r3, [r7, #92]	@ 0x5c
  uint8_t  setup_packet[8] TU_ATTR_ALIGNED(4);

  tu_hwfifo_read(PMA_BUF_AT(rx_addr), setup_packet, rx_count, NULL);
 8004052:	f8b7 305c 	ldrh.w	r3, [r7, #92]	@ 0x5c
 8004056:	005b      	lsls	r3, r3, #1
 8004058:	f103 4380 	add.w	r3, r3, #1073741824	@ 0x40000000
 800405c:	f503 43c0 	add.w	r3, r3, #24576	@ 0x6000
 8004060:	4618      	mov	r0, r3
 8004062:	f8b7 205e 	ldrh.w	r2, [r7, #94]	@ 0x5e
 8004066:	f107 0118 	add.w	r1, r7, #24
 800406a:	2300      	movs	r3, #0
 800406c:	f7fd f9dc 	bl	8001428 <tu_hwfifo_read>
 8004070:	687b      	ldr	r3, [r7, #4]
 8004072:	657b      	str	r3, [r7, #84]	@ 0x54
 8004074:	2300      	movs	r3, #0
 8004076:	f887 3053 	strb.w	r3, [r7, #83]	@ 0x53
  uint32_t reg = FSDEV_REG->ep[ep_id].reg;
 800407a:	4a50      	ldr	r2, [pc, #320]	@ (80041bc <handle_ctr_setup+0x1bc>)
 800407c:	6d7b      	ldr	r3, [r7, #84]	@ 0x54
 800407e:	f832 3023 	ldrh.w	r3, [r2, r3, lsl #2]
 8004082:	b29b      	uxth	r3, r3
 8004084:	64fb      	str	r3, [r7, #76]	@ 0x4c
  reg |= U_EP_CTR_TX | U_EP_CTR_RX;
 8004086:	6cfb      	ldr	r3, [r7, #76]	@ 0x4c
 8004088:	f443 4300 	orr.w	r3, r3, #32768	@ 0x8000
 800408c:	f043 0380 	orr.w	r3, r3, #128	@ 0x80
 8004090:	64fb      	str	r3, [r7, #76]	@ 0x4c
  reg &= U_EPREG_MASK;
 8004092:	6cfa      	ldr	r2, [r7, #76]	@ 0x4c
 8004094:	f648 738f 	movw	r3, #36751	@ 0x8f8f
 8004098:	4013      	ands	r3, r2
 800409a:	64fb      	str	r3, [r7, #76]	@ 0x4c
  reg &= ~(1 << (U_EP_CTR_TX_Pos + (dir == TUSB_DIR_IN ? 0 : 8)));
 800409c:	f897 3053 	ldrb.w	r3, [r7, #83]	@ 0x53
 80040a0:	2b01      	cmp	r3, #1
 80040a2:	d102      	bne.n	80040aa <handle_ctr_setup+0xaa>
 80040a4:	f06f 0380 	mvn.w	r3, #128	@ 0x80
 80040a8:	e001      	b.n	80040ae <handle_ctr_setup+0xae>
 80040aa:	f46f 4300 	mvn.w	r3, #32768	@ 0x8000
 80040ae:	6cfa      	ldr	r2, [r7, #76]	@ 0x4c
 80040b0:	4013      	ands	r3, r2
 80040b2:	64fb      	str	r3, [r7, #76]	@ 0x4c
 80040b4:	6d7b      	ldr	r3, [r7, #84]	@ 0x54
 80040b6:	64bb      	str	r3, [r7, #72]	@ 0x48
 80040b8:	6cfb      	ldr	r3, [r7, #76]	@ 0x4c
 80040ba:	647b      	str	r3, [r7, #68]	@ 0x44
 80040bc:	2300      	movs	r3, #0
 80040be:	f887 3043 	strb.w	r3, [r7, #67]	@ 0x43
  if (need_exclusive) {
 80040c2:	f897 3043 	ldrb.w	r3, [r7, #67]	@ 0x43
 80040c6:	2b00      	cmp	r3, #0
 80040c8:	d017      	beq.n	80040fa <handle_ctr_setup+0xfa>
 80040ca:	2300      	movs	r3, #0
 80040cc:	f887 3042 	strb.w	r3, [r7, #66]	@ 0x42
    NVIC_DisableIRQ(USB_LP_IRQn);
    NVIC_DisableIRQ(USBWakeUp_RMP_IRQn);
  } else
  #endif
  {
    for (uint8_t i = 0; i < FSDEV_IRQ_NUM; i++) {
 80040d0:	2300      	movs	r3, #0
 80040d2:	f887 3041 	strb.w	r3, [r7, #65]	@ 0x41
 80040d6:	e00b      	b.n	80040f0 <handle_ctr_setup+0xf0>
      NVIC_DisableIRQ(fsdev_irq[i]);
 80040d8:	f897 3041 	ldrb.w	r3, [r7, #65]	@ 0x41
 80040dc:	4a38      	ldr	r2, [pc, #224]	@ (80041c0 <handle_ctr_setup+0x1c0>)
 80040de:	56d3      	ldrsb	r3, [r2, r3]
 80040e0:	4618      	mov	r0, r3
 80040e2:	f7ff fe15 	bl	8003d10 <__NVIC_DisableIRQ>
    for (uint8_t i = 0; i < FSDEV_IRQ_NUM; i++) {
 80040e6:	f897 3041 	ldrb.w	r3, [r7, #65]	@ 0x41
 80040ea:	3301      	adds	r3, #1
 80040ec:	f887 3041 	strb.w	r3, [r7, #65]	@ 0x41
 80040f0:	f897 3041 	ldrb.w	r3, [r7, #65]	@ 0x41
 80040f4:	2b02      	cmp	r3, #2
 80040f6:	d9ef      	bls.n	80040d8 <handle_ctr_setup+0xd8>
    }
  }

  // CMSIS has a membar after disabling interrupts
}
 80040f8:	bf00      	nop
  FSDEV_REG->ep[ep_id].reg = (fsdev_bus_t)value;
 80040fa:	4a30      	ldr	r2, [pc, #192]	@ (80041bc <handle_ctr_setup+0x1bc>)
 80040fc:	6c7b      	ldr	r3, [r7, #68]	@ 0x44
 80040fe:	b299      	uxth	r1, r3
 8004100:	6cbb      	ldr	r3, [r7, #72]	@ 0x48
 8004102:	f822 1023 	strh.w	r1, [r2, r3, lsl #2]
  if (need_exclusive) {
 8004106:	f897 3043 	ldrb.w	r3, [r7, #67]	@ 0x43
 800410a:	2b00      	cmp	r3, #0
 800410c:	d01d      	beq.n	800414a <handle_ctr_setup+0x14a>
 800410e:	2300      	movs	r3, #0
 8004110:	f887 3040 	strb.w	r3, [r7, #64]	@ 0x40
  __ASM volatile ("dsb 0xF":::"memory");
 8004114:	f3bf 8f4f 	dsb	sy
}
 8004118:	bf00      	nop
  __ASM volatile ("isb 0xF":::"memory");
 800411a:	f3bf 8f6f 	isb	sy
}
 800411e:	bf00      	nop
    for (uint8_t i = 0; i < FSDEV_IRQ_NUM; i++) {
 8004120:	2300      	movs	r3, #0
 8004122:	f887 303f 	strb.w	r3, [r7, #63]	@ 0x3f
 8004126:	e00b      	b.n	8004140 <handle_ctr_setup+0x140>
      NVIC_EnableIRQ(fsdev_irq[i]);
 8004128:	f897 303f 	ldrb.w	r3, [r7, #63]	@ 0x3f
 800412c:	4a24      	ldr	r2, [pc, #144]	@ (80041c0 <handle_ctr_setup+0x1c0>)
 800412e:	56d3      	ldrsb	r3, [r2, r3]
 8004130:	4618      	mov	r0, r3
 8004132:	f7ff fdd1 	bl	8003cd8 <__NVIC_EnableIRQ>
    for (uint8_t i = 0; i < FSDEV_IRQ_NUM; i++) {
 8004136:	f897 303f 	ldrb.w	r3, [r7, #63]	@ 0x3f
 800413a:	3301      	adds	r3, #1
 800413c:	f887 303f 	strb.w	r3, [r7, #63]	@ 0x3f
 8004140:	f897 303f 	ldrb.w	r3, [r7, #63]	@ 0x3f
 8004144:	2b02      	cmp	r3, #2
 8004146:	d9ef      	bls.n	8004128 <handle_ctr_setup+0x128>
}
 8004148:	bf00      	nop
}
 800414a:	bf00      	nop
}
 800414c:	bf00      	nop

  // Clear CTR RX if another setup packet arrived before this, it will be discarded
  ep_write_clear_ctr(ep_id, TUSB_DIR_OUT);

  // Setup packet should always be 8 bytes. If not, we probably missed the packet
  if (rx_count == 8) {
 800414e:	f8b7 305e 	ldrh.w	r3, [r7, #94]	@ 0x5e
 8004152:	2b08      	cmp	r3, #8
 8004154:	d11c      	bne.n	8004190 <handle_ctr_setup+0x190>
 8004156:	2300      	movs	r3, #0
 8004158:	f887 302b 	strb.w	r3, [r7, #43]	@ 0x2b
 800415c:	f107 0318 	add.w	r3, r7, #24
 8004160:	627b      	str	r3, [r7, #36]	@ 0x24
 8004162:	2301      	movs	r3, #1
 8004164:	f887 3023 	strb.w	r3, [r7, #35]	@ 0x23
  event.rhport = rhport;
 8004168:	f897 302b 	ldrb.w	r3, [r7, #43]	@ 0x2b
 800416c:	733b      	strb	r3, [r7, #12]
  event.event_id = DCD_EVENT_SETUP_RECEIVED;
 800416e:	2306      	movs	r3, #6
 8004170:	737b      	strb	r3, [r7, #13]
  (void) memcpy(&event.setup_received, setup, sizeof(tusb_control_request_t));
 8004172:	6a7a      	ldr	r2, [r7, #36]	@ 0x24
 8004174:	f107 0310 	add.w	r3, r7, #16
 8004178:	6810      	ldr	r0, [r2, #0]
 800417a:	6851      	ldr	r1, [r2, #4]
 800417c:	c303      	stmia	r3!, {r0, r1}
  dcd_event_handler(&event, in_isr);
 800417e:	f897 2023 	ldrb.w	r2, [r7, #35]	@ 0x23
 8004182:	f107 030c 	add.w	r3, r7, #12
 8004186:	4611      	mov	r1, r2
 8004188:	4618      	mov	r0, r3
 800418a:	f7fe fe5f 	bl	8002e4c <dcd_event_handler>
}
 800418e:	e00e      	b.n	80041ae <handle_ctr_setup+0x1ae>
    dcd_event_setup_received(0, (uint8_t *)setup_packet, true);
    // Hardware should reset EP0 RX/TX to NAK and both toggle to 1
  } else {
    // Missed setup packet !!!
    TU_BREAKPOINT();
 8004190:	4b0c      	ldr	r3, [pc, #48]	@ (80041c4 <handle_ctr_setup+0x1c4>)
 8004192:	65bb      	str	r3, [r7, #88]	@ 0x58
 8004194:	6dbb      	ldr	r3, [r7, #88]	@ 0x58
 8004196:	681b      	ldr	r3, [r3, #0]
 8004198:	f003 0301 	and.w	r3, r3, #1
 800419c:	2b00      	cmp	r3, #0
 800419e:	d000      	beq.n	80041a2 <handle_ctr_setup+0x1a2>
 80041a0:	be00      	bkpt	0x0000
  btable_set_rx_bufsize(0, BTABLE_BUF_RX, 8);
 80041a2:	2208      	movs	r2, #8
 80041a4:	2101      	movs	r1, #1
 80041a6:	2000      	movs	r0, #0
 80041a8:	f001 fc62 	bl	8005a70 <btable_set_rx_bufsize>
}
 80041ac:	bf00      	nop
    edpt0_prepare_setup();
  }
}
 80041ae:	bf00      	nop
 80041b0:	3760      	adds	r7, #96	@ 0x60
 80041b2:	46bd      	mov	sp, r7
 80041b4:	bd80      	pop	{r7, pc}
 80041b6:	bf00      	nop
 80041b8:	40006000 	.word	0x40006000
 80041bc:	40005c00 	.word	0x40005c00
 80041c0:	08007820 	.word	0x08007820
 80041c4:	e000edf0 	.word	0xe000edf0

080041c8 <handle_ctr_rx>:

// Handle CTR interrupt for the RX/OUT direction
static void handle_ctr_rx(uint32_t ep_id) {
 80041c8:	b580      	push	{r7, lr}
 80041ca:	b0a2      	sub	sp, #136	@ 0x88
 80041cc:	af00      	add	r7, sp, #0
 80041ce:	6078      	str	r0, [r7, #4]
 80041d0:	687b      	ldr	r3, [r7, #4]
 80041d2:	66bb      	str	r3, [r7, #104]	@ 0x68
  return FSDEV_REG->ep[ep_id].reg;
 80041d4:	4aba      	ldr	r2, [pc, #744]	@ (80044c0 <handle_ctr_rx+0x2f8>)
 80041d6:	6ebb      	ldr	r3, [r7, #104]	@ 0x68
 80041d8:	f832 3023 	ldrh.w	r3, [r2, r3, lsl #2]
 80041dc:	b29b      	uxth	r3, r3
  uint32_t      ep_reg = ep_read(ep_id) | U_EP_CTR_TX | U_EP_CTR_RX;
 80041de:	f443 4300 	orr.w	r3, r3, #32768	@ 0x8000
 80041e2:	f043 0380 	orr.w	r3, r3, #128	@ 0x80
 80041e6:	61fb      	str	r3, [r7, #28]
  const uint8_t ep_num = ep_reg & U_EPADDR_FIELD;
 80041e8:	69fb      	ldr	r3, [r7, #28]
 80041ea:	b2db      	uxtb	r3, r3
 80041ec:	f003 030f 	and.w	r3, r3, #15
 80041f0:	f887 3086 	strb.w	r3, [r7, #134]	@ 0x86
  const bool    is_iso = ep_is_iso(ep_reg);
 80041f4:	69fb      	ldr	r3, [r7, #28]
 80041f6:	66fb      	str	r3, [r7, #108]	@ 0x6c
  return (reg & U_EP_TYPE_MASK) == U_EP_ISOCHRONOUS;
 80041f8:	6efb      	ldr	r3, [r7, #108]	@ 0x6c
 80041fa:	f403 63c0 	and.w	r3, r3, #1536	@ 0x600
 80041fe:	f5b3 6f80 	cmp.w	r3, #1024	@ 0x400
 8004202:	bf0c      	ite	eq
 8004204:	2301      	moveq	r3, #1
 8004206:	2300      	movne	r3, #0
 8004208:	b2db      	uxtb	r3, r3
 800420a:	f887 3085 	strb.w	r3, [r7, #133]	@ 0x85
 800420e:	f897 3086 	ldrb.w	r3, [r7, #134]	@ 0x86
 8004212:	f887 3071 	strb.w	r3, [r7, #113]	@ 0x71
 8004216:	2300      	movs	r3, #0
 8004218:	f887 3070 	strb.w	r3, [r7, #112]	@ 0x70
  return &xfer_status[epnum][dir];
 800421c:	f897 2071 	ldrb.w	r2, [r7, #113]	@ 0x71
 8004220:	f897 3070 	ldrb.w	r3, [r7, #112]	@ 0x70
 8004224:	0052      	lsls	r2, r2, #1
 8004226:	4413      	add	r3, r2
 8004228:	011b      	lsls	r3, r3, #4
 800422a:	4aa6      	ldr	r2, [pc, #664]	@ (80044c4 <handle_ctr_rx+0x2fc>)
 800422c:	4413      	add	r3, r2
  xfer_ctl_t   *xfer   = xfer_ctl_ptr(ep_num, TUSB_DIR_OUT);
 800422e:	f8c7 3080 	str.w	r3, [r7, #128]	@ 0x80

  uint8_t buf_id;
  #if FSDEV_USE_SBUF_ISO == 0
  bool const dbl_buf = is_iso;
 8004232:	f897 3085 	ldrb.w	r3, [r7, #133]	@ 0x85
 8004236:	f887 307f 	strb.w	r3, [r7, #127]	@ 0x7f
  #else
  bool const dbl_buf = false;
  #endif
  if (dbl_buf) {
 800423a:	f897 307f 	ldrb.w	r3, [r7, #127]	@ 0x7f
 800423e:	2b00      	cmp	r3, #0
 8004240:	d00a      	beq.n	8004258 <handle_ctr_rx+0x90>
    buf_id = (ep_reg & U_EP_DTOG_RX) ? 0 : 1;
 8004242:	69fb      	ldr	r3, [r7, #28]
 8004244:	f403 4380 	and.w	r3, r3, #16384	@ 0x4000
 8004248:	2b00      	cmp	r3, #0
 800424a:	bf0c      	ite	eq
 800424c:	2301      	moveq	r3, #1
 800424e:	2300      	movne	r3, #0
 8004250:	b2db      	uxtb	r3, r3
 8004252:	f887 3087 	strb.w	r3, [r7, #135]	@ 0x87
 8004256:	e002      	b.n	800425e <handle_ctr_rx+0x96>
  } else {
    buf_id = BTABLE_BUF_RX;
 8004258:	2301      	movs	r3, #1
 800425a:	f887 3087 	strb.w	r3, [r7, #135]	@ 0x87
 800425e:	687b      	ldr	r3, [r7, #4]
 8004260:	65fb      	str	r3, [r7, #92]	@ 0x5c
 8004262:	f897 3087 	ldrb.w	r3, [r7, #135]	@ 0x87
 8004266:	f887 305b 	strb.w	r3, [r7, #91]	@ 0x5b
  count = FSDEV_BTABLE->ep16[ep_id][buf_id].count;
 800426a:	4997      	ldr	r1, [pc, #604]	@ (80044c8 <handle_ctr_rx+0x300>)
 800426c:	f897 305b 	ldrb.w	r3, [r7, #91]	@ 0x5b
 8004270:	6dfa      	ldr	r2, [r7, #92]	@ 0x5c
 8004272:	0052      	lsls	r2, r2, #1
 8004274:	4413      	add	r3, r2
 8004276:	00db      	lsls	r3, r3, #3
 8004278:	440b      	add	r3, r1
 800427a:	889b      	ldrh	r3, [r3, #4]
 800427c:	f8a7 3058 	strh.w	r3, [r7, #88]	@ 0x58
  return count & 0x3FFU;
 8004280:	f8b7 3058 	ldrh.w	r3, [r7, #88]	@ 0x58
 8004284:	f3c3 0309 	ubfx	r3, r3, #0, #10
 8004288:	b29b      	uxth	r3, r3
  }
  const uint16_t   rx_count = btable_get_count(ep_id, buf_id);
 800428a:	f8a7 307c 	strh.w	r3, [r7, #124]	@ 0x7c
 800428e:	687b      	ldr	r3, [r7, #4]
 8004290:	667b      	str	r3, [r7, #100]	@ 0x64
 8004292:	f897 3087 	ldrb.w	r3, [r7, #135]	@ 0x87
 8004296:	f887 3063 	strb.w	r3, [r7, #99]	@ 0x63
  return FSDEV_BTABLE->ep16[ep_id][buf_id].addr;
 800429a:	498b      	ldr	r1, [pc, #556]	@ (80044c8 <handle_ctr_rx+0x300>)
 800429c:	f897 3063 	ldrb.w	r3, [r7, #99]	@ 0x63
 80042a0:	6e7a      	ldr	r2, [r7, #100]	@ 0x64
 80042a2:	0052      	lsls	r2, r2, #1
 80042a4:	4413      	add	r3, r2
 80042a6:	f831 3033 	ldrh.w	r3, [r1, r3, lsl #3]
 80042aa:	b29b      	uxth	r3, r3
  uint16_t         pma_addr = (uint16_t)btable_get_addr(ep_id, buf_id);
 80042ac:	f8a7 307a 	strh.w	r3, [r7, #122]	@ 0x7a
  fsdev_pma_buf_t *pma_buf  = PMA_BUF_AT(pma_addr);
 80042b0:	f8b7 307a 	ldrh.w	r3, [r7, #122]	@ 0x7a
 80042b4:	005b      	lsls	r3, r3, #1
 80042b6:	f103 4380 	add.w	r3, r3, #1073741824	@ 0x40000000
 80042ba:	f503 43c0 	add.w	r3, r3, #24576	@ 0x6000
 80042be:	677b      	str	r3, [r7, #116]	@ 0x74

  if (xfer->ff) {
 80042c0:	f8d7 3080 	ldr.w	r3, [r7, #128]	@ 0x80
 80042c4:	685b      	ldr	r3, [r3, #4]
 80042c6:	2b00      	cmp	r3, #0
 80042c8:	d01d      	beq.n	8004306 <handle_ctr_rx+0x13e>
    tu_hwfifo_read_to_fifo(pma_buf, xfer->ff, rx_count, NULL);
 80042ca:	f8d7 3080 	ldr.w	r3, [r7, #128]	@ 0x80
 80042ce:	685b      	ldr	r3, [r3, #4]
 80042d0:	6f7a      	ldr	r2, [r7, #116]	@ 0x74
 80042d2:	657a      	str	r2, [r7, #84]	@ 0x54
 80042d4:	653b      	str	r3, [r7, #80]	@ 0x50
 80042d6:	f8b7 307c 	ldrh.w	r3, [r7, #124]	@ 0x7c
 80042da:	f8a7 304e 	strh.w	r3, [r7, #78]	@ 0x4e
 80042de:	2300      	movs	r3, #0
 80042e0:	64bb      	str	r3, [r7, #72]	@ 0x48
  const tu_hwfifo_access_t default_access = {.data_stride = CFG_TUSB_FIFO_HWFIFO_DATA_STRIDE, .param = 0};
 80042e2:	2302      	movs	r3, #2
 80042e4:	723b      	strb	r3, [r7, #8]
 80042e6:	2300      	movs	r3, #0
 80042e8:	60fb      	str	r3, [r7, #12]
  return tu_fifo_write_n_access_mode(f, (const void *)(uintptr_t)hwfifo, n,
 80042ea:	6cbb      	ldr	r3, [r7, #72]	@ 0x48
 80042ec:	2b00      	cmp	r3, #0
 80042ee:	d102      	bne.n	80042f6 <handle_ctr_rx+0x12e>
 80042f0:	f107 0308 	add.w	r3, r7, #8
 80042f4:	e000      	b.n	80042f8 <handle_ctr_rx+0x130>
 80042f6:	6cbb      	ldr	r3, [r7, #72]	@ 0x48
 80042f8:	f8b7 204e 	ldrh.w	r2, [r7, #78]	@ 0x4e
 80042fc:	6d79      	ldr	r1, [r7, #84]	@ 0x54
 80042fe:	6d38      	ldr	r0, [r7, #80]	@ 0x50
 8004300:	f7fd fbb4 	bl	8001a6c <tu_fifo_write_n_access_mode>
 8004304:	e00c      	b.n	8004320 <handle_ctr_rx+0x158>
  } else {
    tu_hwfifo_read(pma_buf, xfer->buffer + xfer->queued_len, rx_count, NULL);
 8004306:	f8d7 3080 	ldr.w	r3, [r7, #128]	@ 0x80
 800430a:	681b      	ldr	r3, [r3, #0]
 800430c:	f8d7 2080 	ldr.w	r2, [r7, #128]	@ 0x80
 8004310:	8952      	ldrh	r2, [r2, #10]
 8004312:	1899      	adds	r1, r3, r2
 8004314:	f8b7 207c 	ldrh.w	r2, [r7, #124]	@ 0x7c
 8004318:	2300      	movs	r3, #0
 800431a:	6f78      	ldr	r0, [r7, #116]	@ 0x74
 800431c:	f7fd f884 	bl	8001428 <tu_hwfifo_read>
  }
  xfer->queued_len += rx_count;
 8004320:	f8d7 3080 	ldr.w	r3, [r7, #128]	@ 0x80
 8004324:	895a      	ldrh	r2, [r3, #10]
 8004326:	f8b7 307c 	ldrh.w	r3, [r7, #124]	@ 0x7c
 800432a:	4413      	add	r3, r2
 800432c:	b29a      	uxth	r2, r3
 800432e:	f8d7 3080 	ldr.w	r3, [r7, #128]	@ 0x80
 8004332:	815a      	strh	r2, [r3, #10]

  if ((rx_count < xfer->max_packet_size) || (xfer->queued_len >= xfer->total_len)) {
 8004334:	f8d7 3080 	ldr.w	r3, [r7, #128]	@ 0x80
 8004338:	899b      	ldrh	r3, [r3, #12]
 800433a:	f8b7 207c 	ldrh.w	r2, [r7, #124]	@ 0x7c
 800433e:	429a      	cmp	r2, r3
 8004340:	d307      	bcc.n	8004352 <handle_ctr_rx+0x18a>
 8004342:	f8d7 3080 	ldr.w	r3, [r7, #128]	@ 0x80
 8004346:	895a      	ldrh	r2, [r3, #10]
 8004348:	f8d7 3080 	ldr.w	r3, [r7, #128]	@ 0x80
 800434c:	891b      	ldrh	r3, [r3, #8]
 800434e:	429a      	cmp	r2, r3
 8004350:	d33a      	bcc.n	80043c8 <handle_ctr_rx+0x200>
    // all bytes received or short packet

    // For ch32v203: reset rx bufsize to mps to prevent race condition to cause PMAOVR (occurs with msc write10)
    btable_set_rx_bufsize(ep_id, BTABLE_BUF_RX, xfer->max_packet_size);
 8004352:	f8d7 3080 	ldr.w	r3, [r7, #128]	@ 0x80
 8004356:	899b      	ldrh	r3, [r3, #12]
 8004358:	461a      	mov	r2, r3
 800435a:	2101      	movs	r1, #1
 800435c:	6878      	ldr	r0, [r7, #4]
 800435e:	f001 fb87 	bl	8005a70 <btable_set_rx_bufsize>

    dcd_event_xfer_complete(0, ep_num, xfer->queued_len, XFER_RESULT_SUCCESS, true);
 8004362:	f8d7 3080 	ldr.w	r3, [r7, #128]	@ 0x80
 8004366:	895b      	ldrh	r3, [r3, #10]
 8004368:	461a      	mov	r2, r3
 800436a:	2300      	movs	r3, #0
 800436c:	f887 3047 	strb.w	r3, [r7, #71]	@ 0x47
 8004370:	f897 3086 	ldrb.w	r3, [r7, #134]	@ 0x86
 8004374:	f887 3046 	strb.w	r3, [r7, #70]	@ 0x46
 8004378:	643a      	str	r2, [r7, #64]	@ 0x40
 800437a:	2300      	movs	r3, #0
 800437c:	f887 303f 	strb.w	r3, [r7, #63]	@ 0x3f
 8004380:	2301      	movs	r3, #1
 8004382:	f887 303e 	strb.w	r3, [r7, #62]	@ 0x3e
  event.rhport = rhport;
 8004386:	f897 3047 	ldrb.w	r3, [r7, #71]	@ 0x47
 800438a:	743b      	strb	r3, [r7, #16]
  event.event_id = DCD_EVENT_XFER_COMPLETE;
 800438c:	2307      	movs	r3, #7
 800438e:	747b      	strb	r3, [r7, #17]
  event.xfer_complete.ep_addr = ep_addr;
 8004390:	f897 3046 	ldrb.w	r3, [r7, #70]	@ 0x46
 8004394:	753b      	strb	r3, [r7, #20]
  event.xfer_complete.len     = xferred_bytes;
 8004396:	6c3b      	ldr	r3, [r7, #64]	@ 0x40
 8004398:	61bb      	str	r3, [r7, #24]
  event.xfer_complete.result  = result;
 800439a:	f897 303f 	ldrb.w	r3, [r7, #63]	@ 0x3f
 800439e:	757b      	strb	r3, [r7, #21]
  dcd_event_handler(&event, in_isr);
 80043a0:	f897 203e 	ldrb.w	r2, [r7, #62]	@ 0x3e
 80043a4:	f107 0310 	add.w	r3, r7, #16
 80043a8:	4611      	mov	r1, r2
 80043aa:	4618      	mov	r0, r3
 80043ac:	f7fe fd4e 	bl	8002e4c <dcd_event_handler>
}
 80043b0:	bf00      	nop

    // ch32 seems to unconditionally accept ZLP on EP0 OUT, which can incorrectly use queued_len of previous
    // transfer. So reset total_len and queued_len to 0.
    xfer->total_len = xfer->queued_len = 0;
 80043b2:	f8d7 3080 	ldr.w	r3, [r7, #128]	@ 0x80
 80043b6:	2200      	movs	r2, #0
 80043b8:	815a      	strh	r2, [r3, #10]
 80043ba:	f8d7 3080 	ldr.w	r3, [r7, #128]	@ 0x80
 80043be:	895a      	ldrh	r2, [r3, #10]
 80043c0:	f8d7 3080 	ldr.w	r3, [r7, #128]	@ 0x80
 80043c4:	811a      	strh	r2, [r3, #8]
 80043c6:	e095      	b.n	80044f4 <handle_ctr_rx+0x32c>
  } else {
    // Set endpoint active again for receiving more data. Note that isochronous endpoints stay active always
    if (!is_iso) {
 80043c8:	f897 3085 	ldrb.w	r3, [r7, #133]	@ 0x85
 80043cc:	f083 0301 	eor.w	r3, r3, #1
 80043d0:	b2db      	uxtb	r3, r3
 80043d2:	2b00      	cmp	r3, #0
 80043d4:	d01b      	beq.n	800440e <handle_ctr_rx+0x246>
      const uint16_t cnt = tu_min16(xfer->total_len - xfer->queued_len, xfer->max_packet_size);
 80043d6:	f8d7 3080 	ldr.w	r3, [r7, #128]	@ 0x80
 80043da:	891a      	ldrh	r2, [r3, #8]
 80043dc:	f8d7 3080 	ldr.w	r3, [r7, #128]	@ 0x80
 80043e0:	895b      	ldrh	r3, [r3, #10]
 80043e2:	1ad3      	subs	r3, r2, r3
 80043e4:	b29a      	uxth	r2, r3
 80043e6:	f8d7 3080 	ldr.w	r3, [r7, #128]	@ 0x80
 80043ea:	899b      	ldrh	r3, [r3, #12]
 80043ec:	87ba      	strh	r2, [r7, #60]	@ 0x3c
 80043ee:	877b      	strh	r3, [r7, #58]	@ 0x3a
 80043f0:	8fba      	ldrh	r2, [r7, #60]	@ 0x3c
 80043f2:	8f7b      	ldrh	r3, [r7, #58]	@ 0x3a
 80043f4:	4293      	cmp	r3, r2
 80043f6:	bf28      	it	cs
 80043f8:	4613      	movcs	r3, r2
 80043fa:	b29b      	uxth	r3, r3
 80043fc:	f8a7 3072 	strh.w	r3, [r7, #114]	@ 0x72
      btable_set_rx_bufsize(ep_id, BTABLE_BUF_RX, cnt);
 8004400:	f8b7 3072 	ldrh.w	r3, [r7, #114]	@ 0x72
 8004404:	461a      	mov	r2, r3
 8004406:	2101      	movs	r1, #1
 8004408:	6878      	ldr	r0, [r7, #4]
 800440a:	f001 fb31 	bl	8005a70 <btable_set_rx_bufsize>
    }
    ep_reg &= U_EPREG_MASK | EP_STAT_MASK(TUSB_DIR_OUT); // will change RX Status, reserved other toggle bits
 800440e:	69fa      	ldr	r2, [r7, #28]
 8004410:	f64b 738f 	movw	r3, #49039	@ 0xbf8f
 8004414:	4013      	ands	r3, r2
 8004416:	61fb      	str	r3, [r7, #28]
 8004418:	f107 031c 	add.w	r3, r7, #28
 800441c:	627b      	str	r3, [r7, #36]	@ 0x24
 800441e:	2300      	movs	r3, #0
 8004420:	f887 3023 	strb.w	r3, [r7, #35]	@ 0x23
 8004424:	2303      	movs	r3, #3
 8004426:	f887 3022 	strb.w	r3, [r7, #34]	@ 0x22
  *reg ^= (state << (U_EPTX_STAT_Pos + (dir == TUSB_DIR_IN ? 0 : 8)));
 800442a:	6a7b      	ldr	r3, [r7, #36]	@ 0x24
 800442c:	681b      	ldr	r3, [r3, #0]
 800442e:	f897 1022 	ldrb.w	r1, [r7, #34]	@ 0x22
 8004432:	f897 2023 	ldrb.w	r2, [r7, #35]	@ 0x23
 8004436:	2a01      	cmp	r2, #1
 8004438:	d101      	bne.n	800443e <handle_ctr_rx+0x276>
 800443a:	2204      	movs	r2, #4
 800443c:	e000      	b.n	8004440 <handle_ctr_rx+0x278>
 800443e:	220c      	movs	r2, #12
 8004440:	fa01 f202 	lsl.w	r2, r1, r2
 8004444:	405a      	eors	r2, r3
 8004446:	6a7b      	ldr	r3, [r7, #36]	@ 0x24
 8004448:	601a      	str	r2, [r3, #0]
}
 800444a:	bf00      	nop
    ep_change_status(&ep_reg, TUSB_DIR_OUT, EP_STAT_VALID);
    ep_write(ep_id, ep_reg, false);
 800444c:	69fb      	ldr	r3, [r7, #28]
 800444e:	687a      	ldr	r2, [r7, #4]
 8004450:	637a      	str	r2, [r7, #52]	@ 0x34
 8004452:	633b      	str	r3, [r7, #48]	@ 0x30
 8004454:	2300      	movs	r3, #0
 8004456:	f887 302f 	strb.w	r3, [r7, #47]	@ 0x2f
  if (need_exclusive) {
 800445a:	f897 302f 	ldrb.w	r3, [r7, #47]	@ 0x2f
 800445e:	2b00      	cmp	r3, #0
 8004460:	d017      	beq.n	8004492 <handle_ctr_rx+0x2ca>
 8004462:	2300      	movs	r3, #0
 8004464:	f887 302e 	strb.w	r3, [r7, #46]	@ 0x2e
    for (uint8_t i = 0; i < FSDEV_IRQ_NUM; i++) {
 8004468:	2300      	movs	r3, #0
 800446a:	f887 302d 	strb.w	r3, [r7, #45]	@ 0x2d
 800446e:	e00b      	b.n	8004488 <handle_ctr_rx+0x2c0>
      NVIC_DisableIRQ(fsdev_irq[i]);
 8004470:	f897 302d 	ldrb.w	r3, [r7, #45]	@ 0x2d
 8004474:	4a15      	ldr	r2, [pc, #84]	@ (80044cc <handle_ctr_rx+0x304>)
 8004476:	56d3      	ldrsb	r3, [r2, r3]
 8004478:	4618      	mov	r0, r3
 800447a:	f7ff fc49 	bl	8003d10 <__NVIC_DisableIRQ>
    for (uint8_t i = 0; i < FSDEV_IRQ_NUM; i++) {
 800447e:	f897 302d 	ldrb.w	r3, [r7, #45]	@ 0x2d
 8004482:	3301      	adds	r3, #1
 8004484:	f887 302d 	strb.w	r3, [r7, #45]	@ 0x2d
 8004488:	f897 302d 	ldrb.w	r3, [r7, #45]	@ 0x2d
 800448c:	2b02      	cmp	r3, #2
 800448e:	d9ef      	bls.n	8004470 <handle_ctr_rx+0x2a8>
}
 8004490:	bf00      	nop
  FSDEV_REG->ep[ep_id].reg = (fsdev_bus_t)value;
 8004492:	4a0b      	ldr	r2, [pc, #44]	@ (80044c0 <handle_ctr_rx+0x2f8>)
 8004494:	6b3b      	ldr	r3, [r7, #48]	@ 0x30
 8004496:	b299      	uxth	r1, r3
 8004498:	6b7b      	ldr	r3, [r7, #52]	@ 0x34
 800449a:	f822 1023 	strh.w	r1, [r2, r3, lsl #2]
  if (need_exclusive) {
 800449e:	f897 302f 	ldrb.w	r3, [r7, #47]	@ 0x2f
 80044a2:	2b00      	cmp	r3, #0
 80044a4:	d025      	beq.n	80044f2 <handle_ctr_rx+0x32a>
 80044a6:	2300      	movs	r3, #0
 80044a8:	f887 302c 	strb.w	r3, [r7, #44]	@ 0x2c
  __ASM volatile ("dsb 0xF":::"memory");
 80044ac:	f3bf 8f4f 	dsb	sy
}
 80044b0:	bf00      	nop
  __ASM volatile ("isb 0xF":::"memory");
 80044b2:	f3bf 8f6f 	isb	sy
}
 80044b6:	bf00      	nop
    for (uint8_t i = 0; i < FSDEV_IRQ_NUM; i++) {
 80044b8:	2300      	movs	r3, #0
 80044ba:	f887 302b 	strb.w	r3, [r7, #43]	@ 0x2b
 80044be:	e013      	b.n	80044e8 <handle_ctr_rx+0x320>
 80044c0:	40005c00 	.word	0x40005c00
 80044c4:	2000058c 	.word	0x2000058c
 80044c8:	40006000 	.word	0x40006000
 80044cc:	08007820 	.word	0x08007820
      NVIC_EnableIRQ(fsdev_irq[i]);
 80044d0:	f897 302b 	ldrb.w	r3, [r7, #43]	@ 0x2b
 80044d4:	4a09      	ldr	r2, [pc, #36]	@ (80044fc <handle_ctr_rx+0x334>)
 80044d6:	56d3      	ldrsb	r3, [r2, r3]
 80044d8:	4618      	mov	r0, r3
 80044da:	f7ff fbfd 	bl	8003cd8 <__NVIC_EnableIRQ>
    for (uint8_t i = 0; i < FSDEV_IRQ_NUM; i++) {
 80044de:	f897 302b 	ldrb.w	r3, [r7, #43]	@ 0x2b
 80044e2:	3301      	adds	r3, #1
 80044e4:	f887 302b 	strb.w	r3, [r7, #43]	@ 0x2b
 80044e8:	f897 302b 	ldrb.w	r3, [r7, #43]	@ 0x2b
 80044ec:	2b02      	cmp	r3, #2
 80044ee:	d9ef      	bls.n	80044d0 <handle_ctr_rx+0x308>
}
 80044f0:	bf00      	nop
}
 80044f2:	bf00      	nop
  }
}
 80044f4:	bf00      	nop
 80044f6:	3788      	adds	r7, #136	@ 0x88
 80044f8:	46bd      	mov	sp, r7
 80044fa:	bd80      	pop	{r7, pc}
 80044fc:	08007820 	.word	0x08007820

08004500 <dcd_int_handler>:

void dcd_int_handler(uint8_t rhport) {
 8004500:	b580      	push	{r7, lr}
 8004502:	b0a6      	sub	sp, #152	@ 0x98
 8004504:	af00      	add	r7, sp, #0
 8004506:	4603      	mov	r3, r0
 8004508:	71fb      	strb	r3, [r7, #7]
  uint32_t int_status = FSDEV_REG->ISTR;
 800450a:	4bb9      	ldr	r3, [pc, #740]	@ (80047f0 <dcd_int_handler+0x2f0>)
 800450c:	f8b3 3044 	ldrh.w	r3, [r3, #68]	@ 0x44
 8004510:	b29b      	uxth	r3, r3
 8004512:	f8c7 3094 	str.w	r3, [r7, #148]	@ 0x94

  /* Put SOF flag at the beginning of ISR in case to get least amount of jitter if it is used for timing purposes */
  if (int_status & U_ISTR_SOF) {
 8004516:	f8d7 3094 	ldr.w	r3, [r7, #148]	@ 0x94
 800451a:	f403 7300 	and.w	r3, r3, #512	@ 0x200
 800451e:	2b00      	cmp	r3, #0
 8004520:	d023      	beq.n	800456a <dcd_int_handler+0x6a>
    FSDEV_REG->ISTR = (fsdev_bus_t)~U_ISTR_SOF;
 8004522:	4bb3      	ldr	r3, [pc, #716]	@ (80047f0 <dcd_int_handler+0x2f0>)
 8004524:	f64f 52ff 	movw	r2, #65023	@ 0xfdff
 8004528:	f8a3 2044 	strh.w	r2, [r3, #68]	@ 0x44
    dcd_event_sof(0, FSDEV_REG->FNR & U_FNR_FN, true);
 800452c:	4bb0      	ldr	r3, [pc, #704]	@ (80047f0 <dcd_int_handler+0x2f0>)
 800452e:	f8b3 3048 	ldrh.w	r3, [r3, #72]	@ 0x48
 8004532:	b29b      	uxth	r3, r3
 8004534:	f3c3 030a 	ubfx	r3, r3, #0, #11
 8004538:	2200      	movs	r2, #0
 800453a:	f887 2087 	strb.w	r2, [r7, #135]	@ 0x87
 800453e:	f8c7 3080 	str.w	r3, [r7, #128]	@ 0x80
 8004542:	2301      	movs	r3, #1
 8004544:	f887 307f 	strb.w	r3, [r7, #127]	@ 0x7f

TU_ATTR_ALWAYS_INLINE static inline void dcd_event_sof(uint8_t rhport, uint32_t frame_count, bool in_isr) {
  dcd_event_t event;
  event.rhport = rhport;
 8004548:	f897 3087 	ldrb.w	r3, [r7, #135]	@ 0x87
 800454c:	723b      	strb	r3, [r7, #8]
  event.event_id = DCD_EVENT_SOF;
 800454e:	2303      	movs	r3, #3
 8004550:	727b      	strb	r3, [r7, #9]
  event.sof.frame_count = frame_count;
 8004552:	f8d7 3080 	ldr.w	r3, [r7, #128]	@ 0x80
 8004556:	60fb      	str	r3, [r7, #12]
  dcd_event_handler(&event, in_isr);
 8004558:	f897 207f 	ldrb.w	r2, [r7, #127]	@ 0x7f
 800455c:	f107 0308 	add.w	r3, r7, #8
 8004560:	4611      	mov	r1, r2
 8004562:	4618      	mov	r0, r3
 8004564:	f7fe fc72 	bl	8002e4c <dcd_event_handler>
}
 8004568:	bf00      	nop
  }

  if (int_status & U_ISTR_RESET) {
 800456a:	f8d7 3094 	ldr.w	r3, [r7, #148]	@ 0x94
 800456e:	f403 6380 	and.w	r3, r3, #1024	@ 0x400
 8004572:	2b00      	cmp	r3, #0
 8004574:	d023      	beq.n	80045be <dcd_int_handler+0xbe>
    // USBRST is start of reset.
    FSDEV_REG->ISTR = (fsdev_bus_t)~U_ISTR_RESET;
 8004576:	4b9e      	ldr	r3, [pc, #632]	@ (80047f0 <dcd_int_handler+0x2f0>)
 8004578:	f64f 32ff 	movw	r2, #64511	@ 0xfbff
 800457c:	f8a3 2044 	strh.w	r2, [r3, #68]	@ 0x44
    handle_bus_reset(rhport);
 8004580:	79fb      	ldrb	r3, [r7, #7]
 8004582:	4618      	mov	r0, r3
 8004584:	f7ff fc50 	bl	8003e28 <handle_bus_reset>
 8004588:	2300      	movs	r3, #0
 800458a:	f887 307e 	strb.w	r3, [r7, #126]	@ 0x7e
 800458e:	2300      	movs	r3, #0
 8004590:	f887 307d 	strb.w	r3, [r7, #125]	@ 0x7d
 8004594:	2301      	movs	r3, #1
 8004596:	f887 307c 	strb.w	r3, [r7, #124]	@ 0x7c
  event.rhport = rhport;
 800459a:	f897 307e 	ldrb.w	r3, [r7, #126]	@ 0x7e
 800459e:	753b      	strb	r3, [r7, #20]
  event.event_id = DCD_EVENT_BUS_RESET;
 80045a0:	2301      	movs	r3, #1
 80045a2:	757b      	strb	r3, [r7, #21]
  event.bus_reset.speed = speed;
 80045a4:	f897 307d 	ldrb.w	r3, [r7, #125]	@ 0x7d
 80045a8:	763b      	strb	r3, [r7, #24]
  dcd_event_handler(&event, in_isr);
 80045aa:	f897 207c 	ldrb.w	r2, [r7, #124]	@ 0x7c
 80045ae:	f107 0314 	add.w	r3, r7, #20
 80045b2:	4611      	mov	r1, r2
 80045b4:	4618      	mov	r0, r3
 80045b6:	f7fe fc49 	bl	8002e4c <dcd_event_handler>
}
 80045ba:	bf00      	nop
    dcd_event_bus_reset(0, TUSB_SPEED_FULL, true);
    return; // Don't do the rest of the things here; perhaps they've been cleared?
 80045bc:	e1cd      	b.n	800495a <dcd_int_handler+0x45a>
  }

  if (int_status & U_ISTR_WKUP) {
 80045be:	f8d7 3094 	ldr.w	r3, [r7, #148]	@ 0x94
 80045c2:	f403 5380 	and.w	r3, r3, #4096	@ 0x1000
 80045c6:	2b00      	cmp	r3, #0
 80045c8:	d032      	beq.n	8004630 <dcd_int_handler+0x130>
    FSDEV_REG->CNTR &= ~U_CNTR_LPMODE;
 80045ca:	4b89      	ldr	r3, [pc, #548]	@ (80047f0 <dcd_int_handler+0x2f0>)
 80045cc:	f8b3 3040 	ldrh.w	r3, [r3, #64]	@ 0x40
 80045d0:	b29b      	uxth	r3, r3
 80045d2:	4a87      	ldr	r2, [pc, #540]	@ (80047f0 <dcd_int_handler+0x2f0>)
 80045d4:	f023 0304 	bic.w	r3, r3, #4
 80045d8:	b29b      	uxth	r3, r3
 80045da:	f8a2 3040 	strh.w	r3, [r2, #64]	@ 0x40
    FSDEV_REG->CNTR &= ~U_CNTR_FSUSP;
 80045de:	4b84      	ldr	r3, [pc, #528]	@ (80047f0 <dcd_int_handler+0x2f0>)
 80045e0:	f8b3 3040 	ldrh.w	r3, [r3, #64]	@ 0x40
 80045e4:	b29b      	uxth	r3, r3
 80045e6:	4a82      	ldr	r2, [pc, #520]	@ (80047f0 <dcd_int_handler+0x2f0>)
 80045e8:	f023 0308 	bic.w	r3, r3, #8
 80045ec:	b29b      	uxth	r3, r3
 80045ee:	f8a2 3040 	strh.w	r3, [r2, #64]	@ 0x40

    FSDEV_REG->ISTR = (fsdev_bus_t)~U_ISTR_WKUP;
 80045f2:	4b7f      	ldr	r3, [pc, #508]	@ (80047f0 <dcd_int_handler+0x2f0>)
 80045f4:	f64e 72ff 	movw	r2, #61439	@ 0xefff
 80045f8:	f8a3 2044 	strh.w	r2, [r3, #68]	@ 0x44
 80045fc:	2300      	movs	r3, #0
 80045fe:	f887 307b 	strb.w	r3, [r7, #123]	@ 0x7b
 8004602:	2305      	movs	r3, #5
 8004604:	f887 307a 	strb.w	r3, [r7, #122]	@ 0x7a
 8004608:	2301      	movs	r3, #1
 800460a:	f887 3079 	strb.w	r3, [r7, #121]	@ 0x79
  event.rhport = rhport;
 800460e:	f897 307b 	ldrb.w	r3, [r7, #123]	@ 0x7b
 8004612:	f887 3020 	strb.w	r3, [r7, #32]
  event.event_id = eid;
 8004616:	f897 307a 	ldrb.w	r3, [r7, #122]	@ 0x7a
 800461a:	f887 3021 	strb.w	r3, [r7, #33]	@ 0x21
  dcd_event_handler(&event, in_isr);
 800461e:	f897 2079 	ldrb.w	r2, [r7, #121]	@ 0x79
 8004622:	f107 0320 	add.w	r3, r7, #32
 8004626:	4611      	mov	r1, r2
 8004628:	4618      	mov	r0, r3
 800462a:	f7fe fc0f 	bl	8002e4c <dcd_event_handler>
}
 800462e:	bf00      	nop
    dcd_event_bus_signal(0, DCD_EVENT_RESUME, true);
  }

  if (int_status & U_ISTR_SUSP) {
 8004630:	f8d7 3094 	ldr.w	r3, [r7, #148]	@ 0x94
 8004634:	f403 6300 	and.w	r3, r3, #2048	@ 0x800
 8004638:	2b00      	cmp	r3, #0
 800463a:	d032      	beq.n	80046a2 <dcd_int_handler+0x1a2>
    /* Suspend is asserted for both suspend and unplug events. without Vbus monitoring,
     * these events cannot be differentiated, so we only trigger suspend. */

    /* Force low-power mode in the macrocell */
    FSDEV_REG->CNTR |= U_CNTR_FSUSP;
 800463c:	4b6c      	ldr	r3, [pc, #432]	@ (80047f0 <dcd_int_handler+0x2f0>)
 800463e:	f8b3 3040 	ldrh.w	r3, [r3, #64]	@ 0x40
 8004642:	b29b      	uxth	r3, r3
 8004644:	4a6a      	ldr	r2, [pc, #424]	@ (80047f0 <dcd_int_handler+0x2f0>)
 8004646:	f043 0308 	orr.w	r3, r3, #8
 800464a:	b29b      	uxth	r3, r3
 800464c:	f8a2 3040 	strh.w	r3, [r2, #64]	@ 0x40
    FSDEV_REG->CNTR |= U_CNTR_LPMODE;
 8004650:	4b67      	ldr	r3, [pc, #412]	@ (80047f0 <dcd_int_handler+0x2f0>)
 8004652:	f8b3 3040 	ldrh.w	r3, [r3, #64]	@ 0x40
 8004656:	b29b      	uxth	r3, r3
 8004658:	4a65      	ldr	r2, [pc, #404]	@ (80047f0 <dcd_int_handler+0x2f0>)
 800465a:	f043 0304 	orr.w	r3, r3, #4
 800465e:	b29b      	uxth	r3, r3
 8004660:	f8a2 3040 	strh.w	r3, [r2, #64]	@ 0x40

    /* clear of the ISTR bit must be done after setting of CNTR_FSUSP */
    FSDEV_REG->ISTR = (fsdev_bus_t)~U_ISTR_SUSP;
 8004664:	4b62      	ldr	r3, [pc, #392]	@ (80047f0 <dcd_int_handler+0x2f0>)
 8004666:	f24f 72ff 	movw	r2, #63487	@ 0xf7ff
 800466a:	f8a3 2044 	strh.w	r2, [r3, #68]	@ 0x44
 800466e:	2300      	movs	r3, #0
 8004670:	f887 3078 	strb.w	r3, [r7, #120]	@ 0x78
 8004674:	2304      	movs	r3, #4
 8004676:	f887 3077 	strb.w	r3, [r7, #119]	@ 0x77
 800467a:	2301      	movs	r3, #1
 800467c:	f887 3076 	strb.w	r3, [r7, #118]	@ 0x76
  event.rhport = rhport;
 8004680:	f897 3078 	ldrb.w	r3, [r7, #120]	@ 0x78
 8004684:	f887 302c 	strb.w	r3, [r7, #44]	@ 0x2c
  event.event_id = eid;
 8004688:	f897 3077 	ldrb.w	r3, [r7, #119]	@ 0x77
 800468c:	f887 302d 	strb.w	r3, [r7, #45]	@ 0x2d
  dcd_event_handler(&event, in_isr);
 8004690:	f897 2076 	ldrb.w	r2, [r7, #118]	@ 0x76
 8004694:	f107 032c 	add.w	r3, r7, #44	@ 0x2c
 8004698:	4611      	mov	r1, r2
 800469a:	4618      	mov	r0, r3
 800469c:	f7fe fbd6 	bl	8002e4c <dcd_event_handler>
}
 80046a0:	bf00      	nop
    dcd_event_bus_signal(0, DCD_EVENT_SUSPEND, true);
  }

  if (int_status & U_ISTR_ESOF) {
 80046a2:	f8d7 3094 	ldr.w	r3, [r7, #148]	@ 0x94
 80046a6:	f403 7380 	and.w	r3, r3, #256	@ 0x100
 80046aa:	2b00      	cmp	r3, #0
 80046ac:	f000 8137 	beq.w	800491e <dcd_int_handler+0x41e>
    if (remoteWakeCountdown == 1u) {
 80046b0:	4b50      	ldr	r3, [pc, #320]	@ (80047f4 <dcd_int_handler+0x2f4>)
 80046b2:	781b      	ldrb	r3, [r3, #0]
 80046b4:	2b01      	cmp	r3, #1
 80046b6:	d109      	bne.n	80046cc <dcd_int_handler+0x1cc>
      FSDEV_REG->CNTR &= ~U_CNTR_RESUME;
 80046b8:	4b4d      	ldr	r3, [pc, #308]	@ (80047f0 <dcd_int_handler+0x2f0>)
 80046ba:	f8b3 3040 	ldrh.w	r3, [r3, #64]	@ 0x40
 80046be:	b29b      	uxth	r3, r3
 80046c0:	4a4b      	ldr	r2, [pc, #300]	@ (80047f0 <dcd_int_handler+0x2f0>)
 80046c2:	f023 0310 	bic.w	r3, r3, #16
 80046c6:	b29b      	uxth	r3, r3
 80046c8:	f8a2 3040 	strh.w	r3, [r2, #64]	@ 0x40
    }
    if (remoteWakeCountdown > 0u) {
 80046cc:	4b49      	ldr	r3, [pc, #292]	@ (80047f4 <dcd_int_handler+0x2f4>)
 80046ce:	781b      	ldrb	r3, [r3, #0]
 80046d0:	2b00      	cmp	r3, #0
 80046d2:	d005      	beq.n	80046e0 <dcd_int_handler+0x1e0>
      remoteWakeCountdown--;
 80046d4:	4b47      	ldr	r3, [pc, #284]	@ (80047f4 <dcd_int_handler+0x2f4>)
 80046d6:	781b      	ldrb	r3, [r3, #0]
 80046d8:	3b01      	subs	r3, #1
 80046da:	b2da      	uxtb	r2, r3
 80046dc:	4b45      	ldr	r3, [pc, #276]	@ (80047f4 <dcd_int_handler+0x2f4>)
 80046de:	701a      	strb	r2, [r3, #0]
    }
    FSDEV_REG->ISTR = (fsdev_bus_t)~U_ISTR_ESOF;
 80046e0:	4b43      	ldr	r3, [pc, #268]	@ (80047f0 <dcd_int_handler+0x2f0>)
 80046e2:	f64f 62ff 	movw	r2, #65279	@ 0xfeff
 80046e6:	f8a3 2044 	strh.w	r2, [r3, #68]	@ 0x44
  }

  // loop to handle all pending CTR interrupts
  while (FSDEV_REG->ISTR & U_ISTR_CTR) {
 80046ea:	e118      	b.n	800491e <dcd_int_handler+0x41e>
    // skip DIR bit, and use CTR TX/RX instead, since there is chance we have both TX/RX completed in one interrupt
    const uint32_t ep_id  = FSDEV_REG->ISTR & U_ISTR_EP_ID;
 80046ec:	4b40      	ldr	r3, [pc, #256]	@ (80047f0 <dcd_int_handler+0x2f0>)
 80046ee:	f8b3 3044 	ldrh.w	r3, [r3, #68]	@ 0x44
 80046f2:	b29b      	uxth	r3, r3
 80046f4:	f003 030f 	and.w	r3, r3, #15
 80046f8:	f8c7 308c 	str.w	r3, [r7, #140]	@ 0x8c
 80046fc:	f8d7 308c 	ldr.w	r3, [r7, #140]	@ 0x8c
 8004700:	673b      	str	r3, [r7, #112]	@ 0x70
  return FSDEV_REG->ep[ep_id].reg;
 8004702:	4a3b      	ldr	r2, [pc, #236]	@ (80047f0 <dcd_int_handler+0x2f0>)
 8004704:	6f3b      	ldr	r3, [r7, #112]	@ 0x70
 8004706:	f832 3023 	ldrh.w	r3, [r2, r3, lsl #2]
 800470a:	b29b      	uxth	r3, r3
    const uint32_t ep_reg = ep_read(ep_id);
 800470c:	f8c7 3088 	str.w	r3, [r7, #136]	@ 0x88

    if (ep_reg & U_EP_CTR_RX) {
 8004710:	f8d7 3088 	ldr.w	r3, [r7, #136]	@ 0x88
 8004714:	f403 4300 	and.w	r3, r3, #32768	@ 0x8000
 8004718:	2b00      	cmp	r3, #0
 800471a:	f000 8086 	beq.w	800482a <dcd_int_handler+0x32a>
      while (cycle_count > 0U) {
        cycle_count--;                    // each count take 3 cycles (1 for sub, jump, and compare)
      }
  #endif

      if (ep_reg & U_EP_SETUP) {
 800471e:	f8d7 3088 	ldr.w	r3, [r7, #136]	@ 0x88
 8004722:	f403 6300 	and.w	r3, r3, #2048	@ 0x800
 8004726:	2b00      	cmp	r3, #0
 8004728:	d004      	beq.n	8004734 <dcd_int_handler+0x234>
        handle_ctr_setup(ep_id); // CTR will be clear after copied setup packet
 800472a:	f8d7 008c 	ldr.w	r0, [r7, #140]	@ 0x8c
 800472e:	f7ff fc67 	bl	8004000 <handle_ctr_setup>
 8004732:	e07a      	b.n	800482a <dcd_int_handler+0x32a>
 8004734:	f8d7 308c 	ldr.w	r3, [r7, #140]	@ 0x8c
 8004738:	66fb      	str	r3, [r7, #108]	@ 0x6c
 800473a:	2300      	movs	r3, #0
 800473c:	f887 306b 	strb.w	r3, [r7, #107]	@ 0x6b
  uint32_t reg = FSDEV_REG->ep[ep_id].reg;
 8004740:	4a2b      	ldr	r2, [pc, #172]	@ (80047f0 <dcd_int_handler+0x2f0>)
 8004742:	6efb      	ldr	r3, [r7, #108]	@ 0x6c
 8004744:	f832 3023 	ldrh.w	r3, [r2, r3, lsl #2]
 8004748:	b29b      	uxth	r3, r3
 800474a:	667b      	str	r3, [r7, #100]	@ 0x64
  reg |= U_EP_CTR_TX | U_EP_CTR_RX;
 800474c:	6e7b      	ldr	r3, [r7, #100]	@ 0x64
 800474e:	f443 4300 	orr.w	r3, r3, #32768	@ 0x8000
 8004752:	f043 0380 	orr.w	r3, r3, #128	@ 0x80
 8004756:	667b      	str	r3, [r7, #100]	@ 0x64
  reg &= U_EPREG_MASK;
 8004758:	6e7a      	ldr	r2, [r7, #100]	@ 0x64
 800475a:	f648 738f 	movw	r3, #36751	@ 0x8f8f
 800475e:	4013      	ands	r3, r2
 8004760:	667b      	str	r3, [r7, #100]	@ 0x64
  reg &= ~(1 << (U_EP_CTR_TX_Pos + (dir == TUSB_DIR_IN ? 0 : 8)));
 8004762:	f897 306b 	ldrb.w	r3, [r7, #107]	@ 0x6b
 8004766:	2b01      	cmp	r3, #1
 8004768:	d102      	bne.n	8004770 <dcd_int_handler+0x270>
 800476a:	f06f 0380 	mvn.w	r3, #128	@ 0x80
 800476e:	e001      	b.n	8004774 <dcd_int_handler+0x274>
 8004770:	f46f 4300 	mvn.w	r3, #32768	@ 0x8000
 8004774:	6e7a      	ldr	r2, [r7, #100]	@ 0x64
 8004776:	4013      	ands	r3, r2
 8004778:	667b      	str	r3, [r7, #100]	@ 0x64
 800477a:	6efb      	ldr	r3, [r7, #108]	@ 0x6c
 800477c:	663b      	str	r3, [r7, #96]	@ 0x60
 800477e:	6e7b      	ldr	r3, [r7, #100]	@ 0x64
 8004780:	65fb      	str	r3, [r7, #92]	@ 0x5c
 8004782:	2300      	movs	r3, #0
 8004784:	f887 305b 	strb.w	r3, [r7, #91]	@ 0x5b
  if (need_exclusive) {
 8004788:	f897 305b 	ldrb.w	r3, [r7, #91]	@ 0x5b
 800478c:	2b00      	cmp	r3, #0
 800478e:	d017      	beq.n	80047c0 <dcd_int_handler+0x2c0>
 8004790:	2300      	movs	r3, #0
 8004792:	f887 305a 	strb.w	r3, [r7, #90]	@ 0x5a
    for (uint8_t i = 0; i < FSDEV_IRQ_NUM; i++) {
 8004796:	2300      	movs	r3, #0
 8004798:	f887 3059 	strb.w	r3, [r7, #89]	@ 0x59
 800479c:	e00b      	b.n	80047b6 <dcd_int_handler+0x2b6>
      NVIC_DisableIRQ(fsdev_irq[i]);
 800479e:	f897 3059 	ldrb.w	r3, [r7, #89]	@ 0x59
 80047a2:	4a15      	ldr	r2, [pc, #84]	@ (80047f8 <dcd_int_handler+0x2f8>)
 80047a4:	56d3      	ldrsb	r3, [r2, r3]
 80047a6:	4618      	mov	r0, r3
 80047a8:	f7ff fab2 	bl	8003d10 <__NVIC_DisableIRQ>
    for (uint8_t i = 0; i < FSDEV_IRQ_NUM; i++) {
 80047ac:	f897 3059 	ldrb.w	r3, [r7, #89]	@ 0x59
 80047b0:	3301      	adds	r3, #1
 80047b2:	f887 3059 	strb.w	r3, [r7, #89]	@ 0x59
 80047b6:	f897 3059 	ldrb.w	r3, [r7, #89]	@ 0x59
 80047ba:	2b02      	cmp	r3, #2
 80047bc:	d9ef      	bls.n	800479e <dcd_int_handler+0x29e>
}
 80047be:	bf00      	nop
  FSDEV_REG->ep[ep_id].reg = (fsdev_bus_t)value;
 80047c0:	4a0b      	ldr	r2, [pc, #44]	@ (80047f0 <dcd_int_handler+0x2f0>)
 80047c2:	6dfb      	ldr	r3, [r7, #92]	@ 0x5c
 80047c4:	b299      	uxth	r1, r3
 80047c6:	6e3b      	ldr	r3, [r7, #96]	@ 0x60
 80047c8:	f822 1023 	strh.w	r1, [r2, r3, lsl #2]
  if (need_exclusive) {
 80047cc:	f897 305b 	ldrb.w	r3, [r7, #91]	@ 0x5b
 80047d0:	2b00      	cmp	r3, #0
 80047d2:	d024      	beq.n	800481e <dcd_int_handler+0x31e>
 80047d4:	2300      	movs	r3, #0
 80047d6:	f887 3058 	strb.w	r3, [r7, #88]	@ 0x58
  __ASM volatile ("dsb 0xF":::"memory");
 80047da:	f3bf 8f4f 	dsb	sy
}
 80047de:	bf00      	nop
  __ASM volatile ("isb 0xF":::"memory");
 80047e0:	f3bf 8f6f 	isb	sy
}
 80047e4:	bf00      	nop
    for (uint8_t i = 0; i < FSDEV_IRQ_NUM; i++) {
 80047e6:	2300      	movs	r3, #0
 80047e8:	f887 3057 	strb.w	r3, [r7, #87]	@ 0x57
 80047ec:	e012      	b.n	8004814 <dcd_int_handler+0x314>
 80047ee:	bf00      	nop
 80047f0:	40005c00 	.word	0x40005c00
 80047f4:	200006ac 	.word	0x200006ac
 80047f8:	08007820 	.word	0x08007820
      NVIC_EnableIRQ(fsdev_irq[i]);
 80047fc:	f897 3057 	ldrb.w	r3, [r7, #87]	@ 0x57
 8004800:	4a57      	ldr	r2, [pc, #348]	@ (8004960 <dcd_int_handler+0x460>)
 8004802:	56d3      	ldrsb	r3, [r2, r3]
 8004804:	4618      	mov	r0, r3
 8004806:	f7ff fa67 	bl	8003cd8 <__NVIC_EnableIRQ>
    for (uint8_t i = 0; i < FSDEV_IRQ_NUM; i++) {
 800480a:	f897 3057 	ldrb.w	r3, [r7, #87]	@ 0x57
 800480e:	3301      	adds	r3, #1
 8004810:	f887 3057 	strb.w	r3, [r7, #87]	@ 0x57
 8004814:	f897 3057 	ldrb.w	r3, [r7, #87]	@ 0x57
 8004818:	2b02      	cmp	r3, #2
 800481a:	d9ef      	bls.n	80047fc <dcd_int_handler+0x2fc>
}
 800481c:	bf00      	nop
}
 800481e:	bf00      	nop
}
 8004820:	bf00      	nop
      } else {
        ep_write_clear_ctr(ep_id, TUSB_DIR_OUT);
        handle_ctr_rx(ep_id);
 8004822:	f8d7 008c 	ldr.w	r0, [r7, #140]	@ 0x8c
 8004826:	f7ff fccf 	bl	80041c8 <handle_ctr_rx>
      }
    }

    if (ep_reg & U_EP_CTR_TX) {
 800482a:	f8d7 3088 	ldr.w	r3, [r7, #136]	@ 0x88
 800482e:	f003 0380 	and.w	r3, r3, #128	@ 0x80
 8004832:	2b00      	cmp	r3, #0
 8004834:	d073      	beq.n	800491e <dcd_int_handler+0x41e>
 8004836:	f8d7 308c 	ldr.w	r3, [r7, #140]	@ 0x8c
 800483a:	653b      	str	r3, [r7, #80]	@ 0x50
 800483c:	2301      	movs	r3, #1
 800483e:	f887 304f 	strb.w	r3, [r7, #79]	@ 0x4f
  uint32_t reg = FSDEV_REG->ep[ep_id].reg;
 8004842:	4a48      	ldr	r2, [pc, #288]	@ (8004964 <dcd_int_handler+0x464>)
 8004844:	6d3b      	ldr	r3, [r7, #80]	@ 0x50
 8004846:	f832 3023 	ldrh.w	r3, [r2, r3, lsl #2]
 800484a:	b29b      	uxth	r3, r3
 800484c:	64bb      	str	r3, [r7, #72]	@ 0x48
  reg |= U_EP_CTR_TX | U_EP_CTR_RX;
 800484e:	6cbb      	ldr	r3, [r7, #72]	@ 0x48
 8004850:	f443 4300 	orr.w	r3, r3, #32768	@ 0x8000
 8004854:	f043 0380 	orr.w	r3, r3, #128	@ 0x80
 8004858:	64bb      	str	r3, [r7, #72]	@ 0x48
  reg &= U_EPREG_MASK;
 800485a:	6cba      	ldr	r2, [r7, #72]	@ 0x48
 800485c:	f648 738f 	movw	r3, #36751	@ 0x8f8f
 8004860:	4013      	ands	r3, r2
 8004862:	64bb      	str	r3, [r7, #72]	@ 0x48
  reg &= ~(1 << (U_EP_CTR_TX_Pos + (dir == TUSB_DIR_IN ? 0 : 8)));
 8004864:	f897 304f 	ldrb.w	r3, [r7, #79]	@ 0x4f
 8004868:	2b01      	cmp	r3, #1
 800486a:	d102      	bne.n	8004872 <dcd_int_handler+0x372>
 800486c:	f06f 0380 	mvn.w	r3, #128	@ 0x80
 8004870:	e001      	b.n	8004876 <dcd_int_handler+0x376>
 8004872:	f46f 4300 	mvn.w	r3, #32768	@ 0x8000
 8004876:	6cba      	ldr	r2, [r7, #72]	@ 0x48
 8004878:	4013      	ands	r3, r2
 800487a:	64bb      	str	r3, [r7, #72]	@ 0x48
 800487c:	6d3b      	ldr	r3, [r7, #80]	@ 0x50
 800487e:	647b      	str	r3, [r7, #68]	@ 0x44
 8004880:	6cbb      	ldr	r3, [r7, #72]	@ 0x48
 8004882:	643b      	str	r3, [r7, #64]	@ 0x40
 8004884:	2300      	movs	r3, #0
 8004886:	f887 303f 	strb.w	r3, [r7, #63]	@ 0x3f
  if (need_exclusive) {
 800488a:	f897 303f 	ldrb.w	r3, [r7, #63]	@ 0x3f
 800488e:	2b00      	cmp	r3, #0
 8004890:	d017      	beq.n	80048c2 <dcd_int_handler+0x3c2>
 8004892:	2300      	movs	r3, #0
 8004894:	f887 303e 	strb.w	r3, [r7, #62]	@ 0x3e
    for (uint8_t i = 0; i < FSDEV_IRQ_NUM; i++) {
 8004898:	2300      	movs	r3, #0
 800489a:	f887 303d 	strb.w	r3, [r7, #61]	@ 0x3d
 800489e:	e00b      	b.n	80048b8 <dcd_int_handler+0x3b8>
      NVIC_DisableIRQ(fsdev_irq[i]);
 80048a0:	f897 303d 	ldrb.w	r3, [r7, #61]	@ 0x3d
 80048a4:	4a2e      	ldr	r2, [pc, #184]	@ (8004960 <dcd_int_handler+0x460>)
 80048a6:	56d3      	ldrsb	r3, [r2, r3]
 80048a8:	4618      	mov	r0, r3
 80048aa:	f7ff fa31 	bl	8003d10 <__NVIC_DisableIRQ>
    for (uint8_t i = 0; i < FSDEV_IRQ_NUM; i++) {
 80048ae:	f897 303d 	ldrb.w	r3, [r7, #61]	@ 0x3d
 80048b2:	3301      	adds	r3, #1
 80048b4:	f887 303d 	strb.w	r3, [r7, #61]	@ 0x3d
 80048b8:	f897 303d 	ldrb.w	r3, [r7, #61]	@ 0x3d
 80048bc:	2b02      	cmp	r3, #2
 80048be:	d9ef      	bls.n	80048a0 <dcd_int_handler+0x3a0>
}
 80048c0:	bf00      	nop
  FSDEV_REG->ep[ep_id].reg = (fsdev_bus_t)value;
 80048c2:	4a28      	ldr	r2, [pc, #160]	@ (8004964 <dcd_int_handler+0x464>)
 80048c4:	6c3b      	ldr	r3, [r7, #64]	@ 0x40
 80048c6:	b299      	uxth	r1, r3
 80048c8:	6c7b      	ldr	r3, [r7, #68]	@ 0x44
 80048ca:	f822 1023 	strh.w	r1, [r2, r3, lsl #2]
  if (need_exclusive) {
 80048ce:	f897 303f 	ldrb.w	r3, [r7, #63]	@ 0x3f
 80048d2:	2b00      	cmp	r3, #0
 80048d4:	d01d      	beq.n	8004912 <dcd_int_handler+0x412>
 80048d6:	2300      	movs	r3, #0
 80048d8:	f887 303c 	strb.w	r3, [r7, #60]	@ 0x3c
  __ASM volatile ("dsb 0xF":::"memory");
 80048dc:	f3bf 8f4f 	dsb	sy
}
 80048e0:	bf00      	nop
  __ASM volatile ("isb 0xF":::"memory");
 80048e2:	f3bf 8f6f 	isb	sy
}
 80048e6:	bf00      	nop
    for (uint8_t i = 0; i < FSDEV_IRQ_NUM; i++) {
 80048e8:	2300      	movs	r3, #0
 80048ea:	f887 303b 	strb.w	r3, [r7, #59]	@ 0x3b
 80048ee:	e00b      	b.n	8004908 <dcd_int_handler+0x408>
      NVIC_EnableIRQ(fsdev_irq[i]);
 80048f0:	f897 303b 	ldrb.w	r3, [r7, #59]	@ 0x3b
 80048f4:	4a1a      	ldr	r2, [pc, #104]	@ (8004960 <dcd_int_handler+0x460>)
 80048f6:	56d3      	ldrsb	r3, [r2, r3]
 80048f8:	4618      	mov	r0, r3
 80048fa:	f7ff f9ed 	bl	8003cd8 <__NVIC_EnableIRQ>
    for (uint8_t i = 0; i < FSDEV_IRQ_NUM; i++) {
 80048fe:	f897 303b 	ldrb.w	r3, [r7, #59]	@ 0x3b
 8004902:	3301      	adds	r3, #1
 8004904:	f887 303b 	strb.w	r3, [r7, #59]	@ 0x3b
 8004908:	f897 303b 	ldrb.w	r3, [r7, #59]	@ 0x3b
 800490c:	2b02      	cmp	r3, #2
 800490e:	d9ef      	bls.n	80048f0 <dcd_int_handler+0x3f0>
}
 8004910:	bf00      	nop
}
 8004912:	bf00      	nop
}
 8004914:	bf00      	nop
      ep_write_clear_ctr(ep_id, TUSB_DIR_IN);
      handle_ctr_tx(ep_id);
 8004916:	f8d7 008c 	ldr.w	r0, [r7, #140]	@ 0x8c
 800491a:	f7ff fac3 	bl	8003ea4 <handle_ctr_tx>
  while (FSDEV_REG->ISTR & U_ISTR_CTR) {
 800491e:	4b11      	ldr	r3, [pc, #68]	@ (8004964 <dcd_int_handler+0x464>)
 8004920:	f8b3 3044 	ldrh.w	r3, [r3, #68]	@ 0x44
 8004924:	b29b      	uxth	r3, r3
 8004926:	b21b      	sxth	r3, r3
 8004928:	2b00      	cmp	r3, #0
 800492a:	f6ff aedf 	blt.w	80046ec <dcd_int_handler+0x1ec>
    }
  }

  if (int_status & U_ISTR_PMAOVR) {
 800492e:	f8d7 3094 	ldr.w	r3, [r7, #148]	@ 0x94
 8004932:	f403 4380 	and.w	r3, r3, #16384	@ 0x4000
 8004936:	2b00      	cmp	r3, #0
 8004938:	d00f      	beq.n	800495a <dcd_int_handler+0x45a>
    TU_BREAKPOINT();
 800493a:	4b0b      	ldr	r3, [pc, #44]	@ (8004968 <dcd_int_handler+0x468>)
 800493c:	f8c7 3090 	str.w	r3, [r7, #144]	@ 0x90
 8004940:	f8d7 3090 	ldr.w	r3, [r7, #144]	@ 0x90
 8004944:	681b      	ldr	r3, [r3, #0]
 8004946:	f003 0301 	and.w	r3, r3, #1
 800494a:	2b00      	cmp	r3, #0
 800494c:	d000      	beq.n	8004950 <dcd_int_handler+0x450>
 800494e:	be00      	bkpt	0x0000
    FSDEV_REG->ISTR = (fsdev_bus_t)~U_ISTR_PMAOVR;
 8004950:	4b04      	ldr	r3, [pc, #16]	@ (8004964 <dcd_int_handler+0x464>)
 8004952:	f64b 72ff 	movw	r2, #49151	@ 0xbfff
 8004956:	f8a3 2044 	strh.w	r2, [r3, #68]	@ 0x44
  }
}
 800495a:	3798      	adds	r7, #152	@ 0x98
 800495c:	46bd      	mov	sp, r7
 800495e:	bd80      	pop	{r7, pc}
 8004960:	08007820 	.word	0x08007820
 8004964:	40005c00 	.word	0x40005c00
 8004968:	e000edf0 	.word	0xe000edf0

0800496c <dcd_edpt0_status_complete>:
// Endpoint API
//--------------------------------------------------------------------+

// Invoked when a control transfer's status stage is complete.
// May help DCD to prepare for next control transfer, this API is optional.
void dcd_edpt0_status_complete(uint8_t rhport, const tusb_control_request_t *request) {
 800496c:	b580      	push	{r7, lr}
 800496e:	b084      	sub	sp, #16
 8004970:	af00      	add	r7, sp, #0
 8004972:	4603      	mov	r3, r0
 8004974:	6039      	str	r1, [r7, #0]
 8004976:	71fb      	strb	r3, [r7, #7]
  (void)rhport;

  if (request->bmRequestType_bit.recipient == TUSB_REQ_RCPT_DEVICE &&
 8004978:	683b      	ldr	r3, [r7, #0]
 800497a:	781b      	ldrb	r3, [r3, #0]
 800497c:	f003 031f 	and.w	r3, r3, #31
 8004980:	b2db      	uxtb	r3, r3
 8004982:	2b00      	cmp	r3, #0
 8004984:	d115      	bne.n	80049b2 <dcd_edpt0_status_complete+0x46>
      request->bmRequestType_bit.type == TUSB_REQ_TYPE_STANDARD && request->bRequest == TUSB_REQ_SET_ADDRESS) {
 8004986:	683b      	ldr	r3, [r7, #0]
 8004988:	781b      	ldrb	r3, [r3, #0]
 800498a:	f003 0360 	and.w	r3, r3, #96	@ 0x60
 800498e:	b2db      	uxtb	r3, r3
  if (request->bmRequestType_bit.recipient == TUSB_REQ_RCPT_DEVICE &&
 8004990:	2b00      	cmp	r3, #0
 8004992:	d10e      	bne.n	80049b2 <dcd_edpt0_status_complete+0x46>
      request->bmRequestType_bit.type == TUSB_REQ_TYPE_STANDARD && request->bRequest == TUSB_REQ_SET_ADDRESS) {
 8004994:	683b      	ldr	r3, [r7, #0]
 8004996:	785b      	ldrb	r3, [r3, #1]
 8004998:	2b05      	cmp	r3, #5
 800499a:	d10a      	bne.n	80049b2 <dcd_edpt0_status_complete+0x46>
    const uint8_t dev_addr = (uint8_t)request->wValue;
 800499c:	683b      	ldr	r3, [r7, #0]
 800499e:	885b      	ldrh	r3, [r3, #2]
 80049a0:	b29b      	uxth	r3, r3
 80049a2:	73fb      	strb	r3, [r7, #15]
    FSDEV_REG->DADDR       = (U_DADDR_EF | dev_addr);
 80049a4:	7bfb      	ldrb	r3, [r7, #15]
 80049a6:	f063 037f 	orn	r3, r3, #127	@ 0x7f
 80049aa:	b2da      	uxtb	r2, r3
 80049ac:	4b06      	ldr	r3, [pc, #24]	@ (80049c8 <dcd_edpt0_status_complete+0x5c>)
 80049ae:	f8a3 204c 	strh.w	r2, [r3, #76]	@ 0x4c
  btable_set_rx_bufsize(0, BTABLE_BUF_RX, 8);
 80049b2:	2208      	movs	r2, #8
 80049b4:	2101      	movs	r1, #1
 80049b6:	2000      	movs	r0, #0
 80049b8:	f001 f85a 	bl	8005a70 <btable_set_rx_bufsize>
}
 80049bc:	bf00      	nop
  }

  edpt0_prepare_setup();
}
 80049be:	bf00      	nop
 80049c0:	3710      	adds	r7, #16
 80049c2:	46bd      	mov	sp, r7
 80049c4:	bd80      	pop	{r7, pc}
 80049c6:	bf00      	nop
 80049c8:	40005c00 	.word	0x40005c00

080049cc <dcd_pma_alloc>:
/***
 * Allocate a section of PMA
 * In case of double buffering, high 16bit is the address of 2nd buffer
 * During failure, TU_ASSERT is used. If this happens, rework/reallocate memory manually.
 */
static uint32_t dcd_pma_alloc(uint16_t len, bool dbuf) {
 80049cc:	b580      	push	{r7, lr}
 80049ce:	b086      	sub	sp, #24
 80049d0:	af00      	add	r7, sp, #0
 80049d2:	4603      	mov	r3, r0
 80049d4:	460a      	mov	r2, r1
 80049d6:	80fb      	strh	r3, [r7, #6]
 80049d8:	4613      	mov	r3, r2
 80049da:	717b      	strb	r3, [r7, #5]
  uint8_t  blsize, num_block;
  uint16_t aligned_len = pma_align_buffer_size(len, &blsize, &num_block);
 80049dc:	f107 020a 	add.w	r2, r7, #10
 80049e0:	f107 010b 	add.w	r1, r7, #11
 80049e4:	88fb      	ldrh	r3, [r7, #6]
 80049e6:	4618      	mov	r0, r3
 80049e8:	f001 f804 	bl	80059f4 <pma_align_buffer_size>
 80049ec:	4603      	mov	r3, r0
 80049ee:	827b      	strh	r3, [r7, #18]
  (void)blsize;
  (void)num_block;

  uint32_t addr = ep_buf_ptr;
 80049f0:	4b17      	ldr	r3, [pc, #92]	@ (8004a50 <dcd_pma_alloc+0x84>)
 80049f2:	881b      	ldrh	r3, [r3, #0]
 80049f4:	617b      	str	r3, [r7, #20]
  ep_buf_ptr    = (uint16_t)(ep_buf_ptr + aligned_len); // increment buffer pointer
 80049f6:	4b16      	ldr	r3, [pc, #88]	@ (8004a50 <dcd_pma_alloc+0x84>)
 80049f8:	881a      	ldrh	r2, [r3, #0]
 80049fa:	8a7b      	ldrh	r3, [r7, #18]
 80049fc:	4413      	add	r3, r2
 80049fe:	b29a      	uxth	r2, r3
 8004a00:	4b13      	ldr	r3, [pc, #76]	@ (8004a50 <dcd_pma_alloc+0x84>)
 8004a02:	801a      	strh	r2, [r3, #0]

  if (dbuf) {
 8004a04:	797b      	ldrb	r3, [r7, #5]
 8004a06:	2b00      	cmp	r3, #0
 8004a08:	d00c      	beq.n	8004a24 <dcd_pma_alloc+0x58>
    addr |= ((uint32_t)ep_buf_ptr) << 16;
 8004a0a:	4b11      	ldr	r3, [pc, #68]	@ (8004a50 <dcd_pma_alloc+0x84>)
 8004a0c:	881b      	ldrh	r3, [r3, #0]
 8004a0e:	041b      	lsls	r3, r3, #16
 8004a10:	697a      	ldr	r2, [r7, #20]
 8004a12:	4313      	orrs	r3, r2
 8004a14:	617b      	str	r3, [r7, #20]
    ep_buf_ptr = (uint16_t)(ep_buf_ptr + aligned_len); // increment buffer pointer
 8004a16:	4b0e      	ldr	r3, [pc, #56]	@ (8004a50 <dcd_pma_alloc+0x84>)
 8004a18:	881a      	ldrh	r2, [r3, #0]
 8004a1a:	8a7b      	ldrh	r3, [r7, #18]
 8004a1c:	4413      	add	r3, r2
 8004a1e:	b29a      	uxth	r2, r3
 8004a20:	4b0b      	ldr	r3, [pc, #44]	@ (8004a50 <dcd_pma_alloc+0x84>)
 8004a22:	801a      	strh	r2, [r3, #0]
  }

  // Verify packet buffer is not overflowed
  TU_ASSERT(ep_buf_ptr <= CFG_TUSB_FSDEV_PMA_SIZE, 0xFFFF);
 8004a24:	4b0a      	ldr	r3, [pc, #40]	@ (8004a50 <dcd_pma_alloc+0x84>)
 8004a26:	881b      	ldrh	r3, [r3, #0]
 8004a28:	f5b3 7f00 	cmp.w	r3, #512	@ 0x200
 8004a2c:	d90b      	bls.n	8004a46 <dcd_pma_alloc+0x7a>
 8004a2e:	4b09      	ldr	r3, [pc, #36]	@ (8004a54 <dcd_pma_alloc+0x88>)
 8004a30:	60fb      	str	r3, [r7, #12]
 8004a32:	68fb      	ldr	r3, [r7, #12]
 8004a34:	681b      	ldr	r3, [r3, #0]
 8004a36:	f003 0301 	and.w	r3, r3, #1
 8004a3a:	2b00      	cmp	r3, #0
 8004a3c:	d000      	beq.n	8004a40 <dcd_pma_alloc+0x74>
 8004a3e:	be00      	bkpt	0x0000
 8004a40:	f64f 73ff 	movw	r3, #65535	@ 0xffff
 8004a44:	e000      	b.n	8004a48 <dcd_pma_alloc+0x7c>

  return addr;
 8004a46:	697b      	ldr	r3, [r7, #20]
}
 8004a48:	4618      	mov	r0, r3
 8004a4a:	3718      	adds	r7, #24
 8004a4c:	46bd      	mov	sp, r7
 8004a4e:	bd80      	pop	{r7, pc}
 8004a50:	200006ae 	.word	0x200006ae
 8004a54:	e000edf0 	.word	0xe000edf0

08004a58 <dcd_ep_alloc>:

/***
 * Allocate hardware endpoint
 */
static uint8_t dcd_ep_alloc(uint8_t ep_addr, uint8_t ep_type) {
 8004a58:	b480      	push	{r7}
 8004a5a:	b087      	sub	sp, #28
 8004a5c:	af00      	add	r7, sp, #0
 8004a5e:	4603      	mov	r3, r0
 8004a60:	460a      	mov	r2, r1
 8004a62:	71fb      	strb	r3, [r7, #7]
 8004a64:	4613      	mov	r3, r2
 8004a66:	71bb      	strb	r3, [r7, #6]
 8004a68:	79fb      	ldrb	r3, [r7, #7]
 8004a6a:	737b      	strb	r3, [r7, #13]
  return (uint8_t) (addr & TUSB_EPNUM_MASK);
 8004a6c:	7b7b      	ldrb	r3, [r7, #13]
 8004a6e:	f003 030f 	and.w	r3, r3, #15
 8004a72:	b2db      	uxtb	r3, r3
  const uint8_t epnum = tu_edpt_number(ep_addr);
 8004a74:	75bb      	strb	r3, [r7, #22]
 8004a76:	79fb      	ldrb	r3, [r7, #7]
 8004a78:	73bb      	strb	r3, [r7, #14]
  return (addr & TUSB_DIR_IN_MASK) ? TUSB_DIR_IN : TUSB_DIR_OUT;
 8004a7a:	7bbb      	ldrb	r3, [r7, #14]
 8004a7c:	09db      	lsrs	r3, r3, #7
 8004a7e:	b2db      	uxtb	r3, r3
  const uint8_t dir   = tu_edpt_dir(ep_addr);
 8004a80:	757b      	strb	r3, [r7, #21]

  for (uint8_t i = 0; i < FSDEV_EP_COUNT; i++) {
 8004a82:	2300      	movs	r3, #0
 8004a84:	75fb      	strb	r3, [r7, #23]
 8004a86:	e079      	b.n	8004b7c <dcd_ep_alloc+0x124>
    // Check if already allocated
    if (ep_alloc_status[i].allocated[dir] && ep_alloc_status[i].ep_type == ep_type &&
 8004a88:	7dfa      	ldrb	r2, [r7, #23]
 8004a8a:	7d7b      	ldrb	r3, [r7, #21]
 8004a8c:	4944      	ldr	r1, [pc, #272]	@ (8004ba0 <dcd_ep_alloc+0x148>)
 8004a8e:	0092      	lsls	r2, r2, #2
 8004a90:	440a      	add	r2, r1
 8004a92:	4413      	add	r3, r2
 8004a94:	3302      	adds	r3, #2
 8004a96:	781b      	ldrb	r3, [r3, #0]
 8004a98:	2b00      	cmp	r3, #0
 8004a9a:	d010      	beq.n	8004abe <dcd_ep_alloc+0x66>
 8004a9c:	7dfb      	ldrb	r3, [r7, #23]
 8004a9e:	4a40      	ldr	r2, [pc, #256]	@ (8004ba0 <dcd_ep_alloc+0x148>)
 8004aa0:	009b      	lsls	r3, r3, #2
 8004aa2:	4413      	add	r3, r2
 8004aa4:	785b      	ldrb	r3, [r3, #1]
 8004aa6:	79ba      	ldrb	r2, [r7, #6]
 8004aa8:	429a      	cmp	r2, r3
 8004aaa:	d108      	bne.n	8004abe <dcd_ep_alloc+0x66>
        ep_alloc_status[i].ep_num == epnum) {
 8004aac:	7dfb      	ldrb	r3, [r7, #23]
 8004aae:	4a3c      	ldr	r2, [pc, #240]	@ (8004ba0 <dcd_ep_alloc+0x148>)
 8004ab0:	f812 3023 	ldrb.w	r3, [r2, r3, lsl #2]
    if (ep_alloc_status[i].allocated[dir] && ep_alloc_status[i].ep_type == ep_type &&
 8004ab4:	7dba      	ldrb	r2, [r7, #22]
 8004ab6:	429a      	cmp	r2, r3
 8004ab8:	d101      	bne.n	8004abe <dcd_ep_alloc+0x66>
      return i;
 8004aba:	7dfb      	ldrb	r3, [r7, #23]
 8004abc:	e06b      	b.n	8004b96 <dcd_ep_alloc+0x13e>
    }

  #if FSDEV_USE_SBUF_ISO == 0
    bool const dbl_buf = ep_type == TUSB_XFER_ISOCHRONOUS;
 8004abe:	79bb      	ldrb	r3, [r7, #6]
 8004ac0:	2b01      	cmp	r3, #1
 8004ac2:	bf0c      	ite	eq
 8004ac4:	2301      	moveq	r3, #1
 8004ac6:	2300      	movne	r3, #0
 8004ac8:	73fb      	strb	r3, [r7, #15]
    bool const dbl_buf = false;
  #endif

    // If EP of current direction is not allocated
    // For double-buffered mode both directions needs to be free
    if (!ep_alloc_status[i].allocated[dir] && (!dbl_buf || !ep_alloc_status[i].allocated[dir ^ 1])) {
 8004aca:	7dfa      	ldrb	r2, [r7, #23]
 8004acc:	7d7b      	ldrb	r3, [r7, #21]
 8004ace:	4934      	ldr	r1, [pc, #208]	@ (8004ba0 <dcd_ep_alloc+0x148>)
 8004ad0:	0092      	lsls	r2, r2, #2
 8004ad2:	440a      	add	r2, r1
 8004ad4:	4413      	add	r3, r2
 8004ad6:	3302      	adds	r3, #2
 8004ad8:	781b      	ldrb	r3, [r3, #0]
 8004ada:	f083 0301 	eor.w	r3, r3, #1
 8004ade:	b2db      	uxtb	r3, r3
 8004ae0:	2b00      	cmp	r3, #0
 8004ae2:	d048      	beq.n	8004b76 <dcd_ep_alloc+0x11e>
 8004ae4:	7bfb      	ldrb	r3, [r7, #15]
 8004ae6:	f083 0301 	eor.w	r3, r3, #1
 8004aea:	b2db      	uxtb	r3, r3
 8004aec:	2b00      	cmp	r3, #0
 8004aee:	d110      	bne.n	8004b12 <dcd_ep_alloc+0xba>
 8004af0:	7dfb      	ldrb	r3, [r7, #23]
 8004af2:	7d7a      	ldrb	r2, [r7, #21]
 8004af4:	f082 0201 	eor.w	r2, r2, #1
 8004af8:	b2d2      	uxtb	r2, r2
 8004afa:	4611      	mov	r1, r2
 8004afc:	4a28      	ldr	r2, [pc, #160]	@ (8004ba0 <dcd_ep_alloc+0x148>)
 8004afe:	009b      	lsls	r3, r3, #2
 8004b00:	4413      	add	r3, r2
 8004b02:	440b      	add	r3, r1
 8004b04:	3302      	adds	r3, #2
 8004b06:	781b      	ldrb	r3, [r3, #0]
 8004b08:	f083 0301 	eor.w	r3, r3, #1
 8004b0c:	b2db      	uxtb	r3, r3
 8004b0e:	2b00      	cmp	r3, #0
 8004b10:	d031      	beq.n	8004b76 <dcd_ep_alloc+0x11e>
      // Check if EP number is the same
      if (ep_alloc_status[i].ep_num == 0xFF || ep_alloc_status[i].ep_num == epnum) {
 8004b12:	7dfb      	ldrb	r3, [r7, #23]
 8004b14:	4a22      	ldr	r2, [pc, #136]	@ (8004ba0 <dcd_ep_alloc+0x148>)
 8004b16:	f812 3023 	ldrb.w	r3, [r2, r3, lsl #2]
 8004b1a:	2bff      	cmp	r3, #255	@ 0xff
 8004b1c:	d006      	beq.n	8004b2c <dcd_ep_alloc+0xd4>
 8004b1e:	7dfb      	ldrb	r3, [r7, #23]
 8004b20:	4a1f      	ldr	r2, [pc, #124]	@ (8004ba0 <dcd_ep_alloc+0x148>)
 8004b22:	f812 3023 	ldrb.w	r3, [r2, r3, lsl #2]
 8004b26:	7dba      	ldrb	r2, [r7, #22]
 8004b28:	429a      	cmp	r2, r3
 8004b2a:	d124      	bne.n	8004b76 <dcd_ep_alloc+0x11e>
        // One EP pair has to be the same type
        if (ep_alloc_status[i].ep_type == 0xFF || ep_alloc_status[i].ep_type == ep_type) {
 8004b2c:	7dfb      	ldrb	r3, [r7, #23]
 8004b2e:	4a1c      	ldr	r2, [pc, #112]	@ (8004ba0 <dcd_ep_alloc+0x148>)
 8004b30:	009b      	lsls	r3, r3, #2
 8004b32:	4413      	add	r3, r2
 8004b34:	785b      	ldrb	r3, [r3, #1]
 8004b36:	2bff      	cmp	r3, #255	@ 0xff
 8004b38:	d007      	beq.n	8004b4a <dcd_ep_alloc+0xf2>
 8004b3a:	7dfb      	ldrb	r3, [r7, #23]
 8004b3c:	4a18      	ldr	r2, [pc, #96]	@ (8004ba0 <dcd_ep_alloc+0x148>)
 8004b3e:	009b      	lsls	r3, r3, #2
 8004b40:	4413      	add	r3, r2
 8004b42:	785b      	ldrb	r3, [r3, #1]
 8004b44:	79ba      	ldrb	r2, [r7, #6]
 8004b46:	429a      	cmp	r2, r3
 8004b48:	d115      	bne.n	8004b76 <dcd_ep_alloc+0x11e>
          ep_alloc_status[i].ep_num         = epnum;
 8004b4a:	7dfb      	ldrb	r3, [r7, #23]
 8004b4c:	4914      	ldr	r1, [pc, #80]	@ (8004ba0 <dcd_ep_alloc+0x148>)
 8004b4e:	7dba      	ldrb	r2, [r7, #22]
 8004b50:	f801 2023 	strb.w	r2, [r1, r3, lsl #2]
          ep_alloc_status[i].ep_type        = ep_type;
 8004b54:	7dfb      	ldrb	r3, [r7, #23]
 8004b56:	4a12      	ldr	r2, [pc, #72]	@ (8004ba0 <dcd_ep_alloc+0x148>)
 8004b58:	009b      	lsls	r3, r3, #2
 8004b5a:	4413      	add	r3, r2
 8004b5c:	79ba      	ldrb	r2, [r7, #6]
 8004b5e:	705a      	strb	r2, [r3, #1]
          ep_alloc_status[i].allocated[dir] = true;
 8004b60:	7dfa      	ldrb	r2, [r7, #23]
 8004b62:	7d7b      	ldrb	r3, [r7, #21]
 8004b64:	490e      	ldr	r1, [pc, #56]	@ (8004ba0 <dcd_ep_alloc+0x148>)
 8004b66:	0092      	lsls	r2, r2, #2
 8004b68:	440a      	add	r2, r1
 8004b6a:	4413      	add	r3, r2
 8004b6c:	3302      	adds	r3, #2
 8004b6e:	2201      	movs	r2, #1
 8004b70:	701a      	strb	r2, [r3, #0]

          return i;
 8004b72:	7dfb      	ldrb	r3, [r7, #23]
 8004b74:	e00f      	b.n	8004b96 <dcd_ep_alloc+0x13e>
  for (uint8_t i = 0; i < FSDEV_EP_COUNT; i++) {
 8004b76:	7dfb      	ldrb	r3, [r7, #23]
 8004b78:	3301      	adds	r3, #1
 8004b7a:	75fb      	strb	r3, [r7, #23]
 8004b7c:	7dfb      	ldrb	r3, [r7, #23]
 8004b7e:	2b07      	cmp	r3, #7
 8004b80:	d982      	bls.n	8004a88 <dcd_ep_alloc+0x30>
      }
    }
  }

  // Allocation failed
  TU_ASSERT(0);
 8004b82:	4b08      	ldr	r3, [pc, #32]	@ (8004ba4 <dcd_ep_alloc+0x14c>)
 8004b84:	613b      	str	r3, [r7, #16]
 8004b86:	693b      	ldr	r3, [r7, #16]
 8004b88:	681b      	ldr	r3, [r3, #0]
 8004b8a:	f003 0301 	and.w	r3, r3, #1
 8004b8e:	2b00      	cmp	r3, #0
 8004b90:	d000      	beq.n	8004b94 <dcd_ep_alloc+0x13c>
 8004b92:	be00      	bkpt	0x0000
 8004b94:	2300      	movs	r3, #0
}
 8004b96:	4618      	mov	r0, r3
 8004b98:	371c      	adds	r7, #28
 8004b9a:	46bd      	mov	sp, r7
 8004b9c:	bc80      	pop	{r7}
 8004b9e:	4770      	bx	lr
 8004ba0:	2000068c 	.word	0x2000068c
 8004ba4:	e000edf0 	.word	0xe000edf0

08004ba8 <edpt0_open>:

void edpt0_open(uint8_t rhport) {
 8004ba8:	b580      	push	{r7, lr}
 8004baa:	b092      	sub	sp, #72	@ 0x48
 8004bac:	af00      	add	r7, sp, #0
 8004bae:	4603      	mov	r3, r0
 8004bb0:	71fb      	strb	r3, [r7, #7]
  (void)rhport;

  dcd_ep_alloc(0x0, TUSB_XFER_CONTROL);
 8004bb2:	2100      	movs	r1, #0
 8004bb4:	2000      	movs	r0, #0
 8004bb6:	f7ff ff4f 	bl	8004a58 <dcd_ep_alloc>
  dcd_ep_alloc(0x80, TUSB_XFER_CONTROL);
 8004bba:	2100      	movs	r1, #0
 8004bbc:	2080      	movs	r0, #128	@ 0x80
 8004bbe:	f7ff ff4b 	bl	8004a58 <dcd_ep_alloc>

  xfer_status[0][0].max_packet_size = CFG_TUD_ENDPOINT0_SIZE;
 8004bc2:	4b6a      	ldr	r3, [pc, #424]	@ (8004d6c <edpt0_open+0x1c4>)
 8004bc4:	2240      	movs	r2, #64	@ 0x40
 8004bc6:	819a      	strh	r2, [r3, #12]
  xfer_status[0][0].ep_idx          = 0;
 8004bc8:	4b68      	ldr	r3, [pc, #416]	@ (8004d6c <edpt0_open+0x1c4>)
 8004bca:	2200      	movs	r2, #0
 8004bcc:	739a      	strb	r2, [r3, #14]

  xfer_status[0][1].max_packet_size = CFG_TUD_ENDPOINT0_SIZE;
 8004bce:	4b67      	ldr	r3, [pc, #412]	@ (8004d6c <edpt0_open+0x1c4>)
 8004bd0:	2240      	movs	r2, #64	@ 0x40
 8004bd2:	839a      	strh	r2, [r3, #28]
  xfer_status[0][1].ep_idx          = 0;
 8004bd4:	4b65      	ldr	r3, [pc, #404]	@ (8004d6c <edpt0_open+0x1c4>)
 8004bd6:	2200      	movs	r2, #0
 8004bd8:	779a      	strb	r2, [r3, #30]

  uint16_t pma_addr0 = dcd_pma_alloc(CFG_TUD_ENDPOINT0_SIZE, false);
 8004bda:	2100      	movs	r1, #0
 8004bdc:	2040      	movs	r0, #64	@ 0x40
 8004bde:	f7ff fef5 	bl	80049cc <dcd_pma_alloc>
 8004be2:	4603      	mov	r3, r0
 8004be4:	f8a7 3046 	strh.w	r3, [r7, #70]	@ 0x46
  uint16_t pma_addr1 = dcd_pma_alloc(CFG_TUD_ENDPOINT0_SIZE, false);
 8004be8:	2100      	movs	r1, #0
 8004bea:	2040      	movs	r0, #64	@ 0x40
 8004bec:	f7ff feee 	bl	80049cc <dcd_pma_alloc>
 8004bf0:	4603      	mov	r3, r0
 8004bf2:	f8a7 3044 	strh.w	r3, [r7, #68]	@ 0x44
 8004bf6:	2300      	movs	r3, #0
 8004bf8:	617b      	str	r3, [r7, #20]
 8004bfa:	2301      	movs	r3, #1
 8004bfc:	74fb      	strb	r3, [r7, #19]
 8004bfe:	f8b7 3046 	ldrh.w	r3, [r7, #70]	@ 0x46
 8004c02:	823b      	strh	r3, [r7, #16]
  FSDEV_BTABLE->ep16[ep_id][buf_id].addr = addr;
 8004c04:	495a      	ldr	r1, [pc, #360]	@ (8004d70 <edpt0_open+0x1c8>)
 8004c06:	7cfb      	ldrb	r3, [r7, #19]
 8004c08:	697a      	ldr	r2, [r7, #20]
 8004c0a:	0052      	lsls	r2, r2, #1
 8004c0c:	4413      	add	r3, r2
 8004c0e:	8a3a      	ldrh	r2, [r7, #16]
 8004c10:	f821 2033 	strh.w	r2, [r1, r3, lsl #3]
}
 8004c14:	bf00      	nop
 8004c16:	2300      	movs	r3, #0
 8004c18:	61fb      	str	r3, [r7, #28]
 8004c1a:	2300      	movs	r3, #0
 8004c1c:	76fb      	strb	r3, [r7, #27]
 8004c1e:	f8b7 3044 	ldrh.w	r3, [r7, #68]	@ 0x44
 8004c22:	833b      	strh	r3, [r7, #24]
  FSDEV_BTABLE->ep16[ep_id][buf_id].addr = addr;
 8004c24:	4952      	ldr	r1, [pc, #328]	@ (8004d70 <edpt0_open+0x1c8>)
 8004c26:	7efb      	ldrb	r3, [r7, #27]
 8004c28:	69fa      	ldr	r2, [r7, #28]
 8004c2a:	0052      	lsls	r2, r2, #1
 8004c2c:	4413      	add	r3, r2
 8004c2e:	8b3a      	ldrh	r2, [r7, #24]
 8004c30:	f821 2033 	strh.w	r2, [r1, r3, lsl #3]
}
 8004c34:	bf00      	nop
 8004c36:	2300      	movs	r3, #0
 8004c38:	623b      	str	r3, [r7, #32]
  return FSDEV_REG->ep[ep_id].reg;
 8004c3a:	4a4e      	ldr	r2, [pc, #312]	@ (8004d74 <edpt0_open+0x1cc>)
 8004c3c:	6a3b      	ldr	r3, [r7, #32]
 8004c3e:	f832 3023 	ldrh.w	r3, [r2, r3, lsl #2]
 8004c42:	b29b      	uxth	r3, r3

  btable_set_addr(0, BTABLE_BUF_RX, pma_addr0);
  btable_set_addr(0, BTABLE_BUF_TX, pma_addr1);

  uint32_t ep_reg = ep_read(0) & ~U_EPREG_MASK; // only get toggle bits
 8004c44:	f423 430f 	bic.w	r3, r3, #36608	@ 0x8f00
 8004c48:	f023 038f 	bic.w	r3, r3, #143	@ 0x8f
 8004c4c:	60fb      	str	r3, [r7, #12]
  ep_reg |= U_EP_CONTROL;
 8004c4e:	68fb      	ldr	r3, [r7, #12]
 8004c50:	f443 7300 	orr.w	r3, r3, #512	@ 0x200
 8004c54:	60fb      	str	r3, [r7, #12]
 8004c56:	f107 030c 	add.w	r3, r7, #12
 8004c5a:	62bb      	str	r3, [r7, #40]	@ 0x28
 8004c5c:	2301      	movs	r3, #1
 8004c5e:	f887 3027 	strb.w	r3, [r7, #39]	@ 0x27
 8004c62:	2302      	movs	r3, #2
 8004c64:	f887 3026 	strb.w	r3, [r7, #38]	@ 0x26
  *reg ^= (state << (U_EPTX_STAT_Pos + (dir == TUSB_DIR_IN ? 0 : 8)));
 8004c68:	6abb      	ldr	r3, [r7, #40]	@ 0x28
 8004c6a:	681b      	ldr	r3, [r3, #0]
 8004c6c:	f897 1026 	ldrb.w	r1, [r7, #38]	@ 0x26
 8004c70:	f897 2027 	ldrb.w	r2, [r7, #39]	@ 0x27
 8004c74:	2a01      	cmp	r2, #1
 8004c76:	d101      	bne.n	8004c7c <edpt0_open+0xd4>
 8004c78:	2204      	movs	r2, #4
 8004c7a:	e000      	b.n	8004c7e <edpt0_open+0xd6>
 8004c7c:	220c      	movs	r2, #12
 8004c7e:	fa01 f202 	lsl.w	r2, r1, r2
 8004c82:	405a      	eors	r2, r3
 8004c84:	6abb      	ldr	r3, [r7, #40]	@ 0x28
 8004c86:	601a      	str	r2, [r3, #0]
}
 8004c88:	bf00      	nop
 8004c8a:	f107 030c 	add.w	r3, r7, #12
 8004c8e:	633b      	str	r3, [r7, #48]	@ 0x30
 8004c90:	2300      	movs	r3, #0
 8004c92:	f887 302f 	strb.w	r3, [r7, #47]	@ 0x2f
 8004c96:	2302      	movs	r3, #2
 8004c98:	f887 302e 	strb.w	r3, [r7, #46]	@ 0x2e
  *reg ^= (state << (U_EPTX_STAT_Pos + (dir == TUSB_DIR_IN ? 0 : 8)));
 8004c9c:	6b3b      	ldr	r3, [r7, #48]	@ 0x30
 8004c9e:	681b      	ldr	r3, [r3, #0]
 8004ca0:	f897 102e 	ldrb.w	r1, [r7, #46]	@ 0x2e
 8004ca4:	f897 202f 	ldrb.w	r2, [r7, #47]	@ 0x2f
 8004ca8:	2a01      	cmp	r2, #1
 8004caa:	d101      	bne.n	8004cb0 <edpt0_open+0x108>
 8004cac:	2204      	movs	r2, #4
 8004cae:	e000      	b.n	8004cb2 <edpt0_open+0x10a>
 8004cb0:	220c      	movs	r2, #12
 8004cb2:	fa01 f202 	lsl.w	r2, r1, r2
 8004cb6:	405a      	eors	r2, r3
 8004cb8:	6b3b      	ldr	r3, [r7, #48]	@ 0x30
 8004cba:	601a      	str	r2, [r3, #0]
}
 8004cbc:	bf00      	nop
  btable_set_rx_bufsize(0, BTABLE_BUF_RX, 8);
 8004cbe:	2208      	movs	r2, #8
 8004cc0:	2101      	movs	r1, #1
 8004cc2:	2000      	movs	r0, #0
 8004cc4:	f000 fed4 	bl	8005a70 <btable_set_rx_bufsize>
}
 8004cc8:	bf00      	nop
  ep_change_status(&ep_reg, TUSB_DIR_IN, EP_STAT_NAK);
  ep_change_status(&ep_reg, TUSB_DIR_OUT, EP_STAT_NAK);
  // no need to explicitly set DTOG bits since we aren't masked DTOG bit

  edpt0_prepare_setup(); // prepare for setup packet
  ep_write(0, ep_reg, false);
 8004cca:	68fb      	ldr	r3, [r7, #12]
 8004ccc:	2200      	movs	r2, #0
 8004cce:	643a      	str	r2, [r7, #64]	@ 0x40
 8004cd0:	63fb      	str	r3, [r7, #60]	@ 0x3c
 8004cd2:	2300      	movs	r3, #0
 8004cd4:	f887 303b 	strb.w	r3, [r7, #59]	@ 0x3b
  if (need_exclusive) {
 8004cd8:	f897 303b 	ldrb.w	r3, [r7, #59]	@ 0x3b
 8004cdc:	2b00      	cmp	r3, #0
 8004cde:	d017      	beq.n	8004d10 <edpt0_open+0x168>
 8004ce0:	2300      	movs	r3, #0
 8004ce2:	f887 303a 	strb.w	r3, [r7, #58]	@ 0x3a
    for (uint8_t i = 0; i < FSDEV_IRQ_NUM; i++) {
 8004ce6:	2300      	movs	r3, #0
 8004ce8:	f887 3039 	strb.w	r3, [r7, #57]	@ 0x39
 8004cec:	e00b      	b.n	8004d06 <edpt0_open+0x15e>
      NVIC_DisableIRQ(fsdev_irq[i]);
 8004cee:	f897 3039 	ldrb.w	r3, [r7, #57]	@ 0x39
 8004cf2:	4a21      	ldr	r2, [pc, #132]	@ (8004d78 <edpt0_open+0x1d0>)
 8004cf4:	56d3      	ldrsb	r3, [r2, r3]
 8004cf6:	4618      	mov	r0, r3
 8004cf8:	f7ff f80a 	bl	8003d10 <__NVIC_DisableIRQ>
    for (uint8_t i = 0; i < FSDEV_IRQ_NUM; i++) {
 8004cfc:	f897 3039 	ldrb.w	r3, [r7, #57]	@ 0x39
 8004d00:	3301      	adds	r3, #1
 8004d02:	f887 3039 	strb.w	r3, [r7, #57]	@ 0x39
 8004d06:	f897 3039 	ldrb.w	r3, [r7, #57]	@ 0x39
 8004d0a:	2b02      	cmp	r3, #2
 8004d0c:	d9ef      	bls.n	8004cee <edpt0_open+0x146>
}
 8004d0e:	bf00      	nop
  FSDEV_REG->ep[ep_id].reg = (fsdev_bus_t)value;
 8004d10:	4a18      	ldr	r2, [pc, #96]	@ (8004d74 <edpt0_open+0x1cc>)
 8004d12:	6bfb      	ldr	r3, [r7, #60]	@ 0x3c
 8004d14:	b299      	uxth	r1, r3
 8004d16:	6c3b      	ldr	r3, [r7, #64]	@ 0x40
 8004d18:	f822 1023 	strh.w	r1, [r2, r3, lsl #2]
  if (need_exclusive) {
 8004d1c:	f897 303b 	ldrb.w	r3, [r7, #59]	@ 0x3b
 8004d20:	2b00      	cmp	r3, #0
 8004d22:	d01d      	beq.n	8004d60 <edpt0_open+0x1b8>
 8004d24:	2300      	movs	r3, #0
 8004d26:	f887 3038 	strb.w	r3, [r7, #56]	@ 0x38
  __ASM volatile ("dsb 0xF":::"memory");
 8004d2a:	f3bf 8f4f 	dsb	sy
}
 8004d2e:	bf00      	nop
  __ASM volatile ("isb 0xF":::"memory");
 8004d30:	f3bf 8f6f 	isb	sy
}
 8004d34:	bf00      	nop
    for (uint8_t i = 0; i < FSDEV_IRQ_NUM; i++) {
 8004d36:	2300      	movs	r3, #0
 8004d38:	f887 3037 	strb.w	r3, [r7, #55]	@ 0x37
 8004d3c:	e00b      	b.n	8004d56 <edpt0_open+0x1ae>
      NVIC_EnableIRQ(fsdev_irq[i]);
 8004d3e:	f897 3037 	ldrb.w	r3, [r7, #55]	@ 0x37
 8004d42:	4a0d      	ldr	r2, [pc, #52]	@ (8004d78 <edpt0_open+0x1d0>)
 8004d44:	56d3      	ldrsb	r3, [r2, r3]
 8004d46:	4618      	mov	r0, r3
 8004d48:	f7fe ffc6 	bl	8003cd8 <__NVIC_EnableIRQ>
    for (uint8_t i = 0; i < FSDEV_IRQ_NUM; i++) {
 8004d4c:	f897 3037 	ldrb.w	r3, [r7, #55]	@ 0x37
 8004d50:	3301      	adds	r3, #1
 8004d52:	f887 3037 	strb.w	r3, [r7, #55]	@ 0x37
 8004d56:	f897 3037 	ldrb.w	r3, [r7, #55]	@ 0x37
 8004d5a:	2b02      	cmp	r3, #2
 8004d5c:	d9ef      	bls.n	8004d3e <edpt0_open+0x196>
}
 8004d5e:	bf00      	nop
}
 8004d60:	bf00      	nop
}
 8004d62:	bf00      	nop
 8004d64:	3748      	adds	r7, #72	@ 0x48
 8004d66:	46bd      	mov	sp, r7
 8004d68:	bd80      	pop	{r7, pc}
 8004d6a:	bf00      	nop
 8004d6c:	2000058c 	.word	0x2000058c
 8004d70:	40006000 	.word	0x40006000
 8004d74:	40005c00 	.word	0x40005c00
 8004d78:	08007820 	.word	0x08007820

08004d7c <dcd_edpt_open>:

bool dcd_edpt_open(uint8_t rhport, const tusb_desc_endpoint_t *desc_ep) {
 8004d7c:	b580      	push	{r7, lr}
 8004d7e:	b096      	sub	sp, #88	@ 0x58
 8004d80:	af00      	add	r7, sp, #0
 8004d82:	4603      	mov	r3, r0
 8004d84:	6039      	str	r1, [r7, #0]
 8004d86:	71fb      	strb	r3, [r7, #7]
  (void)rhport;
  const uint8_t    ep_addr     = desc_ep->bEndpointAddress;
 8004d88:	683b      	ldr	r3, [r7, #0]
 8004d8a:	789b      	ldrb	r3, [r3, #2]
 8004d8c:	f887 3057 	strb.w	r3, [r7, #87]	@ 0x57
 8004d90:	f897 3057 	ldrb.w	r3, [r7, #87]	@ 0x57
 8004d94:	f887 303a 	strb.w	r3, [r7, #58]	@ 0x3a
  return (uint8_t) (addr & TUSB_EPNUM_MASK);
 8004d98:	f897 303a 	ldrb.w	r3, [r7, #58]	@ 0x3a
 8004d9c:	f003 030f 	and.w	r3, r3, #15
 8004da0:	b2db      	uxtb	r3, r3
  const uint8_t    ep_num      = tu_edpt_number(ep_addr);
 8004da2:	f887 3056 	strb.w	r3, [r7, #86]	@ 0x56
 8004da6:	f897 3057 	ldrb.w	r3, [r7, #87]	@ 0x57
 8004daa:	f887 303b 	strb.w	r3, [r7, #59]	@ 0x3b
  return (addr & TUSB_DIR_IN_MASK) ? TUSB_DIR_IN : TUSB_DIR_OUT;
 8004dae:	f897 303b 	ldrb.w	r3, [r7, #59]	@ 0x3b
 8004db2:	09db      	lsrs	r3, r3, #7
 8004db4:	b2db      	uxtb	r3, r3
  const tusb_dir_t dir         = tu_edpt_dir(ep_addr);
 8004db6:	f887 3055 	strb.w	r3, [r7, #85]	@ 0x55
 8004dba:	683b      	ldr	r3, [r7, #0]
 8004dbc:	63fb      	str	r3, [r7, #60]	@ 0x3c
  return tu_le16toh(desc_ep->wMaxPacketSize) & 0x7FF;
 8004dbe:	6bfb      	ldr	r3, [r7, #60]	@ 0x3c
 8004dc0:	889b      	ldrh	r3, [r3, #4]
 8004dc2:	b29b      	uxth	r3, r3
 8004dc4:	f3c3 030a 	ubfx	r3, r3, #0, #11
 8004dc8:	b29b      	uxth	r3, r3
  const uint16_t   packet_size = tu_edpt_packet_size(desc_ep);
 8004dca:	f8a7 3052 	strh.w	r3, [r7, #82]	@ 0x52
  const uint8_t    ep_idx      = dcd_ep_alloc(ep_addr, desc_ep->bmAttributes.xfer);
 8004dce:	683b      	ldr	r3, [r7, #0]
 8004dd0:	78db      	ldrb	r3, [r3, #3]
 8004dd2:	f3c3 0301 	ubfx	r3, r3, #0, #2
 8004dd6:	b2db      	uxtb	r3, r3
 8004dd8:	461a      	mov	r2, r3
 8004dda:	f897 3057 	ldrb.w	r3, [r7, #87]	@ 0x57
 8004dde:	4611      	mov	r1, r2
 8004de0:	4618      	mov	r0, r3
 8004de2:	f7ff fe39 	bl	8004a58 <dcd_ep_alloc>
 8004de6:	4603      	mov	r3, r0
 8004de8:	f887 3051 	strb.w	r3, [r7, #81]	@ 0x51
  TU_ASSERT(ep_idx < FSDEV_EP_COUNT);
 8004dec:	f897 3051 	ldrb.w	r3, [r7, #81]	@ 0x51
 8004df0:	2b07      	cmp	r3, #7
 8004df2:	d90a      	bls.n	8004e0a <dcd_edpt_open+0x8e>
 8004df4:	4b83      	ldr	r3, [pc, #524]	@ (8005004 <dcd_edpt_open+0x288>)
 8004df6:	643b      	str	r3, [r7, #64]	@ 0x40
 8004df8:	6c3b      	ldr	r3, [r7, #64]	@ 0x40
 8004dfa:	681b      	ldr	r3, [r3, #0]
 8004dfc:	f003 0301 	and.w	r3, r3, #1
 8004e00:	2b00      	cmp	r3, #0
 8004e02:	d000      	beq.n	8004e06 <dcd_edpt_open+0x8a>
 8004e04:	be00      	bkpt	0x0000
 8004e06:	2300      	movs	r3, #0
 8004e08:	e0f7      	b.n	8004ffa <dcd_edpt_open+0x27e>

  uint32_t ep_reg = ep_read(ep_idx) & ~U_EPREG_MASK;
 8004e0a:	f897 3051 	ldrb.w	r3, [r7, #81]	@ 0x51
 8004e0e:	637b      	str	r3, [r7, #52]	@ 0x34
  return FSDEV_REG->ep[ep_id].reg;
 8004e10:	4a7d      	ldr	r2, [pc, #500]	@ (8005008 <dcd_edpt_open+0x28c>)
 8004e12:	6b7b      	ldr	r3, [r7, #52]	@ 0x34
 8004e14:	f832 3023 	ldrh.w	r3, [r2, r3, lsl #2]
 8004e18:	b29b      	uxth	r3, r3
 8004e1a:	f423 430f 	bic.w	r3, r3, #36608	@ 0x8f00
 8004e1e:	f023 038f 	bic.w	r3, r3, #143	@ 0x8f
 8004e22:	60bb      	str	r3, [r7, #8]
 8004e24:	f897 3057 	ldrb.w	r3, [r7, #87]	@ 0x57
 8004e28:	f887 3039 	strb.w	r3, [r7, #57]	@ 0x39
  return (uint8_t) (addr & TUSB_EPNUM_MASK);
 8004e2c:	f897 3039 	ldrb.w	r3, [r7, #57]	@ 0x39
 8004e30:	f003 030f 	and.w	r3, r3, #15
 8004e34:	b2db      	uxtb	r3, r3
  ep_reg |= tu_edpt_number(ep_addr) | U_EP_CTR_TX | U_EP_CTR_RX;
 8004e36:	f063 037f 	orn	r3, r3, #127	@ 0x7f
 8004e3a:	b2db      	uxtb	r3, r3
 8004e3c:	f443 4200 	orr.w	r2, r3, #32768	@ 0x8000
 8004e40:	68bb      	ldr	r3, [r7, #8]
 8004e42:	4313      	orrs	r3, r2
 8004e44:	60bb      	str	r3, [r7, #8]

  // Set type
  switch (desc_ep->bmAttributes.xfer) {
 8004e46:	683b      	ldr	r3, [r7, #0]
 8004e48:	78db      	ldrb	r3, [r3, #3]
 8004e4a:	f3c3 0301 	ubfx	r3, r3, #0, #2
 8004e4e:	b2db      	uxtb	r3, r3
 8004e50:	2b02      	cmp	r3, #2
 8004e52:	d002      	beq.n	8004e5a <dcd_edpt_open+0xde>
 8004e54:	2b03      	cmp	r3, #3
 8004e56:	d003      	beq.n	8004e60 <dcd_edpt_open+0xe4>
 8004e58:	e007      	b.n	8004e6a <dcd_edpt_open+0xee>
    case TUSB_XFER_BULK:
      ep_reg |= U_EP_BULK;
 8004e5a:	68bb      	ldr	r3, [r7, #8]
 8004e5c:	60bb      	str	r3, [r7, #8]
      break;
 8004e5e:	e00f      	b.n	8004e80 <dcd_edpt_open+0x104>
    case TUSB_XFER_INTERRUPT:
      ep_reg |= U_EP_INTERRUPT;
 8004e60:	68bb      	ldr	r3, [r7, #8]
 8004e62:	f443 63c0 	orr.w	r3, r3, #1536	@ 0x600
 8004e66:	60bb      	str	r3, [r7, #8]
      break;
 8004e68:	e00a      	b.n	8004e80 <dcd_edpt_open+0x104>

    default:
      // Note: ISO endpoint should use alloc / active functions
      TU_ASSERT(false);
 8004e6a:	4b66      	ldr	r3, [pc, #408]	@ (8005004 <dcd_edpt_open+0x288>)
 8004e6c:	647b      	str	r3, [r7, #68]	@ 0x44
 8004e6e:	6c7b      	ldr	r3, [r7, #68]	@ 0x44
 8004e70:	681b      	ldr	r3, [r3, #0]
 8004e72:	f003 0301 	and.w	r3, r3, #1
 8004e76:	2b00      	cmp	r3, #0
 8004e78:	d000      	beq.n	8004e7c <dcd_edpt_open+0x100>
 8004e7a:	be00      	bkpt	0x0000
 8004e7c:	2300      	movs	r3, #0
 8004e7e:	e0bc      	b.n	8004ffa <dcd_edpt_open+0x27e>
  }

  /* Create a packet memory buffer area. */
  uint16_t pma_addr = dcd_pma_alloc(packet_size, false);
 8004e80:	f8b7 3052 	ldrh.w	r3, [r7, #82]	@ 0x52
 8004e84:	2100      	movs	r1, #0
 8004e86:	4618      	mov	r0, r3
 8004e88:	f7ff fda0 	bl	80049cc <dcd_pma_alloc>
 8004e8c:	4603      	mov	r3, r0
 8004e8e:	f8a7 304e 	strh.w	r3, [r7, #78]	@ 0x4e
  btable_set_addr(ep_idx, dir == TUSB_DIR_IN ? BTABLE_BUF_TX : BTABLE_BUF_RX, pma_addr);
 8004e92:	f897 3051 	ldrb.w	r3, [r7, #81]	@ 0x51
 8004e96:	f897 2055 	ldrb.w	r2, [r7, #85]	@ 0x55
 8004e9a:	2a01      	cmp	r2, #1
 8004e9c:	bf14      	ite	ne
 8004e9e:	2201      	movne	r2, #1
 8004ea0:	2200      	moveq	r2, #0
 8004ea2:	b2d2      	uxtb	r2, r2
 8004ea4:	623b      	str	r3, [r7, #32]
 8004ea6:	4613      	mov	r3, r2
 8004ea8:	77fb      	strb	r3, [r7, #31]
 8004eaa:	f8b7 304e 	ldrh.w	r3, [r7, #78]	@ 0x4e
 8004eae:	83bb      	strh	r3, [r7, #28]
  FSDEV_BTABLE->ep16[ep_id][buf_id].addr = addr;
 8004eb0:	4956      	ldr	r1, [pc, #344]	@ (800500c <dcd_edpt_open+0x290>)
 8004eb2:	7ffb      	ldrb	r3, [r7, #31]
 8004eb4:	6a3a      	ldr	r2, [r7, #32]
 8004eb6:	0052      	lsls	r2, r2, #1
 8004eb8:	4413      	add	r3, r2
 8004eba:	8bba      	ldrh	r2, [r7, #28]
 8004ebc:	f821 2033 	strh.w	r2, [r1, r3, lsl #3]
}
 8004ec0:	bf00      	nop
 8004ec2:	f897 3056 	ldrb.w	r3, [r7, #86]	@ 0x56
 8004ec6:	f887 3025 	strb.w	r3, [r7, #37]	@ 0x25
 8004eca:	f897 3055 	ldrb.w	r3, [r7, #85]	@ 0x55
 8004ece:	f887 3024 	strb.w	r3, [r7, #36]	@ 0x24
  return &xfer_status[epnum][dir];
 8004ed2:	f897 2025 	ldrb.w	r2, [r7, #37]	@ 0x25
 8004ed6:	f897 3024 	ldrb.w	r3, [r7, #36]	@ 0x24
 8004eda:	0052      	lsls	r2, r2, #1
 8004edc:	4413      	add	r3, r2
 8004ede:	011b      	lsls	r3, r3, #4
 8004ee0:	4a4b      	ldr	r2, [pc, #300]	@ (8005010 <dcd_edpt_open+0x294>)
 8004ee2:	4413      	add	r3, r2

  xfer_ctl_t *xfer      = xfer_ctl_ptr(ep_num, dir);
 8004ee4:	64bb      	str	r3, [r7, #72]	@ 0x48
  xfer->max_packet_size = packet_size;
 8004ee6:	6cbb      	ldr	r3, [r7, #72]	@ 0x48
 8004ee8:	f8b7 2052 	ldrh.w	r2, [r7, #82]	@ 0x52
 8004eec:	819a      	strh	r2, [r3, #12]
  xfer->ep_idx          = ep_idx;
 8004eee:	6cbb      	ldr	r3, [r7, #72]	@ 0x48
 8004ef0:	f897 2051 	ldrb.w	r2, [r7, #81]	@ 0x51
 8004ef4:	739a      	strb	r2, [r3, #14]
 8004ef6:	f107 0308 	add.w	r3, r7, #8
 8004efa:	62bb      	str	r3, [r7, #40]	@ 0x28
 8004efc:	f897 3055 	ldrb.w	r3, [r7, #85]	@ 0x55
 8004f00:	f887 3027 	strb.w	r3, [r7, #39]	@ 0x27
 8004f04:	2302      	movs	r3, #2
 8004f06:	f887 3026 	strb.w	r3, [r7, #38]	@ 0x26
  *reg ^= (state << (U_EPTX_STAT_Pos + (dir == TUSB_DIR_IN ? 0 : 8)));
 8004f0a:	6abb      	ldr	r3, [r7, #40]	@ 0x28
 8004f0c:	681b      	ldr	r3, [r3, #0]
 8004f0e:	f897 1026 	ldrb.w	r1, [r7, #38]	@ 0x26
 8004f12:	f897 2027 	ldrb.w	r2, [r7, #39]	@ 0x27
 8004f16:	2a01      	cmp	r2, #1
 8004f18:	d101      	bne.n	8004f1e <dcd_edpt_open+0x1a2>
 8004f1a:	2204      	movs	r2, #4
 8004f1c:	e000      	b.n	8004f20 <dcd_edpt_open+0x1a4>
 8004f1e:	220c      	movs	r2, #12
 8004f20:	fa01 f202 	lsl.w	r2, r1, r2
 8004f24:	405a      	eors	r2, r3
 8004f26:	6abb      	ldr	r3, [r7, #40]	@ 0x28
 8004f28:	601a      	str	r2, [r3, #0]
}
 8004f2a:	bf00      	nop
 8004f2c:	f107 0308 	add.w	r3, r7, #8
 8004f30:	633b      	str	r3, [r7, #48]	@ 0x30
 8004f32:	f897 3055 	ldrb.w	r3, [r7, #85]	@ 0x55
 8004f36:	f887 302f 	strb.w	r3, [r7, #47]	@ 0x2f
 8004f3a:	2300      	movs	r3, #0
 8004f3c:	f887 302e 	strb.w	r3, [r7, #46]	@ 0x2e
  *reg ^= (state << (U_EP_DTOG_TX_Pos + (dir == TUSB_DIR_IN ? 0 : 8)));
 8004f40:	6b3b      	ldr	r3, [r7, #48]	@ 0x30
 8004f42:	681b      	ldr	r3, [r3, #0]
 8004f44:	f897 102e 	ldrb.w	r1, [r7, #46]	@ 0x2e
 8004f48:	f897 202f 	ldrb.w	r2, [r7, #47]	@ 0x2f
 8004f4c:	2a01      	cmp	r2, #1
 8004f4e:	d101      	bne.n	8004f54 <dcd_edpt_open+0x1d8>
 8004f50:	2206      	movs	r2, #6
 8004f52:	e000      	b.n	8004f56 <dcd_edpt_open+0x1da>
 8004f54:	220e      	movs	r2, #14
 8004f56:	fa01 f202 	lsl.w	r2, r1, r2
 8004f5a:	405a      	eors	r2, r3
 8004f5c:	6b3b      	ldr	r3, [r7, #48]	@ 0x30
 8004f5e:	601a      	str	r2, [r3, #0]
}
 8004f60:	bf00      	nop

  ep_change_status(&ep_reg, dir, EP_STAT_NAK);
  ep_change_dtog(&ep_reg, dir, 0);

  // reserve other direction toggle bits
  if (dir == TUSB_DIR_IN) {
 8004f62:	f897 3055 	ldrb.w	r3, [r7, #85]	@ 0x55
 8004f66:	2b01      	cmp	r3, #1
 8004f68:	d104      	bne.n	8004f74 <dcd_edpt_open+0x1f8>
    ep_reg &= ~(U_EPRX_STAT | U_EP_DTOG_RX);
 8004f6a:	68bb      	ldr	r3, [r7, #8]
 8004f6c:	f423 43e0 	bic.w	r3, r3, #28672	@ 0x7000
 8004f70:	60bb      	str	r3, [r7, #8]
 8004f72:	e003      	b.n	8004f7c <dcd_edpt_open+0x200>
  } else {
    ep_reg &= ~(U_EPTX_STAT | U_EP_DTOG_TX);
 8004f74:	68bb      	ldr	r3, [r7, #8]
 8004f76:	f023 0370 	bic.w	r3, r3, #112	@ 0x70
 8004f7a:	60bb      	str	r3, [r7, #8]
  }

  ep_write(ep_idx, ep_reg, true);
 8004f7c:	f897 2051 	ldrb.w	r2, [r7, #81]	@ 0x51
 8004f80:	68bb      	ldr	r3, [r7, #8]
 8004f82:	61ba      	str	r2, [r7, #24]
 8004f84:	617b      	str	r3, [r7, #20]
 8004f86:	2301      	movs	r3, #1
 8004f88:	74fb      	strb	r3, [r7, #19]
  if (need_exclusive) {
 8004f8a:	7cfb      	ldrb	r3, [r7, #19]
 8004f8c:	2b00      	cmp	r3, #0
 8004f8e:	d011      	beq.n	8004fb4 <dcd_edpt_open+0x238>
 8004f90:	2300      	movs	r3, #0
 8004f92:	74bb      	strb	r3, [r7, #18]
    for (uint8_t i = 0; i < FSDEV_IRQ_NUM; i++) {
 8004f94:	2300      	movs	r3, #0
 8004f96:	747b      	strb	r3, [r7, #17]
 8004f98:	e008      	b.n	8004fac <dcd_edpt_open+0x230>
      NVIC_DisableIRQ(fsdev_irq[i]);
 8004f9a:	7c7b      	ldrb	r3, [r7, #17]
 8004f9c:	4a1d      	ldr	r2, [pc, #116]	@ (8005014 <dcd_edpt_open+0x298>)
 8004f9e:	56d3      	ldrsb	r3, [r2, r3]
 8004fa0:	4618      	mov	r0, r3
 8004fa2:	f7fe feb5 	bl	8003d10 <__NVIC_DisableIRQ>
    for (uint8_t i = 0; i < FSDEV_IRQ_NUM; i++) {
 8004fa6:	7c7b      	ldrb	r3, [r7, #17]
 8004fa8:	3301      	adds	r3, #1
 8004faa:	747b      	strb	r3, [r7, #17]
 8004fac:	7c7b      	ldrb	r3, [r7, #17]
 8004fae:	2b02      	cmp	r3, #2
 8004fb0:	d9f3      	bls.n	8004f9a <dcd_edpt_open+0x21e>
}
 8004fb2:	bf00      	nop
  FSDEV_REG->ep[ep_id].reg = (fsdev_bus_t)value;
 8004fb4:	4a14      	ldr	r2, [pc, #80]	@ (8005008 <dcd_edpt_open+0x28c>)
 8004fb6:	697b      	ldr	r3, [r7, #20]
 8004fb8:	b299      	uxth	r1, r3
 8004fba:	69bb      	ldr	r3, [r7, #24]
 8004fbc:	f822 1023 	strh.w	r1, [r2, r3, lsl #2]
  if (need_exclusive) {
 8004fc0:	7cfb      	ldrb	r3, [r7, #19]
 8004fc2:	2b00      	cmp	r3, #0
 8004fc4:	d017      	beq.n	8004ff6 <dcd_edpt_open+0x27a>
 8004fc6:	2300      	movs	r3, #0
 8004fc8:	743b      	strb	r3, [r7, #16]
  __ASM volatile ("dsb 0xF":::"memory");
 8004fca:	f3bf 8f4f 	dsb	sy
}
 8004fce:	bf00      	nop
  __ASM volatile ("isb 0xF":::"memory");
 8004fd0:	f3bf 8f6f 	isb	sy
}
 8004fd4:	bf00      	nop
    for (uint8_t i = 0; i < FSDEV_IRQ_NUM; i++) {
 8004fd6:	2300      	movs	r3, #0
 8004fd8:	73fb      	strb	r3, [r7, #15]
 8004fda:	e008      	b.n	8004fee <dcd_edpt_open+0x272>
      NVIC_EnableIRQ(fsdev_irq[i]);
 8004fdc:	7bfb      	ldrb	r3, [r7, #15]
 8004fde:	4a0d      	ldr	r2, [pc, #52]	@ (8005014 <dcd_edpt_open+0x298>)
 8004fe0:	56d3      	ldrsb	r3, [r2, r3]
 8004fe2:	4618      	mov	r0, r3
 8004fe4:	f7fe fe78 	bl	8003cd8 <__NVIC_EnableIRQ>
    for (uint8_t i = 0; i < FSDEV_IRQ_NUM; i++) {
 8004fe8:	7bfb      	ldrb	r3, [r7, #15]
 8004fea:	3301      	adds	r3, #1
 8004fec:	73fb      	strb	r3, [r7, #15]
 8004fee:	7bfb      	ldrb	r3, [r7, #15]
 8004ff0:	2b02      	cmp	r3, #2
 8004ff2:	d9f3      	bls.n	8004fdc <dcd_edpt_open+0x260>
}
 8004ff4:	bf00      	nop
}
 8004ff6:	bf00      	nop

  return true;
 8004ff8:	2301      	movs	r3, #1
}
 8004ffa:	4618      	mov	r0, r3
 8004ffc:	3758      	adds	r7, #88	@ 0x58
 8004ffe:	46bd      	mov	sp, r7
 8005000:	bd80      	pop	{r7, pc}
 8005002:	bf00      	nop
 8005004:	e000edf0 	.word	0xe000edf0
 8005008:	40005c00 	.word	0x40005c00
 800500c:	40006000 	.word	0x40006000
 8005010:	2000058c 	.word	0x2000058c
 8005014:	08007820 	.word	0x08007820

08005018 <dcd_edpt_close_all>:

void dcd_edpt_close_all(uint8_t rhport) {
 8005018:	b580      	push	{r7, lr}
 800501a:	b088      	sub	sp, #32
 800501c:	af00      	add	r7, sp, #0
 800501e:	4603      	mov	r3, r0
 8005020:	71fb      	strb	r3, [r7, #7]
  dcd_int_disable(rhport);
 8005022:	79fb      	ldrb	r3, [r7, #7]
 8005024:	4618      	mov	r0, r3
 8005026:	f000 fc97 	bl	8005958 <dcd_int_disable>

  for (uint32_t i = 1; i < FSDEV_EP_COUNT; i++) {
 800502a:	2301      	movs	r3, #1
 800502c:	61fb      	str	r3, [r7, #28]
 800502e:	e056      	b.n	80050de <dcd_edpt_close_all+0xc6>
 8005030:	69fb      	ldr	r3, [r7, #28]
 8005032:	61bb      	str	r3, [r7, #24]
 8005034:	2300      	movs	r3, #0
 8005036:	617b      	str	r3, [r7, #20]
 8005038:	2300      	movs	r3, #0
 800503a:	74fb      	strb	r3, [r7, #19]
  if (need_exclusive) {
 800503c:	7cfb      	ldrb	r3, [r7, #19]
 800503e:	2b00      	cmp	r3, #0
 8005040:	d011      	beq.n	8005066 <dcd_edpt_close_all+0x4e>
 8005042:	2300      	movs	r3, #0
 8005044:	74bb      	strb	r3, [r7, #18]
    for (uint8_t i = 0; i < FSDEV_IRQ_NUM; i++) {
 8005046:	2300      	movs	r3, #0
 8005048:	747b      	strb	r3, [r7, #17]
 800504a:	e008      	b.n	800505e <dcd_edpt_close_all+0x46>
      NVIC_DisableIRQ(fsdev_irq[i]);
 800504c:	7c7b      	ldrb	r3, [r7, #17]
 800504e:	4a2b      	ldr	r2, [pc, #172]	@ (80050fc <dcd_edpt_close_all+0xe4>)
 8005050:	56d3      	ldrsb	r3, [r2, r3]
 8005052:	4618      	mov	r0, r3
 8005054:	f7fe fe5c 	bl	8003d10 <__NVIC_DisableIRQ>
    for (uint8_t i = 0; i < FSDEV_IRQ_NUM; i++) {
 8005058:	7c7b      	ldrb	r3, [r7, #17]
 800505a:	3301      	adds	r3, #1
 800505c:	747b      	strb	r3, [r7, #17]
 800505e:	7c7b      	ldrb	r3, [r7, #17]
 8005060:	2b02      	cmp	r3, #2
 8005062:	d9f3      	bls.n	800504c <dcd_edpt_close_all+0x34>
}
 8005064:	bf00      	nop
  FSDEV_REG->ep[ep_id].reg = (fsdev_bus_t)value;
 8005066:	4a26      	ldr	r2, [pc, #152]	@ (8005100 <dcd_edpt_close_all+0xe8>)
 8005068:	697b      	ldr	r3, [r7, #20]
 800506a:	b299      	uxth	r1, r3
 800506c:	69bb      	ldr	r3, [r7, #24]
 800506e:	f822 1023 	strh.w	r1, [r2, r3, lsl #2]
  if (need_exclusive) {
 8005072:	7cfb      	ldrb	r3, [r7, #19]
 8005074:	2b00      	cmp	r3, #0
 8005076:	d017      	beq.n	80050a8 <dcd_edpt_close_all+0x90>
 8005078:	2300      	movs	r3, #0
 800507a:	743b      	strb	r3, [r7, #16]
  __ASM volatile ("dsb 0xF":::"memory");
 800507c:	f3bf 8f4f 	dsb	sy
}
 8005080:	bf00      	nop
  __ASM volatile ("isb 0xF":::"memory");
 8005082:	f3bf 8f6f 	isb	sy
}
 8005086:	bf00      	nop
    for (uint8_t i = 0; i < FSDEV_IRQ_NUM; i++) {
 8005088:	2300      	movs	r3, #0
 800508a:	73fb      	strb	r3, [r7, #15]
 800508c:	e008      	b.n	80050a0 <dcd_edpt_close_all+0x88>
      NVIC_EnableIRQ(fsdev_irq[i]);
 800508e:	7bfb      	ldrb	r3, [r7, #15]
 8005090:	4a1a      	ldr	r2, [pc, #104]	@ (80050fc <dcd_edpt_close_all+0xe4>)
 8005092:	56d3      	ldrsb	r3, [r2, r3]
 8005094:	4618      	mov	r0, r3
 8005096:	f7fe fe1f 	bl	8003cd8 <__NVIC_EnableIRQ>
    for (uint8_t i = 0; i < FSDEV_IRQ_NUM; i++) {
 800509a:	7bfb      	ldrb	r3, [r7, #15]
 800509c:	3301      	adds	r3, #1
 800509e:	73fb      	strb	r3, [r7, #15]
 80050a0:	7bfb      	ldrb	r3, [r7, #15]
 80050a2:	2b02      	cmp	r3, #2
 80050a4:	d9f3      	bls.n	800508e <dcd_edpt_close_all+0x76>
}
 80050a6:	bf00      	nop
}
 80050a8:	bf00      	nop
    // Reset endpoint
    ep_write(i, 0, false);
    // Clear EP allocation status
    ep_alloc_status[i].ep_num       = 0xFF;
 80050aa:	4a16      	ldr	r2, [pc, #88]	@ (8005104 <dcd_edpt_close_all+0xec>)
 80050ac:	69fb      	ldr	r3, [r7, #28]
 80050ae:	21ff      	movs	r1, #255	@ 0xff
 80050b0:	f802 1023 	strb.w	r1, [r2, r3, lsl #2]
    ep_alloc_status[i].ep_type      = 0xFF;
 80050b4:	4a13      	ldr	r2, [pc, #76]	@ (8005104 <dcd_edpt_close_all+0xec>)
 80050b6:	69fb      	ldr	r3, [r7, #28]
 80050b8:	009b      	lsls	r3, r3, #2
 80050ba:	4413      	add	r3, r2
 80050bc:	22ff      	movs	r2, #255	@ 0xff
 80050be:	705a      	strb	r2, [r3, #1]
    ep_alloc_status[i].allocated[0] = false;
 80050c0:	4a10      	ldr	r2, [pc, #64]	@ (8005104 <dcd_edpt_close_all+0xec>)
 80050c2:	69fb      	ldr	r3, [r7, #28]
 80050c4:	009b      	lsls	r3, r3, #2
 80050c6:	4413      	add	r3, r2
 80050c8:	2200      	movs	r2, #0
 80050ca:	709a      	strb	r2, [r3, #2]
    ep_alloc_status[i].allocated[1] = false;
 80050cc:	4a0d      	ldr	r2, [pc, #52]	@ (8005104 <dcd_edpt_close_all+0xec>)
 80050ce:	69fb      	ldr	r3, [r7, #28]
 80050d0:	009b      	lsls	r3, r3, #2
 80050d2:	4413      	add	r3, r2
 80050d4:	2200      	movs	r2, #0
 80050d6:	70da      	strb	r2, [r3, #3]
  for (uint32_t i = 1; i < FSDEV_EP_COUNT; i++) {
 80050d8:	69fb      	ldr	r3, [r7, #28]
 80050da:	3301      	adds	r3, #1
 80050dc:	61fb      	str	r3, [r7, #28]
 80050de:	69fb      	ldr	r3, [r7, #28]
 80050e0:	2b07      	cmp	r3, #7
 80050e2:	d9a5      	bls.n	8005030 <dcd_edpt_close_all+0x18>
  }

  dcd_int_enable(rhport);
 80050e4:	79fb      	ldrb	r3, [r7, #7]
 80050e6:	4618      	mov	r0, r3
 80050e8:	f000 fc12 	bl	8005910 <dcd_int_enable>

  // Reset PMA allocation
  ep_buf_ptr = FSDEV_BTABLE_BASE + 8 * FSDEV_EP_COUNT + 2 * CFG_TUD_ENDPOINT0_SIZE;
 80050ec:	4b06      	ldr	r3, [pc, #24]	@ (8005108 <dcd_edpt_close_all+0xf0>)
 80050ee:	22c0      	movs	r2, #192	@ 0xc0
 80050f0:	801a      	strh	r2, [r3, #0]
}
 80050f2:	bf00      	nop
 80050f4:	3720      	adds	r7, #32
 80050f6:	46bd      	mov	sp, r7
 80050f8:	bd80      	pop	{r7, pc}
 80050fa:	bf00      	nop
 80050fc:	08007820 	.word	0x08007820
 8005100:	40005c00 	.word	0x40005c00
 8005104:	2000068c 	.word	0x2000068c
 8005108:	200006ae 	.word	0x200006ae

0800510c <dcd_transmit_packet>:

  return true;
}

// Currently, single-buffered, and only 64 bytes at a time (max)
static void dcd_transmit_packet(xfer_ctl_t *xfer, uint16_t ep_ix) {
 800510c:	b580      	push	{r7, lr}
 800510e:	b09a      	sub	sp, #104	@ 0x68
 8005110:	af00      	add	r7, sp, #0
 8005112:	6078      	str	r0, [r7, #4]
 8005114:	460b      	mov	r3, r1
 8005116:	807b      	strh	r3, [r7, #2]
  uint16_t len    = tu_min16(xfer->total_len - xfer->queued_len, xfer->max_packet_size);
 8005118:	687b      	ldr	r3, [r7, #4]
 800511a:	891a      	ldrh	r2, [r3, #8]
 800511c:	687b      	ldr	r3, [r7, #4]
 800511e:	895b      	ldrh	r3, [r3, #10]
 8005120:	1ad3      	subs	r3, r2, r3
 8005122:	b29a      	uxth	r2, r3
 8005124:	687b      	ldr	r3, [r7, #4]
 8005126:	899b      	ldrh	r3, [r3, #12]
 8005128:	f8a7 2052 	strh.w	r2, [r7, #82]	@ 0x52
 800512c:	f8a7 3050 	strh.w	r3, [r7, #80]	@ 0x50
 8005130:	f8b7 2052 	ldrh.w	r2, [r7, #82]	@ 0x52
 8005134:	f8b7 3050 	ldrh.w	r3, [r7, #80]	@ 0x50
 8005138:	4293      	cmp	r3, r2
 800513a:	bf28      	it	cs
 800513c:	4613      	movcs	r3, r2
 800513e:	b29b      	uxth	r3, r3
 8005140:	f8a7 3064 	strh.w	r3, [r7, #100]	@ 0x64
  uint32_t ep_reg = ep_read(ep_ix) | U_EP_CTR_TX | U_EP_CTR_RX; // reserve CTR
 8005144:	887b      	ldrh	r3, [r7, #2]
 8005146:	657b      	str	r3, [r7, #84]	@ 0x54
  return FSDEV_REG->ep[ep_id].reg;
 8005148:	4a82      	ldr	r2, [pc, #520]	@ (8005354 <dcd_transmit_packet+0x248>)
 800514a:	6d7b      	ldr	r3, [r7, #84]	@ 0x54
 800514c:	f832 3023 	ldrh.w	r3, [r2, r3, lsl #2]
 8005150:	b29b      	uxth	r3, r3
 8005152:	f443 4300 	orr.w	r3, r3, #32768	@ 0x8000
 8005156:	f043 0380 	orr.w	r3, r3, #128	@ 0x80
 800515a:	613b      	str	r3, [r7, #16]

  const bool is_iso = ep_is_iso(ep_reg);
 800515c:	693b      	ldr	r3, [r7, #16]
 800515e:	65bb      	str	r3, [r7, #88]	@ 0x58
  return (reg & U_EP_TYPE_MASK) == U_EP_ISOCHRONOUS;
 8005160:	6dbb      	ldr	r3, [r7, #88]	@ 0x58
 8005162:	f403 63c0 	and.w	r3, r3, #1536	@ 0x600
 8005166:	f5b3 6f80 	cmp.w	r3, #1024	@ 0x400
 800516a:	bf0c      	ite	eq
 800516c:	2301      	moveq	r3, #1
 800516e:	2300      	movne	r3, #0
 8005170:	b2db      	uxtb	r3, r3
 8005172:	f887 3063 	strb.w	r3, [r7, #99]	@ 0x63

  uint8_t buf_id;
  #if FSDEV_USE_SBUF_ISO == 0
  bool const dbl_buf = is_iso;
 8005176:	f897 3063 	ldrb.w	r3, [r7, #99]	@ 0x63
 800517a:	f887 3062 	strb.w	r3, [r7, #98]	@ 0x62
  #else
  bool const dbl_buf = false;
  #endif
  if (dbl_buf) {
 800517e:	f897 3062 	ldrb.w	r3, [r7, #98]	@ 0x62
 8005182:	2b00      	cmp	r3, #0
 8005184:	d007      	beq.n	8005196 <dcd_transmit_packet+0x8a>
    buf_id = (ep_reg & U_EP_DTOG_TX) ? 1 : 0;
 8005186:	693b      	ldr	r3, [r7, #16]
 8005188:	099b      	lsrs	r3, r3, #6
 800518a:	b2db      	uxtb	r3, r3
 800518c:	f003 0301 	and.w	r3, r3, #1
 8005190:	f887 3067 	strb.w	r3, [r7, #103]	@ 0x67
 8005194:	e002      	b.n	800519c <dcd_transmit_packet+0x90>
  } else {
    buf_id = BTABLE_BUF_TX;
 8005196:	2300      	movs	r3, #0
 8005198:	f887 3067 	strb.w	r3, [r7, #103]	@ 0x67
  }
  uint16_t         addr_ptr = (uint16_t)btable_get_addr(ep_ix, buf_id);
 800519c:	887b      	ldrh	r3, [r7, #2]
 800519e:	64fb      	str	r3, [r7, #76]	@ 0x4c
 80051a0:	f897 3067 	ldrb.w	r3, [r7, #103]	@ 0x67
 80051a4:	f887 304b 	strb.w	r3, [r7, #75]	@ 0x4b
  return FSDEV_BTABLE->ep16[ep_id][buf_id].addr;
 80051a8:	496b      	ldr	r1, [pc, #428]	@ (8005358 <dcd_transmit_packet+0x24c>)
 80051aa:	f897 304b 	ldrb.w	r3, [r7, #75]	@ 0x4b
 80051ae:	6cfa      	ldr	r2, [r7, #76]	@ 0x4c
 80051b0:	0052      	lsls	r2, r2, #1
 80051b2:	4413      	add	r3, r2
 80051b4:	f831 3033 	ldrh.w	r3, [r1, r3, lsl #3]
 80051b8:	b29b      	uxth	r3, r3
 80051ba:	f8a7 3060 	strh.w	r3, [r7, #96]	@ 0x60
  fsdev_pma_buf_t *pma_buf  = PMA_BUF_AT(addr_ptr);
 80051be:	f8b7 3060 	ldrh.w	r3, [r7, #96]	@ 0x60
 80051c2:	005b      	lsls	r3, r3, #1
 80051c4:	f103 4380 	add.w	r3, r3, #1073741824	@ 0x40000000
 80051c8:	f503 43c0 	add.w	r3, r3, #24576	@ 0x6000
 80051cc:	65fb      	str	r3, [r7, #92]	@ 0x5c

  if (xfer->ff) {
 80051ce:	687b      	ldr	r3, [r7, #4]
 80051d0:	685b      	ldr	r3, [r3, #4]
 80051d2:	2b00      	cmp	r3, #0
 80051d4:	d01a      	beq.n	800520c <dcd_transmit_packet+0x100>
    tu_hwfifo_write_from_fifo(pma_buf, xfer->ff, len, NULL);
 80051d6:	687b      	ldr	r3, [r7, #4]
 80051d8:	685b      	ldr	r3, [r3, #4]
 80051da:	6dfa      	ldr	r2, [r7, #92]	@ 0x5c
 80051dc:	647a      	str	r2, [r7, #68]	@ 0x44
 80051de:	643b      	str	r3, [r7, #64]	@ 0x40
 80051e0:	f8b7 3064 	ldrh.w	r3, [r7, #100]	@ 0x64
 80051e4:	87fb      	strh	r3, [r7, #62]	@ 0x3e
 80051e6:	2300      	movs	r3, #0
 80051e8:	63bb      	str	r3, [r7, #56]	@ 0x38
  const tu_hwfifo_access_t default_access = {.data_stride = CFG_TUSB_FIFO_HWFIFO_DATA_STRIDE, .param = 0};
 80051ea:	2302      	movs	r3, #2
 80051ec:	723b      	strb	r3, [r7, #8]
 80051ee:	2300      	movs	r3, #0
 80051f0:	60fb      	str	r3, [r7, #12]
  return tu_fifo_read_n_access_mode(f, (void *)(uintptr_t)hwfifo, n,
 80051f2:	6bbb      	ldr	r3, [r7, #56]	@ 0x38
 80051f4:	2b00      	cmp	r3, #0
 80051f6:	d102      	bne.n	80051fe <dcd_transmit_packet+0xf2>
 80051f8:	f107 0308 	add.w	r3, r7, #8
 80051fc:	e000      	b.n	8005200 <dcd_transmit_packet+0xf4>
 80051fe:	6bbb      	ldr	r3, [r7, #56]	@ 0x38
 8005200:	8ffa      	ldrh	r2, [r7, #62]	@ 0x3e
 8005202:	6c79      	ldr	r1, [r7, #68]	@ 0x44
 8005204:	6c38      	ldr	r0, [r7, #64]	@ 0x40
 8005206:	f7fc fc04 	bl	8001a12 <tu_fifo_read_n_access_mode>
 800520a:	e00a      	b.n	8005222 <dcd_transmit_packet+0x116>
  } else {
    tu_hwfifo_write(pma_buf, &(xfer->buffer[xfer->queued_len]), len, NULL);
 800520c:	687b      	ldr	r3, [r7, #4]
 800520e:	681b      	ldr	r3, [r3, #0]
 8005210:	687a      	ldr	r2, [r7, #4]
 8005212:	8952      	ldrh	r2, [r2, #10]
 8005214:	1899      	adds	r1, r3, r2
 8005216:	f8b7 2064 	ldrh.w	r2, [r7, #100]	@ 0x64
 800521a:	2300      	movs	r3, #0
 800521c:	6df8      	ldr	r0, [r7, #92]	@ 0x5c
 800521e:	f7fc f8ac 	bl	800137a <tu_hwfifo_write>
  }
  xfer->queued_len += len;
 8005222:	687b      	ldr	r3, [r7, #4]
 8005224:	895a      	ldrh	r2, [r3, #10]
 8005226:	f8b7 3064 	ldrh.w	r3, [r7, #100]	@ 0x64
 800522a:	4413      	add	r3, r2
 800522c:	b29a      	uxth	r2, r3
 800522e:	687b      	ldr	r3, [r7, #4]
 8005230:	815a      	strh	r2, [r3, #10]

  btable_set_count(ep_ix, buf_id, len);
 8005232:	887b      	ldrh	r3, [r7, #2]
 8005234:	62fb      	str	r3, [r7, #44]	@ 0x2c
 8005236:	f897 3067 	ldrb.w	r3, [r7, #103]	@ 0x67
 800523a:	f887 302b 	strb.w	r3, [r7, #43]	@ 0x2b
 800523e:	f8b7 3064 	ldrh.w	r3, [r7, #100]	@ 0x64
 8005242:	853b      	strh	r3, [r7, #40]	@ 0x28
  uint16_t cnt = FSDEV_BTABLE->ep16[ep_id][buf_id].count;
 8005244:	4944      	ldr	r1, [pc, #272]	@ (8005358 <dcd_transmit_packet+0x24c>)
 8005246:	f897 302b 	ldrb.w	r3, [r7, #43]	@ 0x2b
 800524a:	6afa      	ldr	r2, [r7, #44]	@ 0x2c
 800524c:	0052      	lsls	r2, r2, #1
 800524e:	4413      	add	r3, r2
 8005250:	00db      	lsls	r3, r3, #3
 8005252:	440b      	add	r3, r1
 8005254:	889b      	ldrh	r3, [r3, #4]
 8005256:	84fb      	strh	r3, [r7, #38]	@ 0x26
  cnt          = (cnt & ~0x3FFU) | (byte_count & 0x3FFU);
 8005258:	8cfb      	ldrh	r3, [r7, #38]	@ 0x26
 800525a:	f423 737f 	bic.w	r3, r3, #1020	@ 0x3fc
 800525e:	f023 0303 	bic.w	r3, r3, #3
 8005262:	b29a      	uxth	r2, r3
 8005264:	8d3b      	ldrh	r3, [r7, #40]	@ 0x28
 8005266:	f3c3 0309 	ubfx	r3, r3, #0, #10
 800526a:	b29b      	uxth	r3, r3
 800526c:	4313      	orrs	r3, r2
 800526e:	84fb      	strh	r3, [r7, #38]	@ 0x26
  FSDEV_BTABLE->ep16[ep_id][buf_id].count = cnt;
 8005270:	4939      	ldr	r1, [pc, #228]	@ (8005358 <dcd_transmit_packet+0x24c>)
 8005272:	f897 302b 	ldrb.w	r3, [r7, #43]	@ 0x2b
 8005276:	6afa      	ldr	r2, [r7, #44]	@ 0x2c
 8005278:	0052      	lsls	r2, r2, #1
 800527a:	4413      	add	r3, r2
 800527c:	00db      	lsls	r3, r3, #3
 800527e:	440b      	add	r3, r1
 8005280:	8cfa      	ldrh	r2, [r7, #38]	@ 0x26
 8005282:	809a      	strh	r2, [r3, #4]
}
 8005284:	bf00      	nop
 8005286:	f107 0310 	add.w	r3, r7, #16
 800528a:	637b      	str	r3, [r7, #52]	@ 0x34
 800528c:	2301      	movs	r3, #1
 800528e:	f887 3033 	strb.w	r3, [r7, #51]	@ 0x33
 8005292:	2303      	movs	r3, #3
 8005294:	f887 3032 	strb.w	r3, [r7, #50]	@ 0x32
  *reg ^= (state << (U_EPTX_STAT_Pos + (dir == TUSB_DIR_IN ? 0 : 8)));
 8005298:	6b7b      	ldr	r3, [r7, #52]	@ 0x34
 800529a:	681b      	ldr	r3, [r3, #0]
 800529c:	f897 1032 	ldrb.w	r1, [r7, #50]	@ 0x32
 80052a0:	f897 2033 	ldrb.w	r2, [r7, #51]	@ 0x33
 80052a4:	2a01      	cmp	r2, #1
 80052a6:	d101      	bne.n	80052ac <dcd_transmit_packet+0x1a0>
 80052a8:	2204      	movs	r2, #4
 80052aa:	e000      	b.n	80052ae <dcd_transmit_packet+0x1a2>
 80052ac:	220c      	movs	r2, #12
 80052ae:	fa01 f202 	lsl.w	r2, r1, r2
 80052b2:	405a      	eors	r2, r3
 80052b4:	6b7b      	ldr	r3, [r7, #52]	@ 0x34
 80052b6:	601a      	str	r2, [r3, #0]
}
 80052b8:	bf00      	nop
  ep_change_status(&ep_reg, TUSB_DIR_IN, EP_STAT_VALID);

  if (is_iso) {
 80052ba:	f897 3063 	ldrb.w	r3, [r7, #99]	@ 0x63
 80052be:	2b00      	cmp	r3, #0
 80052c0:	d002      	beq.n	80052c8 <dcd_transmit_packet+0x1bc>
    xfer->iso_in_sending = true;
 80052c2:	687b      	ldr	r3, [r7, #4]
 80052c4:	2201      	movs	r2, #1
 80052c6:	73da      	strb	r2, [r3, #15]
  }
  ep_reg &= U_EPREG_MASK | EP_STAT_MASK(TUSB_DIR_IN); // only change TX Status, reserve other toggle bits
 80052c8:	693a      	ldr	r2, [r7, #16]
 80052ca:	f648 73bf 	movw	r3, #36799	@ 0x8fbf
 80052ce:	4013      	ands	r3, r2
 80052d0:	613b      	str	r3, [r7, #16]
  ep_write(ep_ix, ep_reg, true);
 80052d2:	887a      	ldrh	r2, [r7, #2]
 80052d4:	693b      	ldr	r3, [r7, #16]
 80052d6:	623a      	str	r2, [r7, #32]
 80052d8:	61fb      	str	r3, [r7, #28]
 80052da:	2301      	movs	r3, #1
 80052dc:	76fb      	strb	r3, [r7, #27]
  if (need_exclusive) {
 80052de:	7efb      	ldrb	r3, [r7, #27]
 80052e0:	2b00      	cmp	r3, #0
 80052e2:	d011      	beq.n	8005308 <dcd_transmit_packet+0x1fc>
 80052e4:	2300      	movs	r3, #0
 80052e6:	76bb      	strb	r3, [r7, #26]
    for (uint8_t i = 0; i < FSDEV_IRQ_NUM; i++) {
 80052e8:	2300      	movs	r3, #0
 80052ea:	767b      	strb	r3, [r7, #25]
 80052ec:	e008      	b.n	8005300 <dcd_transmit_packet+0x1f4>
      NVIC_DisableIRQ(fsdev_irq[i]);
 80052ee:	7e7b      	ldrb	r3, [r7, #25]
 80052f0:	4a1a      	ldr	r2, [pc, #104]	@ (800535c <dcd_transmit_packet+0x250>)
 80052f2:	56d3      	ldrsb	r3, [r2, r3]
 80052f4:	4618      	mov	r0, r3
 80052f6:	f7fe fd0b 	bl	8003d10 <__NVIC_DisableIRQ>
    for (uint8_t i = 0; i < FSDEV_IRQ_NUM; i++) {
 80052fa:	7e7b      	ldrb	r3, [r7, #25]
 80052fc:	3301      	adds	r3, #1
 80052fe:	767b      	strb	r3, [r7, #25]
 8005300:	7e7b      	ldrb	r3, [r7, #25]
 8005302:	2b02      	cmp	r3, #2
 8005304:	d9f3      	bls.n	80052ee <dcd_transmit_packet+0x1e2>
}
 8005306:	bf00      	nop
  FSDEV_REG->ep[ep_id].reg = (fsdev_bus_t)value;
 8005308:	4a12      	ldr	r2, [pc, #72]	@ (8005354 <dcd_transmit_packet+0x248>)
 800530a:	69fb      	ldr	r3, [r7, #28]
 800530c:	b299      	uxth	r1, r3
 800530e:	6a3b      	ldr	r3, [r7, #32]
 8005310:	f822 1023 	strh.w	r1, [r2, r3, lsl #2]
  if (need_exclusive) {
 8005314:	7efb      	ldrb	r3, [r7, #27]
 8005316:	2b00      	cmp	r3, #0
 8005318:	d017      	beq.n	800534a <dcd_transmit_packet+0x23e>
 800531a:	2300      	movs	r3, #0
 800531c:	763b      	strb	r3, [r7, #24]
  __ASM volatile ("dsb 0xF":::"memory");
 800531e:	f3bf 8f4f 	dsb	sy
}
 8005322:	bf00      	nop
  __ASM volatile ("isb 0xF":::"memory");
 8005324:	f3bf 8f6f 	isb	sy
}
 8005328:	bf00      	nop
    for (uint8_t i = 0; i < FSDEV_IRQ_NUM; i++) {
 800532a:	2300      	movs	r3, #0
 800532c:	75fb      	strb	r3, [r7, #23]
 800532e:	e008      	b.n	8005342 <dcd_transmit_packet+0x236>
      NVIC_EnableIRQ(fsdev_irq[i]);
 8005330:	7dfb      	ldrb	r3, [r7, #23]
 8005332:	4a0a      	ldr	r2, [pc, #40]	@ (800535c <dcd_transmit_packet+0x250>)
 8005334:	56d3      	ldrsb	r3, [r2, r3]
 8005336:	4618      	mov	r0, r3
 8005338:	f7fe fcce 	bl	8003cd8 <__NVIC_EnableIRQ>
    for (uint8_t i = 0; i < FSDEV_IRQ_NUM; i++) {
 800533c:	7dfb      	ldrb	r3, [r7, #23]
 800533e:	3301      	adds	r3, #1
 8005340:	75fb      	strb	r3, [r7, #23]
 8005342:	7dfb      	ldrb	r3, [r7, #23]
 8005344:	2b02      	cmp	r3, #2
 8005346:	d9f3      	bls.n	8005330 <dcd_transmit_packet+0x224>
}
 8005348:	bf00      	nop
}
 800534a:	bf00      	nop
}
 800534c:	bf00      	nop
 800534e:	3768      	adds	r7, #104	@ 0x68
 8005350:	46bd      	mov	sp, r7
 8005352:	bd80      	pop	{r7, pc}
 8005354:	40005c00 	.word	0x40005c00
 8005358:	40006000 	.word	0x40006000
 800535c:	08007820 	.word	0x08007820

08005360 <edpt_xfer>:

static bool edpt_xfer(uint8_t rhport, uint8_t ep_num, tusb_dir_t dir) {
 8005360:	b580      	push	{r7, lr}
 8005362:	b090      	sub	sp, #64	@ 0x40
 8005364:	af00      	add	r7, sp, #0
 8005366:	4603      	mov	r3, r0
 8005368:	71fb      	strb	r3, [r7, #7]
 800536a:	460b      	mov	r3, r1
 800536c:	71bb      	strb	r3, [r7, #6]
 800536e:	4613      	mov	r3, r2
 8005370:	717b      	strb	r3, [r7, #5]
 8005372:	79bb      	ldrb	r3, [r7, #6]
 8005374:	f887 3036 	strb.w	r3, [r7, #54]	@ 0x36
 8005378:	797b      	ldrb	r3, [r7, #5]
 800537a:	f887 3035 	strb.w	r3, [r7, #53]	@ 0x35
  return &xfer_status[epnum][dir];
 800537e:	f897 2036 	ldrb.w	r2, [r7, #54]	@ 0x36
 8005382:	f897 3035 	ldrb.w	r3, [r7, #53]	@ 0x35
 8005386:	0052      	lsls	r2, r2, #1
 8005388:	4413      	add	r3, r2
 800538a:	011b      	lsls	r3, r3, #4
 800538c:	4a5b      	ldr	r2, [pc, #364]	@ (80054fc <edpt_xfer+0x19c>)
 800538e:	4413      	add	r3, r2
  (void)rhport;

  xfer_ctl_t   *xfer   = xfer_ctl_ptr(ep_num, dir);
 8005390:	63fb      	str	r3, [r7, #60]	@ 0x3c
  const uint8_t ep_idx = xfer->ep_idx;
 8005392:	6bfb      	ldr	r3, [r7, #60]	@ 0x3c
 8005394:	7b9b      	ldrb	r3, [r3, #14]
 8005396:	f887 303b 	strb.w	r3, [r7, #59]	@ 0x3b

  if (dir == TUSB_DIR_IN) {
 800539a:	797b      	ldrb	r3, [r7, #5]
 800539c:	2b01      	cmp	r3, #1
 800539e:	d107      	bne.n	80053b0 <edpt_xfer+0x50>
    dcd_transmit_packet(xfer, ep_idx);
 80053a0:	f897 303b 	ldrb.w	r3, [r7, #59]	@ 0x3b
 80053a4:	b29b      	uxth	r3, r3
 80053a6:	4619      	mov	r1, r3
 80053a8:	6bf8      	ldr	r0, [r7, #60]	@ 0x3c
 80053aa:	f7ff feaf 	bl	800510c <dcd_transmit_packet>
 80053ae:	e09f      	b.n	80054f0 <edpt_xfer+0x190>
  } else {
    uint32_t ep_reg = ep_read(ep_idx) | U_EP_CTR_TX | U_EP_CTR_RX; // reserve CTR
 80053b0:	f897 303b 	ldrb.w	r3, [r7, #59]	@ 0x3b
 80053b4:	633b      	str	r3, [r7, #48]	@ 0x30
  return FSDEV_REG->ep[ep_id].reg;
 80053b6:	4a52      	ldr	r2, [pc, #328]	@ (8005500 <edpt_xfer+0x1a0>)
 80053b8:	6b3b      	ldr	r3, [r7, #48]	@ 0x30
 80053ba:	f832 3023 	ldrh.w	r3, [r2, r3, lsl #2]
 80053be:	b29b      	uxth	r3, r3
 80053c0:	f443 4300 	orr.w	r3, r3, #32768	@ 0x8000
 80053c4:	f043 0380 	orr.w	r3, r3, #128	@ 0x80
 80053c8:	60fb      	str	r3, [r7, #12]
    ep_reg &= U_EPREG_MASK | EP_STAT_MASK(dir);
 80053ca:	797b      	ldrb	r3, [r7, #5]
 80053cc:	2b01      	cmp	r3, #1
 80053ce:	d102      	bne.n	80053d6 <edpt_xfer+0x76>
 80053d0:	f648 72bf 	movw	r2, #36799	@ 0x8fbf
 80053d4:	e001      	b.n	80053da <edpt_xfer+0x7a>
 80053d6:	f64b 728f 	movw	r2, #49039	@ 0xbf8f
 80053da:	68fb      	ldr	r3, [r7, #12]
 80053dc:	4013      	ands	r3, r2
 80053de:	60fb      	str	r3, [r7, #12]

    uint16_t cnt = tu_min16(xfer->total_len, xfer->max_packet_size);
 80053e0:	6bfb      	ldr	r3, [r7, #60]	@ 0x3c
 80053e2:	891a      	ldrh	r2, [r3, #8]
 80053e4:	6bfb      	ldr	r3, [r7, #60]	@ 0x3c
 80053e6:	899b      	ldrh	r3, [r3, #12]
 80053e8:	857a      	strh	r2, [r7, #42]	@ 0x2a
 80053ea:	853b      	strh	r3, [r7, #40]	@ 0x28
 80053ec:	8d7a      	ldrh	r2, [r7, #42]	@ 0x2a
 80053ee:	8d3b      	ldrh	r3, [r7, #40]	@ 0x28
 80053f0:	4293      	cmp	r3, r2
 80053f2:	bf28      	it	cs
 80053f4:	4613      	movcs	r3, r2
 80053f6:	b29b      	uxth	r3, r3
 80053f8:	873b      	strh	r3, [r7, #56]	@ 0x38

  #if FSDEV_USE_SBUF_ISO == 0
    bool const dbl_buf = ep_is_iso(ep_reg);
 80053fa:	68fb      	ldr	r3, [r7, #12]
 80053fc:	62fb      	str	r3, [r7, #44]	@ 0x2c
  return (reg & U_EP_TYPE_MASK) == U_EP_ISOCHRONOUS;
 80053fe:	6afb      	ldr	r3, [r7, #44]	@ 0x2c
 8005400:	f403 63c0 	and.w	r3, r3, #1536	@ 0x600
 8005404:	f5b3 6f80 	cmp.w	r3, #1024	@ 0x400
 8005408:	bf0c      	ite	eq
 800540a:	2301      	moveq	r3, #1
 800540c:	2300      	movne	r3, #0
 800540e:	b2db      	uxtb	r3, r3
 8005410:	f887 3037 	strb.w	r3, [r7, #55]	@ 0x37
  #else
    bool const dbl_buf = false;
  #endif
    if (dbl_buf) {
 8005414:	f897 3037 	ldrb.w	r3, [r7, #55]	@ 0x37
 8005418:	2b00      	cmp	r3, #0
 800541a:	d00e      	beq.n	800543a <edpt_xfer+0xda>
      btable_set_rx_bufsize(ep_idx, 0, cnt);
 800541c:	f897 303b 	ldrb.w	r3, [r7, #59]	@ 0x3b
 8005420:	8f3a      	ldrh	r2, [r7, #56]	@ 0x38
 8005422:	2100      	movs	r1, #0
 8005424:	4618      	mov	r0, r3
 8005426:	f000 fb23 	bl	8005a70 <btable_set_rx_bufsize>
      btable_set_rx_bufsize(ep_idx, 1, cnt);
 800542a:	f897 303b 	ldrb.w	r3, [r7, #59]	@ 0x3b
 800542e:	8f3a      	ldrh	r2, [r7, #56]	@ 0x38
 8005430:	2101      	movs	r1, #1
 8005432:	4618      	mov	r0, r3
 8005434:	f000 fb1c 	bl	8005a70 <btable_set_rx_bufsize>
 8005438:	e006      	b.n	8005448 <edpt_xfer+0xe8>
    } else {
      btable_set_rx_bufsize(ep_idx, BTABLE_BUF_RX, cnt);
 800543a:	f897 303b 	ldrb.w	r3, [r7, #59]	@ 0x3b
 800543e:	8f3a      	ldrh	r2, [r7, #56]	@ 0x38
 8005440:	2101      	movs	r1, #1
 8005442:	4618      	mov	r0, r3
 8005444:	f000 fb14 	bl	8005a70 <btable_set_rx_bufsize>
 8005448:	f107 030c 	add.w	r3, r7, #12
 800544c:	617b      	str	r3, [r7, #20]
 800544e:	797b      	ldrb	r3, [r7, #5]
 8005450:	74fb      	strb	r3, [r7, #19]
 8005452:	2303      	movs	r3, #3
 8005454:	74bb      	strb	r3, [r7, #18]
  *reg ^= (state << (U_EPTX_STAT_Pos + (dir == TUSB_DIR_IN ? 0 : 8)));
 8005456:	697b      	ldr	r3, [r7, #20]
 8005458:	681b      	ldr	r3, [r3, #0]
 800545a:	7cb9      	ldrb	r1, [r7, #18]
 800545c:	7cfa      	ldrb	r2, [r7, #19]
 800545e:	2a01      	cmp	r2, #1
 8005460:	d101      	bne.n	8005466 <edpt_xfer+0x106>
 8005462:	2204      	movs	r2, #4
 8005464:	e000      	b.n	8005468 <edpt_xfer+0x108>
 8005466:	220c      	movs	r2, #12
 8005468:	fa01 f202 	lsl.w	r2, r1, r2
 800546c:	405a      	eors	r2, r3
 800546e:	697b      	ldr	r3, [r7, #20]
 8005470:	601a      	str	r2, [r3, #0]
}
 8005472:	bf00      	nop
    }

    ep_change_status(&ep_reg, dir, EP_STAT_VALID);
    ep_write(ep_idx, ep_reg, true);
 8005474:	f897 203b 	ldrb.w	r2, [r7, #59]	@ 0x3b
 8005478:	68fb      	ldr	r3, [r7, #12]
 800547a:	627a      	str	r2, [r7, #36]	@ 0x24
 800547c:	623b      	str	r3, [r7, #32]
 800547e:	2301      	movs	r3, #1
 8005480:	77fb      	strb	r3, [r7, #31]
  if (need_exclusive) {
 8005482:	7ffb      	ldrb	r3, [r7, #31]
 8005484:	2b00      	cmp	r3, #0
 8005486:	d011      	beq.n	80054ac <edpt_xfer+0x14c>
 8005488:	2300      	movs	r3, #0
 800548a:	77bb      	strb	r3, [r7, #30]
    for (uint8_t i = 0; i < FSDEV_IRQ_NUM; i++) {
 800548c:	2300      	movs	r3, #0
 800548e:	777b      	strb	r3, [r7, #29]
 8005490:	e008      	b.n	80054a4 <edpt_xfer+0x144>
      NVIC_DisableIRQ(fsdev_irq[i]);
 8005492:	7f7b      	ldrb	r3, [r7, #29]
 8005494:	4a1b      	ldr	r2, [pc, #108]	@ (8005504 <edpt_xfer+0x1a4>)
 8005496:	56d3      	ldrsb	r3, [r2, r3]
 8005498:	4618      	mov	r0, r3
 800549a:	f7fe fc39 	bl	8003d10 <__NVIC_DisableIRQ>
    for (uint8_t i = 0; i < FSDEV_IRQ_NUM; i++) {
 800549e:	7f7b      	ldrb	r3, [r7, #29]
 80054a0:	3301      	adds	r3, #1
 80054a2:	777b      	strb	r3, [r7, #29]
 80054a4:	7f7b      	ldrb	r3, [r7, #29]
 80054a6:	2b02      	cmp	r3, #2
 80054a8:	d9f3      	bls.n	8005492 <edpt_xfer+0x132>
}
 80054aa:	bf00      	nop
  FSDEV_REG->ep[ep_id].reg = (fsdev_bus_t)value;
 80054ac:	4a14      	ldr	r2, [pc, #80]	@ (8005500 <edpt_xfer+0x1a0>)
 80054ae:	6a3b      	ldr	r3, [r7, #32]
 80054b0:	b299      	uxth	r1, r3
 80054b2:	6a7b      	ldr	r3, [r7, #36]	@ 0x24
 80054b4:	f822 1023 	strh.w	r1, [r2, r3, lsl #2]
  if (need_exclusive) {
 80054b8:	7ffb      	ldrb	r3, [r7, #31]
 80054ba:	2b00      	cmp	r3, #0
 80054bc:	d017      	beq.n	80054ee <edpt_xfer+0x18e>
 80054be:	2300      	movs	r3, #0
 80054c0:	773b      	strb	r3, [r7, #28]
  __ASM volatile ("dsb 0xF":::"memory");
 80054c2:	f3bf 8f4f 	dsb	sy
}
 80054c6:	bf00      	nop
  __ASM volatile ("isb 0xF":::"memory");
 80054c8:	f3bf 8f6f 	isb	sy
}
 80054cc:	bf00      	nop
    for (uint8_t i = 0; i < FSDEV_IRQ_NUM; i++) {
 80054ce:	2300      	movs	r3, #0
 80054d0:	76fb      	strb	r3, [r7, #27]
 80054d2:	e008      	b.n	80054e6 <edpt_xfer+0x186>
      NVIC_EnableIRQ(fsdev_irq[i]);
 80054d4:	7efb      	ldrb	r3, [r7, #27]
 80054d6:	4a0b      	ldr	r2, [pc, #44]	@ (8005504 <edpt_xfer+0x1a4>)
 80054d8:	56d3      	ldrsb	r3, [r2, r3]
 80054da:	4618      	mov	r0, r3
 80054dc:	f7fe fbfc 	bl	8003cd8 <__NVIC_EnableIRQ>
    for (uint8_t i = 0; i < FSDEV_IRQ_NUM; i++) {
 80054e0:	7efb      	ldrb	r3, [r7, #27]
 80054e2:	3301      	adds	r3, #1
 80054e4:	76fb      	strb	r3, [r7, #27]
 80054e6:	7efb      	ldrb	r3, [r7, #27]
 80054e8:	2b02      	cmp	r3, #2
 80054ea:	d9f3      	bls.n	80054d4 <edpt_xfer+0x174>
}
 80054ec:	bf00      	nop
}
 80054ee:	bf00      	nop
  }

  return true;
 80054f0:	2301      	movs	r3, #1
}
 80054f2:	4618      	mov	r0, r3
 80054f4:	3740      	adds	r7, #64	@ 0x40
 80054f6:	46bd      	mov	sp, r7
 80054f8:	bd80      	pop	{r7, pc}
 80054fa:	bf00      	nop
 80054fc:	2000058c 	.word	0x2000058c
 8005500:	40005c00 	.word	0x40005c00
 8005504:	08007820 	.word	0x08007820

08005508 <dcd_edpt_xfer>:

bool dcd_edpt_xfer(uint8_t rhport, uint8_t ep_addr, uint8_t *buffer, uint16_t total_bytes, bool is_isr) {
 8005508:	b580      	push	{r7, lr}
 800550a:	b086      	sub	sp, #24
 800550c:	af00      	add	r7, sp, #0
 800550e:	603a      	str	r2, [r7, #0]
 8005510:	461a      	mov	r2, r3
 8005512:	4603      	mov	r3, r0
 8005514:	71fb      	strb	r3, [r7, #7]
 8005516:	460b      	mov	r3, r1
 8005518:	71bb      	strb	r3, [r7, #6]
 800551a:	4613      	mov	r3, r2
 800551c:	80bb      	strh	r3, [r7, #4]
 800551e:	79bb      	ldrb	r3, [r7, #6]
 8005520:	733b      	strb	r3, [r7, #12]
 8005522:	7b3b      	ldrb	r3, [r7, #12]
 8005524:	f003 030f 	and.w	r3, r3, #15
 8005528:	b2db      	uxtb	r3, r3
  (void)is_isr;
  const uint8_t    ep_num = tu_edpt_number(ep_addr);
 800552a:	75fb      	strb	r3, [r7, #23]
 800552c:	79bb      	ldrb	r3, [r7, #6]
 800552e:	737b      	strb	r3, [r7, #13]
  return (addr & TUSB_DIR_IN_MASK) ? TUSB_DIR_IN : TUSB_DIR_OUT;
 8005530:	7b7b      	ldrb	r3, [r7, #13]
 8005532:	09db      	lsrs	r3, r3, #7
 8005534:	b2db      	uxtb	r3, r3
  const tusb_dir_t dir    = tu_edpt_dir(ep_addr);
 8005536:	75bb      	strb	r3, [r7, #22]
 8005538:	7dfb      	ldrb	r3, [r7, #23]
 800553a:	73fb      	strb	r3, [r7, #15]
 800553c:	7dbb      	ldrb	r3, [r7, #22]
 800553e:	73bb      	strb	r3, [r7, #14]
  return &xfer_status[epnum][dir];
 8005540:	7bfa      	ldrb	r2, [r7, #15]
 8005542:	7bbb      	ldrb	r3, [r7, #14]
 8005544:	0052      	lsls	r2, r2, #1
 8005546:	4413      	add	r3, r2
 8005548:	011b      	lsls	r3, r3, #4
 800554a:	4a0d      	ldr	r2, [pc, #52]	@ (8005580 <dcd_edpt_xfer+0x78>)
 800554c:	4413      	add	r3, r2
  xfer_ctl_t      *xfer   = xfer_ctl_ptr(ep_num, dir);
 800554e:	613b      	str	r3, [r7, #16]

  xfer->buffer     = buffer;
 8005550:	693b      	ldr	r3, [r7, #16]
 8005552:	683a      	ldr	r2, [r7, #0]
 8005554:	601a      	str	r2, [r3, #0]
  xfer->ff         = NULL;
 8005556:	693b      	ldr	r3, [r7, #16]
 8005558:	2200      	movs	r2, #0
 800555a:	605a      	str	r2, [r3, #4]
  xfer->total_len  = total_bytes;
 800555c:	693b      	ldr	r3, [r7, #16]
 800555e:	88ba      	ldrh	r2, [r7, #4]
 8005560:	811a      	strh	r2, [r3, #8]
  xfer->queued_len = 0;
 8005562:	693b      	ldr	r3, [r7, #16]
 8005564:	2200      	movs	r2, #0
 8005566:	815a      	strh	r2, [r3, #10]

  return edpt_xfer(rhport, ep_num, dir);
 8005568:	7dba      	ldrb	r2, [r7, #22]
 800556a:	7df9      	ldrb	r1, [r7, #23]
 800556c:	79fb      	ldrb	r3, [r7, #7]
 800556e:	4618      	mov	r0, r3
 8005570:	f7ff fef6 	bl	8005360 <edpt_xfer>
 8005574:	4603      	mov	r3, r0
}
 8005576:	4618      	mov	r0, r3
 8005578:	3718      	adds	r7, #24
 800557a:	46bd      	mov	sp, r7
 800557c:	bd80      	pop	{r7, pc}
 800557e:	bf00      	nop
 8005580:	2000058c 	.word	0x2000058c

08005584 <dcd_edpt_xfer_fifo>:

bool dcd_edpt_xfer_fifo(uint8_t rhport, uint8_t ep_addr, tu_fifo_t *ff, uint16_t total_bytes, bool is_isr) {
 8005584:	b580      	push	{r7, lr}
 8005586:	b086      	sub	sp, #24
 8005588:	af00      	add	r7, sp, #0
 800558a:	603a      	str	r2, [r7, #0]
 800558c:	461a      	mov	r2, r3
 800558e:	4603      	mov	r3, r0
 8005590:	71fb      	strb	r3, [r7, #7]
 8005592:	460b      	mov	r3, r1
 8005594:	71bb      	strb	r3, [r7, #6]
 8005596:	4613      	mov	r3, r2
 8005598:	80bb      	strh	r3, [r7, #4]
 800559a:	79bb      	ldrb	r3, [r7, #6]
 800559c:	733b      	strb	r3, [r7, #12]
  return (uint8_t) (addr & TUSB_EPNUM_MASK);
 800559e:	7b3b      	ldrb	r3, [r7, #12]
 80055a0:	f003 030f 	and.w	r3, r3, #15
 80055a4:	b2db      	uxtb	r3, r3
  (void)is_isr;
  const uint8_t    ep_num = tu_edpt_number(ep_addr);
 80055a6:	75fb      	strb	r3, [r7, #23]
 80055a8:	79bb      	ldrb	r3, [r7, #6]
 80055aa:	737b      	strb	r3, [r7, #13]
  return (addr & TUSB_DIR_IN_MASK) ? TUSB_DIR_IN : TUSB_DIR_OUT;
 80055ac:	7b7b      	ldrb	r3, [r7, #13]
 80055ae:	09db      	lsrs	r3, r3, #7
 80055b0:	b2db      	uxtb	r3, r3
  const tusb_dir_t dir    = tu_edpt_dir(ep_addr);
 80055b2:	75bb      	strb	r3, [r7, #22]
 80055b4:	7dfb      	ldrb	r3, [r7, #23]
 80055b6:	73fb      	strb	r3, [r7, #15]
 80055b8:	7dbb      	ldrb	r3, [r7, #22]
 80055ba:	73bb      	strb	r3, [r7, #14]
  return &xfer_status[epnum][dir];
 80055bc:	7bfa      	ldrb	r2, [r7, #15]
 80055be:	7bbb      	ldrb	r3, [r7, #14]
 80055c0:	0052      	lsls	r2, r2, #1
 80055c2:	4413      	add	r3, r2
 80055c4:	011b      	lsls	r3, r3, #4
 80055c6:	4a0d      	ldr	r2, [pc, #52]	@ (80055fc <dcd_edpt_xfer_fifo+0x78>)
 80055c8:	4413      	add	r3, r2
  xfer_ctl_t      *xfer   = xfer_ctl_ptr(ep_num, dir);
 80055ca:	613b      	str	r3, [r7, #16]

  xfer->buffer     = NULL;
 80055cc:	693b      	ldr	r3, [r7, #16]
 80055ce:	2200      	movs	r2, #0
 80055d0:	601a      	str	r2, [r3, #0]
  xfer->ff         = ff;
 80055d2:	693b      	ldr	r3, [r7, #16]
 80055d4:	683a      	ldr	r2, [r7, #0]
 80055d6:	605a      	str	r2, [r3, #4]
  xfer->total_len  = total_bytes;
 80055d8:	693b      	ldr	r3, [r7, #16]
 80055da:	88ba      	ldrh	r2, [r7, #4]
 80055dc:	811a      	strh	r2, [r3, #8]
  xfer->queued_len = 0;
 80055de:	693b      	ldr	r3, [r7, #16]
 80055e0:	2200      	movs	r2, #0
 80055e2:	815a      	strh	r2, [r3, #10]

  return edpt_xfer(rhport, ep_num, dir);
 80055e4:	7dba      	ldrb	r2, [r7, #22]
 80055e6:	7df9      	ldrb	r1, [r7, #23]
 80055e8:	79fb      	ldrb	r3, [r7, #7]
 80055ea:	4618      	mov	r0, r3
 80055ec:	f7ff feb8 	bl	8005360 <edpt_xfer>
 80055f0:	4603      	mov	r3, r0
}
 80055f2:	4618      	mov	r0, r3
 80055f4:	3718      	adds	r7, #24
 80055f6:	46bd      	mov	sp, r7
 80055f8:	bd80      	pop	{r7, pc}
 80055fa:	bf00      	nop
 80055fc:	2000058c 	.word	0x2000058c

08005600 <dcd_edpt_stall>:

void dcd_edpt_stall(uint8_t rhport, uint8_t ep_addr) {
 8005600:	b580      	push	{r7, lr}
 8005602:	b08e      	sub	sp, #56	@ 0x38
 8005604:	af00      	add	r7, sp, #0
 8005606:	4603      	mov	r3, r0
 8005608:	460a      	mov	r2, r1
 800560a:	71fb      	strb	r3, [r7, #7]
 800560c:	4613      	mov	r3, r2
 800560e:	71bb      	strb	r3, [r7, #6]
 8005610:	79bb      	ldrb	r3, [r7, #6]
 8005612:	f887 3024 	strb.w	r3, [r7, #36]	@ 0x24
  return (uint8_t) (addr & TUSB_EPNUM_MASK);
 8005616:	f897 3024 	ldrb.w	r3, [r7, #36]	@ 0x24
 800561a:	f003 030f 	and.w	r3, r3, #15
 800561e:	b2db      	uxtb	r3, r3
  (void)rhport;
  const uint8_t    ep_num = tu_edpt_number(ep_addr);
 8005620:	f887 3037 	strb.w	r3, [r7, #55]	@ 0x37
 8005624:	79bb      	ldrb	r3, [r7, #6]
 8005626:	f887 3025 	strb.w	r3, [r7, #37]	@ 0x25
  return (addr & TUSB_DIR_IN_MASK) ? TUSB_DIR_IN : TUSB_DIR_OUT;
 800562a:	f897 3025 	ldrb.w	r3, [r7, #37]	@ 0x25
 800562e:	09db      	lsrs	r3, r3, #7
 8005630:	b2db      	uxtb	r3, r3
  const tusb_dir_t dir    = tu_edpt_dir(ep_addr);
 8005632:	f887 3036 	strb.w	r3, [r7, #54]	@ 0x36
 8005636:	f897 3037 	ldrb.w	r3, [r7, #55]	@ 0x37
 800563a:	f887 3027 	strb.w	r3, [r7, #39]	@ 0x27
 800563e:	f897 3036 	ldrb.w	r3, [r7, #54]	@ 0x36
 8005642:	f887 3026 	strb.w	r3, [r7, #38]	@ 0x26
  return &xfer_status[epnum][dir];
 8005646:	f897 2027 	ldrb.w	r2, [r7, #39]	@ 0x27
 800564a:	f897 3026 	ldrb.w	r3, [r7, #38]	@ 0x26
 800564e:	0052      	lsls	r2, r2, #1
 8005650:	4413      	add	r3, r2
 8005652:	011b      	lsls	r3, r3, #4
 8005654:	4a3c      	ldr	r2, [pc, #240]	@ (8005748 <dcd_edpt_stall+0x148>)
 8005656:	4413      	add	r3, r2
  xfer_ctl_t      *xfer   = xfer_ctl_ptr(ep_num, dir);
 8005658:	633b      	str	r3, [r7, #48]	@ 0x30
  const uint8_t    ep_idx = xfer->ep_idx;
 800565a:	6b3b      	ldr	r3, [r7, #48]	@ 0x30
 800565c:	7b9b      	ldrb	r3, [r3, #14]
 800565e:	f887 302f 	strb.w	r3, [r7, #47]	@ 0x2f

  uint32_t ep_reg = ep_read(ep_idx) | U_EP_CTR_TX | U_EP_CTR_RX; // reserve CTR bits
 8005662:	f897 302f 	ldrb.w	r3, [r7, #47]	@ 0x2f
 8005666:	62bb      	str	r3, [r7, #40]	@ 0x28
  return FSDEV_REG->ep[ep_id].reg;
 8005668:	4a38      	ldr	r2, [pc, #224]	@ (800574c <dcd_edpt_stall+0x14c>)
 800566a:	6abb      	ldr	r3, [r7, #40]	@ 0x28
 800566c:	f832 3023 	ldrh.w	r3, [r2, r3, lsl #2]
 8005670:	b29b      	uxth	r3, r3
 8005672:	f443 4300 	orr.w	r3, r3, #32768	@ 0x8000
 8005676:	f043 0380 	orr.w	r3, r3, #128	@ 0x80
 800567a:	60bb      	str	r3, [r7, #8]
  ep_reg &= U_EPREG_MASK | EP_STAT_MASK(dir);
 800567c:	f897 3036 	ldrb.w	r3, [r7, #54]	@ 0x36
 8005680:	2b01      	cmp	r3, #1
 8005682:	d102      	bne.n	800568a <dcd_edpt_stall+0x8a>
 8005684:	f648 72bf 	movw	r2, #36799	@ 0x8fbf
 8005688:	e001      	b.n	800568e <dcd_edpt_stall+0x8e>
 800568a:	f64b 728f 	movw	r2, #49039	@ 0xbf8f
 800568e:	68bb      	ldr	r3, [r7, #8]
 8005690:	4013      	ands	r3, r2
 8005692:	60bb      	str	r3, [r7, #8]
 8005694:	f107 0308 	add.w	r3, r7, #8
 8005698:	613b      	str	r3, [r7, #16]
 800569a:	f897 3036 	ldrb.w	r3, [r7, #54]	@ 0x36
 800569e:	73fb      	strb	r3, [r7, #15]
 80056a0:	2301      	movs	r3, #1
 80056a2:	73bb      	strb	r3, [r7, #14]
  *reg ^= (state << (U_EPTX_STAT_Pos + (dir == TUSB_DIR_IN ? 0 : 8)));
 80056a4:	693b      	ldr	r3, [r7, #16]
 80056a6:	681b      	ldr	r3, [r3, #0]
 80056a8:	7bb9      	ldrb	r1, [r7, #14]
 80056aa:	7bfa      	ldrb	r2, [r7, #15]
 80056ac:	2a01      	cmp	r2, #1
 80056ae:	d101      	bne.n	80056b4 <dcd_edpt_stall+0xb4>
 80056b0:	2204      	movs	r2, #4
 80056b2:	e000      	b.n	80056b6 <dcd_edpt_stall+0xb6>
 80056b4:	220c      	movs	r2, #12
 80056b6:	fa01 f202 	lsl.w	r2, r1, r2
 80056ba:	405a      	eors	r2, r3
 80056bc:	693b      	ldr	r3, [r7, #16]
 80056be:	601a      	str	r2, [r3, #0]
}
 80056c0:	bf00      	nop
  ep_change_status(&ep_reg, dir, EP_STAT_STALL);

  ep_write(ep_idx, ep_reg, true);
 80056c2:	f897 202f 	ldrb.w	r2, [r7, #47]	@ 0x2f
 80056c6:	68bb      	ldr	r3, [r7, #8]
 80056c8:	623a      	str	r2, [r7, #32]
 80056ca:	61fb      	str	r3, [r7, #28]
 80056cc:	2301      	movs	r3, #1
 80056ce:	76fb      	strb	r3, [r7, #27]
  if (need_exclusive) {
 80056d0:	7efb      	ldrb	r3, [r7, #27]
 80056d2:	2b00      	cmp	r3, #0
 80056d4:	d011      	beq.n	80056fa <dcd_edpt_stall+0xfa>
 80056d6:	2300      	movs	r3, #0
 80056d8:	76bb      	strb	r3, [r7, #26]
    for (uint8_t i = 0; i < FSDEV_IRQ_NUM; i++) {
 80056da:	2300      	movs	r3, #0
 80056dc:	767b      	strb	r3, [r7, #25]
 80056de:	e008      	b.n	80056f2 <dcd_edpt_stall+0xf2>
      NVIC_DisableIRQ(fsdev_irq[i]);
 80056e0:	7e7b      	ldrb	r3, [r7, #25]
 80056e2:	4a1b      	ldr	r2, [pc, #108]	@ (8005750 <dcd_edpt_stall+0x150>)
 80056e4:	56d3      	ldrsb	r3, [r2, r3]
 80056e6:	4618      	mov	r0, r3
 80056e8:	f7fe fb12 	bl	8003d10 <__NVIC_DisableIRQ>
    for (uint8_t i = 0; i < FSDEV_IRQ_NUM; i++) {
 80056ec:	7e7b      	ldrb	r3, [r7, #25]
 80056ee:	3301      	adds	r3, #1
 80056f0:	767b      	strb	r3, [r7, #25]
 80056f2:	7e7b      	ldrb	r3, [r7, #25]
 80056f4:	2b02      	cmp	r3, #2
 80056f6:	d9f3      	bls.n	80056e0 <dcd_edpt_stall+0xe0>
}
 80056f8:	bf00      	nop
  FSDEV_REG->ep[ep_id].reg = (fsdev_bus_t)value;
 80056fa:	4a14      	ldr	r2, [pc, #80]	@ (800574c <dcd_edpt_stall+0x14c>)
 80056fc:	69fb      	ldr	r3, [r7, #28]
 80056fe:	b299      	uxth	r1, r3
 8005700:	6a3b      	ldr	r3, [r7, #32]
 8005702:	f822 1023 	strh.w	r1, [r2, r3, lsl #2]
  if (need_exclusive) {
 8005706:	7efb      	ldrb	r3, [r7, #27]
 8005708:	2b00      	cmp	r3, #0
 800570a:	d017      	beq.n	800573c <dcd_edpt_stall+0x13c>
 800570c:	2300      	movs	r3, #0
 800570e:	763b      	strb	r3, [r7, #24]
  __ASM volatile ("dsb 0xF":::"memory");
 8005710:	f3bf 8f4f 	dsb	sy
}
 8005714:	bf00      	nop
  __ASM volatile ("isb 0xF":::"memory");
 8005716:	f3bf 8f6f 	isb	sy
}
 800571a:	bf00      	nop
    for (uint8_t i = 0; i < FSDEV_IRQ_NUM; i++) {
 800571c:	2300      	movs	r3, #0
 800571e:	75fb      	strb	r3, [r7, #23]
 8005720:	e008      	b.n	8005734 <dcd_edpt_stall+0x134>
      NVIC_EnableIRQ(fsdev_irq[i]);
 8005722:	7dfb      	ldrb	r3, [r7, #23]
 8005724:	4a0a      	ldr	r2, [pc, #40]	@ (8005750 <dcd_edpt_stall+0x150>)
 8005726:	56d3      	ldrsb	r3, [r2, r3]
 8005728:	4618      	mov	r0, r3
 800572a:	f7fe fad5 	bl	8003cd8 <__NVIC_EnableIRQ>
    for (uint8_t i = 0; i < FSDEV_IRQ_NUM; i++) {
 800572e:	7dfb      	ldrb	r3, [r7, #23]
 8005730:	3301      	adds	r3, #1
 8005732:	75fb      	strb	r3, [r7, #23]
 8005734:	7dfb      	ldrb	r3, [r7, #23]
 8005736:	2b02      	cmp	r3, #2
 8005738:	d9f3      	bls.n	8005722 <dcd_edpt_stall+0x122>
}
 800573a:	bf00      	nop
}
 800573c:	bf00      	nop
}
 800573e:	bf00      	nop
 8005740:	3738      	adds	r7, #56	@ 0x38
 8005742:	46bd      	mov	sp, r7
 8005744:	bd80      	pop	{r7, pc}
 8005746:	bf00      	nop
 8005748:	2000058c 	.word	0x2000058c
 800574c:	40005c00 	.word	0x40005c00
 8005750:	08007820 	.word	0x08007820

08005754 <dcd_edpt_clear_stall>:

void dcd_edpt_clear_stall(uint8_t rhport, uint8_t ep_addr) {
 8005754:	b580      	push	{r7, lr}
 8005756:	b092      	sub	sp, #72	@ 0x48
 8005758:	af00      	add	r7, sp, #0
 800575a:	4603      	mov	r3, r0
 800575c:	460a      	mov	r2, r1
 800575e:	71fb      	strb	r3, [r7, #7]
 8005760:	4613      	mov	r3, r2
 8005762:	71bb      	strb	r3, [r7, #6]
 8005764:	79bb      	ldrb	r3, [r7, #6]
 8005766:	f887 3034 	strb.w	r3, [r7, #52]	@ 0x34
  return (uint8_t) (addr & TUSB_EPNUM_MASK);
 800576a:	f897 3034 	ldrb.w	r3, [r7, #52]	@ 0x34
 800576e:	f003 030f 	and.w	r3, r3, #15
 8005772:	b2db      	uxtb	r3, r3
  (void)rhport;

  const uint8_t    ep_num = tu_edpt_number(ep_addr);
 8005774:	f887 3047 	strb.w	r3, [r7, #71]	@ 0x47
 8005778:	79bb      	ldrb	r3, [r7, #6]
 800577a:	f887 3035 	strb.w	r3, [r7, #53]	@ 0x35
  return (addr & TUSB_DIR_IN_MASK) ? TUSB_DIR_IN : TUSB_DIR_OUT;
 800577e:	f897 3035 	ldrb.w	r3, [r7, #53]	@ 0x35
 8005782:	09db      	lsrs	r3, r3, #7
 8005784:	b2db      	uxtb	r3, r3
  const tusb_dir_t dir    = tu_edpt_dir(ep_addr);
 8005786:	f887 3046 	strb.w	r3, [r7, #70]	@ 0x46
 800578a:	f897 3047 	ldrb.w	r3, [r7, #71]	@ 0x47
 800578e:	f887 3037 	strb.w	r3, [r7, #55]	@ 0x37
 8005792:	f897 3046 	ldrb.w	r3, [r7, #70]	@ 0x46
 8005796:	f887 3036 	strb.w	r3, [r7, #54]	@ 0x36
  return &xfer_status[epnum][dir];
 800579a:	f897 2037 	ldrb.w	r2, [r7, #55]	@ 0x37
 800579e:	f897 3036 	ldrb.w	r3, [r7, #54]	@ 0x36
 80057a2:	0052      	lsls	r2, r2, #1
 80057a4:	4413      	add	r3, r2
 80057a6:	011b      	lsls	r3, r3, #4
 80057a8:	4a56      	ldr	r2, [pc, #344]	@ (8005904 <dcd_edpt_clear_stall+0x1b0>)
 80057aa:	4413      	add	r3, r2
  xfer_ctl_t      *xfer   = xfer_ctl_ptr(ep_num, dir);
 80057ac:	643b      	str	r3, [r7, #64]	@ 0x40
  const uint8_t    ep_idx = xfer->ep_idx;
 80057ae:	6c3b      	ldr	r3, [r7, #64]	@ 0x40
 80057b0:	7b9b      	ldrb	r3, [r3, #14]
 80057b2:	f887 303f 	strb.w	r3, [r7, #63]	@ 0x3f

  uint32_t ep_reg = ep_read(ep_idx) | U_EP_CTR_TX | U_EP_CTR_RX; // reserve CTR bits
 80057b6:	f897 303f 	ldrb.w	r3, [r7, #63]	@ 0x3f
 80057ba:	63bb      	str	r3, [r7, #56]	@ 0x38
  return FSDEV_REG->ep[ep_id].reg;
 80057bc:	4a52      	ldr	r2, [pc, #328]	@ (8005908 <dcd_edpt_clear_stall+0x1b4>)
 80057be:	6bbb      	ldr	r3, [r7, #56]	@ 0x38
 80057c0:	f832 3023 	ldrh.w	r3, [r2, r3, lsl #2]
 80057c4:	b29b      	uxth	r3, r3
 80057c6:	f443 4300 	orr.w	r3, r3, #32768	@ 0x8000
 80057ca:	f043 0380 	orr.w	r3, r3, #128	@ 0x80
 80057ce:	60fb      	str	r3, [r7, #12]
  ep_reg &= U_EPREG_MASK | EP_STAT_MASK(dir) | EP_DTOG_MASK(dir);
 80057d0:	f897 3046 	ldrb.w	r3, [r7, #70]	@ 0x46
 80057d4:	2b01      	cmp	r3, #1
 80057d6:	d102      	bne.n	80057de <dcd_edpt_clear_stall+0x8a>
 80057d8:	f648 72bf 	movw	r2, #36799	@ 0x8fbf
 80057dc:	e001      	b.n	80057e2 <dcd_edpt_clear_stall+0x8e>
 80057de:	f64b 728f 	movw	r2, #49039	@ 0xbf8f
 80057e2:	f897 3046 	ldrb.w	r3, [r7, #70]	@ 0x46
 80057e6:	2b01      	cmp	r3, #1
 80057e8:	d101      	bne.n	80057ee <dcd_edpt_clear_stall+0x9a>
 80057ea:	2340      	movs	r3, #64	@ 0x40
 80057ec:	e001      	b.n	80057f2 <dcd_edpt_clear_stall+0x9e>
 80057ee:	f44f 4380 	mov.w	r3, #16384	@ 0x4000
 80057f2:	431a      	orrs	r2, r3
 80057f4:	68fb      	ldr	r3, [r7, #12]
 80057f6:	4013      	ands	r3, r2
 80057f8:	60fb      	str	r3, [r7, #12]

  if (!ep_is_iso(ep_reg)) {
 80057fa:	68fb      	ldr	r3, [r7, #12]
 80057fc:	633b      	str	r3, [r7, #48]	@ 0x30
  return (reg & U_EP_TYPE_MASK) == U_EP_ISOCHRONOUS;
 80057fe:	6b3b      	ldr	r3, [r7, #48]	@ 0x30
 8005800:	f403 63c0 	and.w	r3, r3, #1536	@ 0x600
 8005804:	f5b3 6f80 	cmp.w	r3, #1024	@ 0x400
 8005808:	bf0c      	ite	eq
 800580a:	2301      	moveq	r3, #1
 800580c:	2300      	movne	r3, #0
 800580e:	b2db      	uxtb	r3, r3
 8005810:	f083 0301 	eor.w	r3, r3, #1
 8005814:	b2db      	uxtb	r3, r3
 8005816:	2b00      	cmp	r3, #0
 8005818:	d01a      	beq.n	8005850 <dcd_edpt_clear_stall+0xfc>
 800581a:	f107 030c 	add.w	r3, r7, #12
 800581e:	62fb      	str	r3, [r7, #44]	@ 0x2c
 8005820:	f897 3046 	ldrb.w	r3, [r7, #70]	@ 0x46
 8005824:	f887 302b 	strb.w	r3, [r7, #43]	@ 0x2b
 8005828:	2302      	movs	r3, #2
 800582a:	f887 302a 	strb.w	r3, [r7, #42]	@ 0x2a
  *reg ^= (state << (U_EPTX_STAT_Pos + (dir == TUSB_DIR_IN ? 0 : 8)));
 800582e:	6afb      	ldr	r3, [r7, #44]	@ 0x2c
 8005830:	681b      	ldr	r3, [r3, #0]
 8005832:	f897 102a 	ldrb.w	r1, [r7, #42]	@ 0x2a
 8005836:	f897 202b 	ldrb.w	r2, [r7, #43]	@ 0x2b
 800583a:	2a01      	cmp	r2, #1
 800583c:	d101      	bne.n	8005842 <dcd_edpt_clear_stall+0xee>
 800583e:	2204      	movs	r2, #4
 8005840:	e000      	b.n	8005844 <dcd_edpt_clear_stall+0xf0>
 8005842:	220c      	movs	r2, #12
 8005844:	fa01 f202 	lsl.w	r2, r1, r2
 8005848:	405a      	eors	r2, r3
 800584a:	6afb      	ldr	r3, [r7, #44]	@ 0x2c
 800584c:	601a      	str	r2, [r3, #0]
}
 800584e:	bf00      	nop
 8005850:	f107 030c 	add.w	r3, r7, #12
 8005854:	617b      	str	r3, [r7, #20]
 8005856:	f897 3046 	ldrb.w	r3, [r7, #70]	@ 0x46
 800585a:	74fb      	strb	r3, [r7, #19]
 800585c:	2300      	movs	r3, #0
 800585e:	74bb      	strb	r3, [r7, #18]
  *reg ^= (state << (U_EP_DTOG_TX_Pos + (dir == TUSB_DIR_IN ? 0 : 8)));
 8005860:	697b      	ldr	r3, [r7, #20]
 8005862:	681b      	ldr	r3, [r3, #0]
 8005864:	7cb9      	ldrb	r1, [r7, #18]
 8005866:	7cfa      	ldrb	r2, [r7, #19]
 8005868:	2a01      	cmp	r2, #1
 800586a:	d101      	bne.n	8005870 <dcd_edpt_clear_stall+0x11c>
 800586c:	2206      	movs	r2, #6
 800586e:	e000      	b.n	8005872 <dcd_edpt_clear_stall+0x11e>
 8005870:	220e      	movs	r2, #14
 8005872:	fa01 f202 	lsl.w	r2, r1, r2
 8005876:	405a      	eors	r2, r3
 8005878:	697b      	ldr	r3, [r7, #20]
 800587a:	601a      	str	r2, [r3, #0]
}
 800587c:	bf00      	nop
    ep_change_status(&ep_reg, dir, EP_STAT_NAK);
  }
  ep_change_dtog(&ep_reg, dir, 0); // Reset to DATA0
  ep_write(ep_idx, ep_reg, true);
 800587e:	f897 203f 	ldrb.w	r2, [r7, #63]	@ 0x3f
 8005882:	68fb      	ldr	r3, [r7, #12]
 8005884:	627a      	str	r2, [r7, #36]	@ 0x24
 8005886:	623b      	str	r3, [r7, #32]
 8005888:	2301      	movs	r3, #1
 800588a:	77fb      	strb	r3, [r7, #31]
  if (need_exclusive) {
 800588c:	7ffb      	ldrb	r3, [r7, #31]
 800588e:	2b00      	cmp	r3, #0
 8005890:	d011      	beq.n	80058b6 <dcd_edpt_clear_stall+0x162>
 8005892:	2300      	movs	r3, #0
 8005894:	77bb      	strb	r3, [r7, #30]
    for (uint8_t i = 0; i < FSDEV_IRQ_NUM; i++) {
 8005896:	2300      	movs	r3, #0
 8005898:	777b      	strb	r3, [r7, #29]
 800589a:	e008      	b.n	80058ae <dcd_edpt_clear_stall+0x15a>
      NVIC_DisableIRQ(fsdev_irq[i]);
 800589c:	7f7b      	ldrb	r3, [r7, #29]
 800589e:	4a1b      	ldr	r2, [pc, #108]	@ (800590c <dcd_edpt_clear_stall+0x1b8>)
 80058a0:	56d3      	ldrsb	r3, [r2, r3]
 80058a2:	4618      	mov	r0, r3
 80058a4:	f7fe fa34 	bl	8003d10 <__NVIC_DisableIRQ>
    for (uint8_t i = 0; i < FSDEV_IRQ_NUM; i++) {
 80058a8:	7f7b      	ldrb	r3, [r7, #29]
 80058aa:	3301      	adds	r3, #1
 80058ac:	777b      	strb	r3, [r7, #29]
 80058ae:	7f7b      	ldrb	r3, [r7, #29]
 80058b0:	2b02      	cmp	r3, #2
 80058b2:	d9f3      	bls.n	800589c <dcd_edpt_clear_stall+0x148>
}
 80058b4:	bf00      	nop
  FSDEV_REG->ep[ep_id].reg = (fsdev_bus_t)value;
 80058b6:	4a14      	ldr	r2, [pc, #80]	@ (8005908 <dcd_edpt_clear_stall+0x1b4>)
 80058b8:	6a3b      	ldr	r3, [r7, #32]
 80058ba:	b299      	uxth	r1, r3
 80058bc:	6a7b      	ldr	r3, [r7, #36]	@ 0x24
 80058be:	f822 1023 	strh.w	r1, [r2, r3, lsl #2]
  if (need_exclusive) {
 80058c2:	7ffb      	ldrb	r3, [r7, #31]
 80058c4:	2b00      	cmp	r3, #0
 80058c6:	d017      	beq.n	80058f8 <dcd_edpt_clear_stall+0x1a4>
 80058c8:	2300      	movs	r3, #0
 80058ca:	773b      	strb	r3, [r7, #28]
  __ASM volatile ("dsb 0xF":::"memory");
 80058cc:	f3bf 8f4f 	dsb	sy
}
 80058d0:	bf00      	nop
  __ASM volatile ("isb 0xF":::"memory");
 80058d2:	f3bf 8f6f 	isb	sy
}
 80058d6:	bf00      	nop
    for (uint8_t i = 0; i < FSDEV_IRQ_NUM; i++) {
 80058d8:	2300      	movs	r3, #0
 80058da:	76fb      	strb	r3, [r7, #27]
 80058dc:	e008      	b.n	80058f0 <dcd_edpt_clear_stall+0x19c>
      NVIC_EnableIRQ(fsdev_irq[i]);
 80058de:	7efb      	ldrb	r3, [r7, #27]
 80058e0:	4a0a      	ldr	r2, [pc, #40]	@ (800590c <dcd_edpt_clear_stall+0x1b8>)
 80058e2:	56d3      	ldrsb	r3, [r2, r3]
 80058e4:	4618      	mov	r0, r3
 80058e6:	f7fe f9f7 	bl	8003cd8 <__NVIC_EnableIRQ>
    for (uint8_t i = 0; i < FSDEV_IRQ_NUM; i++) {
 80058ea:	7efb      	ldrb	r3, [r7, #27]
 80058ec:	3301      	adds	r3, #1
 80058ee:	76fb      	strb	r3, [r7, #27]
 80058f0:	7efb      	ldrb	r3, [r7, #27]
 80058f2:	2b02      	cmp	r3, #2
 80058f4:	d9f3      	bls.n	80058de <dcd_edpt_clear_stall+0x18a>
}
 80058f6:	bf00      	nop
}
 80058f8:	bf00      	nop
}
 80058fa:	bf00      	nop
 80058fc:	3748      	adds	r7, #72	@ 0x48
 80058fe:	46bd      	mov	sp, r7
 8005900:	bd80      	pop	{r7, pc}
 8005902:	bf00      	nop
 8005904:	2000058c 	.word	0x2000058c
 8005908:	40005c00 	.word	0x40005c00
 800590c:	08007820 	.word	0x08007820

08005910 <dcd_int_enable>:

void dcd_int_enable(uint8_t rhport) {
 8005910:	b580      	push	{r7, lr}
 8005912:	b084      	sub	sp, #16
 8005914:	af00      	add	r7, sp, #0
 8005916:	4603      	mov	r3, r0
 8005918:	71fb      	strb	r3, [r7, #7]
 800591a:	79fb      	ldrb	r3, [r7, #7]
 800591c:	73fb      	strb	r3, [r7, #15]
  __ASM volatile ("dsb 0xF":::"memory");
 800591e:	f3bf 8f4f 	dsb	sy
}
 8005922:	bf00      	nop
  __ASM volatile ("isb 0xF":::"memory");
 8005924:	f3bf 8f6f 	isb	sy
}
 8005928:	bf00      	nop
    for (uint8_t i = 0; i < FSDEV_IRQ_NUM; i++) {
 800592a:	2300      	movs	r3, #0
 800592c:	73bb      	strb	r3, [r7, #14]
 800592e:	e008      	b.n	8005942 <dcd_int_enable+0x32>
      NVIC_EnableIRQ(fsdev_irq[i]);
 8005930:	7bbb      	ldrb	r3, [r7, #14]
 8005932:	4a08      	ldr	r2, [pc, #32]	@ (8005954 <dcd_int_enable+0x44>)
 8005934:	56d3      	ldrsb	r3, [r2, r3]
 8005936:	4618      	mov	r0, r3
 8005938:	f7fe f9ce 	bl	8003cd8 <__NVIC_EnableIRQ>
    for (uint8_t i = 0; i < FSDEV_IRQ_NUM; i++) {
 800593c:	7bbb      	ldrb	r3, [r7, #14]
 800593e:	3301      	adds	r3, #1
 8005940:	73bb      	strb	r3, [r7, #14]
 8005942:	7bbb      	ldrb	r3, [r7, #14]
 8005944:	2b02      	cmp	r3, #2
 8005946:	d9f3      	bls.n	8005930 <dcd_int_enable+0x20>
}
 8005948:	bf00      	nop
  fsdev_int_enable(rhport);
}
 800594a:	bf00      	nop
 800594c:	3710      	adds	r7, #16
 800594e:	46bd      	mov	sp, r7
 8005950:	bd80      	pop	{r7, pc}
 8005952:	bf00      	nop
 8005954:	08007820 	.word	0x08007820

08005958 <dcd_int_disable>:

void dcd_int_disable(uint8_t rhport) {
 8005958:	b580      	push	{r7, lr}
 800595a:	b084      	sub	sp, #16
 800595c:	af00      	add	r7, sp, #0
 800595e:	4603      	mov	r3, r0
 8005960:	71fb      	strb	r3, [r7, #7]
 8005962:	79fb      	ldrb	r3, [r7, #7]
 8005964:	73fb      	strb	r3, [r7, #15]
    for (uint8_t i = 0; i < FSDEV_IRQ_NUM; i++) {
 8005966:	2300      	movs	r3, #0
 8005968:	73bb      	strb	r3, [r7, #14]
 800596a:	e008      	b.n	800597e <dcd_int_disable+0x26>
      NVIC_DisableIRQ(fsdev_irq[i]);
 800596c:	7bbb      	ldrb	r3, [r7, #14]
 800596e:	4a08      	ldr	r2, [pc, #32]	@ (8005990 <dcd_int_disable+0x38>)
 8005970:	56d3      	ldrsb	r3, [r2, r3]
 8005972:	4618      	mov	r0, r3
 8005974:	f7fe f9cc 	bl	8003d10 <__NVIC_DisableIRQ>
    for (uint8_t i = 0; i < FSDEV_IRQ_NUM; i++) {
 8005978:	7bbb      	ldrb	r3, [r7, #14]
 800597a:	3301      	adds	r3, #1
 800597c:	73bb      	strb	r3, [r7, #14]
 800597e:	7bbb      	ldrb	r3, [r7, #14]
 8005980:	2b02      	cmp	r3, #2
 8005982:	d9f3      	bls.n	800596c <dcd_int_disable+0x14>
}
 8005984:	bf00      	nop
  fsdev_int_disable(rhport);
}
 8005986:	bf00      	nop
 8005988:	3710      	adds	r7, #16
 800598a:	46bd      	mov	sp, r7
 800598c:	bd80      	pop	{r7, pc}
 800598e:	bf00      	nop
 8005990:	08007820 	.word	0x08007820

08005994 <fsdev_core_reset>:
//--------------------------------------------------------------------+
// Global
//--------------------------------------------------------------------+

// Reset the USB Core
void fsdev_core_reset(void) {
 8005994:	b480      	push	{r7}
 8005996:	b083      	sub	sp, #12
 8005998:	af00      	add	r7, sp, #0
  // Perform USB peripheral reset
  FSDEV_REG->CNTR = U_CNTR_FRES | U_CNTR_PDWN;
 800599a:	4b15      	ldr	r3, [pc, #84]	@ (80059f0 <fsdev_core_reset+0x5c>)
 800599c:	2203      	movs	r2, #3
 800599e:	f8a3 2040 	strh.w	r2, [r3, #64]	@ 0x40
  for (volatile uint32_t i = 0; i < 200; i++) { // should be a few us
 80059a2:	2300      	movs	r3, #0
 80059a4:	607b      	str	r3, [r7, #4]
 80059a6:	e003      	b.n	80059b0 <fsdev_core_reset+0x1c>
    asm("NOP");
 80059a8:	bf00      	nop
  for (volatile uint32_t i = 0; i < 200; i++) { // should be a few us
 80059aa:	687b      	ldr	r3, [r7, #4]
 80059ac:	3301      	adds	r3, #1
 80059ae:	607b      	str	r3, [r7, #4]
 80059b0:	687b      	ldr	r3, [r7, #4]
 80059b2:	2bc7      	cmp	r3, #199	@ 0xc7
 80059b4:	d9f8      	bls.n	80059a8 <fsdev_core_reset+0x14>
  }

  FSDEV_REG->CNTR &= ~U_CNTR_PDWN;
 80059b6:	4b0e      	ldr	r3, [pc, #56]	@ (80059f0 <fsdev_core_reset+0x5c>)
 80059b8:	f8b3 3040 	ldrh.w	r3, [r3, #64]	@ 0x40
 80059bc:	b29b      	uxth	r3, r3
 80059be:	4a0c      	ldr	r2, [pc, #48]	@ (80059f0 <fsdev_core_reset+0x5c>)
 80059c0:	f023 0302 	bic.w	r3, r3, #2
 80059c4:	b29b      	uxth	r3, r3
 80059c6:	f8a2 3040 	strh.w	r3, [r2, #64]	@ 0x40

  // Wait startup time, for F042 and F070, this is <= 1 us.
  for (volatile uint32_t i = 0; i < 200; i++) { // should be a few us
 80059ca:	2300      	movs	r3, #0
 80059cc:	603b      	str	r3, [r7, #0]
 80059ce:	e003      	b.n	80059d8 <fsdev_core_reset+0x44>
    asm("NOP");
 80059d0:	bf00      	nop
  for (volatile uint32_t i = 0; i < 200; i++) { // should be a few us
 80059d2:	683b      	ldr	r3, [r7, #0]
 80059d4:	3301      	adds	r3, #1
 80059d6:	603b      	str	r3, [r7, #0]
 80059d8:	683b      	ldr	r3, [r7, #0]
 80059da:	2bc7      	cmp	r3, #199	@ 0xc7
 80059dc:	d9f8      	bls.n	80059d0 <fsdev_core_reset+0x3c>
  }

  // Clear pending interrupts
  FSDEV_REG->ISTR = 0;
 80059de:	4b04      	ldr	r3, [pc, #16]	@ (80059f0 <fsdev_core_reset+0x5c>)
 80059e0:	2200      	movs	r2, #0
 80059e2:	f8a3 2044 	strh.w	r2, [r3, #68]	@ 0x44
}
 80059e6:	bf00      	nop
 80059e8:	370c      	adds	r7, #12
 80059ea:	46bd      	mov	sp, r7
 80059ec:	bc80      	pop	{r7}
 80059ee:	4770      	bx	lr
 80059f0:	40005c00 	.word	0x40005c00

080059f4 <pma_align_buffer_size>:
//--------------------------------------------------------------------+
// BTable Helper
//--------------------------------------------------------------------+

// Aligned buffer size according to hardware
uint16_t pma_align_buffer_size(uint16_t size, uint8_t* blsize, uint8_t* num_block) {
 80059f4:	b480      	push	{r7}
 80059f6:	b08b      	sub	sp, #44	@ 0x2c
 80059f8:	af00      	add	r7, sp, #0
 80059fa:	4603      	mov	r3, r0
 80059fc:	60b9      	str	r1, [r7, #8]
 80059fe:	607a      	str	r2, [r7, #4]
 8005a00:	81fb      	strh	r3, [r7, #14]
  /* The STM32 full speed USB peripheral supports only a limited set of
   * buffer sizes given by the RX buffer entry format in the USB_BTABLE. */
  uint16_t block_in_bytes;
  if (size > 62) {
 8005a02:	89fb      	ldrh	r3, [r7, #14]
 8005a04:	2b3e      	cmp	r3, #62	@ 0x3e
 8005a06:	d913      	bls.n	8005a30 <pma_align_buffer_size+0x3c>
    block_in_bytes = 32;
 8005a08:	2320      	movs	r3, #32
 8005a0a:	84fb      	strh	r3, [r7, #38]	@ 0x26
    *blsize = 1;
 8005a0c:	68bb      	ldr	r3, [r7, #8]
 8005a0e:	2201      	movs	r2, #1
 8005a10:	701a      	strb	r2, [r3, #0]
    *num_block = tu_div_ceil(size, 32);
 8005a12:	89fb      	ldrh	r3, [r7, #14]
 8005a14:	623b      	str	r3, [r7, #32]
 8005a16:	2320      	movs	r3, #32
 8005a18:	61fb      	str	r3, [r7, #28]
TU_ATTR_ALWAYS_INLINE static inline uint32_t tu_div_ceil(uint32_t v, uint32_t d) { return TU_DIV_CEIL(v, d); }
 8005a1a:	6a3a      	ldr	r2, [r7, #32]
 8005a1c:	69fb      	ldr	r3, [r7, #28]
 8005a1e:	4413      	add	r3, r2
 8005a20:	1e5a      	subs	r2, r3, #1
 8005a22:	69fb      	ldr	r3, [r7, #28]
 8005a24:	fbb2 f3f3 	udiv	r3, r2, r3
 8005a28:	b2da      	uxtb	r2, r3
 8005a2a:	687b      	ldr	r3, [r7, #4]
 8005a2c:	701a      	strb	r2, [r3, #0]
 8005a2e:	e012      	b.n	8005a56 <pma_align_buffer_size+0x62>
  } else {
    block_in_bytes = 2;
 8005a30:	2302      	movs	r3, #2
 8005a32:	84fb      	strh	r3, [r7, #38]	@ 0x26
    *blsize = 0;
 8005a34:	68bb      	ldr	r3, [r7, #8]
 8005a36:	2200      	movs	r2, #0
 8005a38:	701a      	strb	r2, [r3, #0]
    *num_block = tu_div_ceil(size, 2);
 8005a3a:	89fb      	ldrh	r3, [r7, #14]
 8005a3c:	61bb      	str	r3, [r7, #24]
 8005a3e:	2302      	movs	r3, #2
 8005a40:	617b      	str	r3, [r7, #20]
 8005a42:	69ba      	ldr	r2, [r7, #24]
 8005a44:	697b      	ldr	r3, [r7, #20]
 8005a46:	4413      	add	r3, r2
 8005a48:	1e5a      	subs	r2, r3, #1
 8005a4a:	697b      	ldr	r3, [r7, #20]
 8005a4c:	fbb2 f3f3 	udiv	r3, r2, r3
 8005a50:	b2da      	uxtb	r2, r3
 8005a52:	687b      	ldr	r3, [r7, #4]
 8005a54:	701a      	strb	r2, [r3, #0]
  }

  return (*num_block) * block_in_bytes;
 8005a56:	687b      	ldr	r3, [r7, #4]
 8005a58:	781b      	ldrb	r3, [r3, #0]
 8005a5a:	461a      	mov	r2, r3
 8005a5c:	8cfb      	ldrh	r3, [r7, #38]	@ 0x26
 8005a5e:	fb02 f303 	mul.w	r3, r2, r3
 8005a62:	b29b      	uxth	r3, r3
}
 8005a64:	4618      	mov	r0, r3
 8005a66:	372c      	adds	r7, #44	@ 0x2c
 8005a68:	46bd      	mov	sp, r7
 8005a6a:	bc80      	pop	{r7}
 8005a6c:	4770      	bx	lr
	...

08005a70 <btable_set_rx_bufsize>:

// Set RX buffer size
void btable_set_rx_bufsize(uint32_t ep_id, uint8_t buf_id, uint16_t wCount) {
 8005a70:	b580      	push	{r7, lr}
 8005a72:	b084      	sub	sp, #16
 8005a74:	af00      	add	r7, sp, #0
 8005a76:	6078      	str	r0, [r7, #4]
 8005a78:	460b      	mov	r3, r1
 8005a7a:	70fb      	strb	r3, [r7, #3]
 8005a7c:	4613      	mov	r3, r2
 8005a7e:	803b      	strh	r3, [r7, #0]
  uint8_t blsize, num_block;
  (void) pma_align_buffer_size(wCount, &blsize, &num_block);
 8005a80:	f107 020c 	add.w	r2, r7, #12
 8005a84:	f107 010d 	add.w	r1, r7, #13
 8005a88:	883b      	ldrh	r3, [r7, #0]
 8005a8a:	4618      	mov	r0, r3
 8005a8c:	f7ff ffb2 	bl	80059f4 <pma_align_buffer_size>

  /* Encode into register. When BLSIZE==1, we need to subtract 1 block count */
  uint16_t bl_nb = (blsize << 15) | ((num_block - blsize) << 10);
 8005a90:	7b7b      	ldrb	r3, [r7, #13]
 8005a92:	b21b      	sxth	r3, r3
 8005a94:	03db      	lsls	r3, r3, #15
 8005a96:	b21a      	sxth	r2, r3
 8005a98:	7b3b      	ldrb	r3, [r7, #12]
 8005a9a:	4619      	mov	r1, r3
 8005a9c:	7b7b      	ldrb	r3, [r7, #13]
 8005a9e:	1acb      	subs	r3, r1, r3
 8005aa0:	b21b      	sxth	r3, r3
 8005aa2:	029b      	lsls	r3, r3, #10
 8005aa4:	b21b      	sxth	r3, r3
 8005aa6:	4313      	orrs	r3, r2
 8005aa8:	b21b      	sxth	r3, r3
 8005aaa:	81fb      	strh	r3, [r7, #14]
  if (bl_nb == 0) {
 8005aac:	89fb      	ldrh	r3, [r7, #14]
 8005aae:	2b00      	cmp	r3, #0
 8005ab0:	d102      	bne.n	8005ab8 <btable_set_rx_bufsize+0x48>
    // zlp but 0 is invalid value, set blsize to 1 (32 bytes)
    // Note: lower value can cause PMAOVR on setup with ch32v203
    bl_nb = 1 << 15;
 8005ab2:	f44f 4300 	mov.w	r3, #32768	@ 0x8000
 8005ab6:	81fb      	strh	r3, [r7, #14]
#ifdef  CFG_TUSB_FSDEV_32BIT
  uint32_t count_addr = FSDEV_BTABLE->ep32[ep_id][buf_id].count_addr;
  count_addr = (bl_nb << 16) | (count_addr & 0x0000FFFFu);
  FSDEV_BTABLE->ep32[ep_id][buf_id].count_addr = count_addr;
#else
  FSDEV_BTABLE->ep16[ep_id][buf_id].count = bl_nb;
 8005ab8:	4906      	ldr	r1, [pc, #24]	@ (8005ad4 <btable_set_rx_bufsize+0x64>)
 8005aba:	78fb      	ldrb	r3, [r7, #3]
 8005abc:	687a      	ldr	r2, [r7, #4]
 8005abe:	0052      	lsls	r2, r2, #1
 8005ac0:	4413      	add	r3, r2
 8005ac2:	00db      	lsls	r3, r3, #3
 8005ac4:	440b      	add	r3, r1
 8005ac6:	89fa      	ldrh	r2, [r7, #14]
 8005ac8:	809a      	strh	r2, [r3, #4]
#endif
}
 8005aca:	bf00      	nop
 8005acc:	3710      	adds	r7, #16
 8005ace:	46bd      	mov	sp, r7
 8005ad0:	bd80      	pop	{r7, pc}
 8005ad2:	bf00      	nop
 8005ad4:	40006000 	.word	0x40006000

08005ad8 <tusb_rhport_init>:
}

//--------------------------------------------------------------------+
// Public API
//--------------------------------------------------------------------+
bool tusb_rhport_init(uint8_t rhport, const tusb_rhport_init_t* rh_init) {
 8005ad8:	b580      	push	{r7, lr}
 8005ada:	b084      	sub	sp, #16
 8005adc:	af00      	add	r7, sp, #0
 8005ade:	4603      	mov	r3, r0
 8005ae0:	6039      	str	r1, [r7, #0]
 8005ae2:	71fb      	strb	r3, [r7, #7]
    return true;
  }
  #endif

  // new API with explicit rhport and role
  TU_ASSERT(rhport < TUP_USBIP_CONTROLLER_NUM && rh_init->role != TUSB_ROLE_INVALID);
 8005ae4:	79fb      	ldrb	r3, [r7, #7]
 8005ae6:	2b01      	cmp	r3, #1
 8005ae8:	d803      	bhi.n	8005af2 <tusb_rhport_init+0x1a>
 8005aea:	683b      	ldr	r3, [r7, #0]
 8005aec:	781b      	ldrb	r3, [r3, #0]
 8005aee:	2b00      	cmp	r3, #0
 8005af0:	d10a      	bne.n	8005b08 <tusb_rhport_init+0x30>
 8005af2:	4b17      	ldr	r3, [pc, #92]	@ (8005b50 <tusb_rhport_init+0x78>)
 8005af4:	60bb      	str	r3, [r7, #8]
 8005af6:	68bb      	ldr	r3, [r7, #8]
 8005af8:	681b      	ldr	r3, [r3, #0]
 8005afa:	f003 0301 	and.w	r3, r3, #1
 8005afe:	2b00      	cmp	r3, #0
 8005b00:	d000      	beq.n	8005b04 <tusb_rhport_init+0x2c>
 8005b02:	be00      	bkpt	0x0000
 8005b04:	2300      	movs	r3, #0
 8005b06:	e01f      	b.n	8005b48 <tusb_rhport_init+0x70>
  _tusb_rhport_role[rhport] = rh_init->role;
 8005b08:	79fb      	ldrb	r3, [r7, #7]
 8005b0a:	683a      	ldr	r2, [r7, #0]
 8005b0c:	7811      	ldrb	r1, [r2, #0]
 8005b0e:	4a11      	ldr	r2, [pc, #68]	@ (8005b54 <tusb_rhport_init+0x7c>)
 8005b10:	54d1      	strb	r1, [r2, r3]

  #if CFG_TUD_ENABLED
  if (rh_init->role == TUSB_ROLE_DEVICE) {
 8005b12:	683b      	ldr	r3, [r7, #0]
 8005b14:	781b      	ldrb	r3, [r3, #0]
 8005b16:	2b01      	cmp	r3, #1
 8005b18:	d115      	bne.n	8005b46 <tusb_rhport_init+0x6e>
    TU_ASSERT(tud_rhport_init(rhport, rh_init));
 8005b1a:	79fb      	ldrb	r3, [r7, #7]
 8005b1c:	6839      	ldr	r1, [r7, #0]
 8005b1e:	4618      	mov	r0, r3
 8005b20:	f7fc f984 	bl	8001e2c <tud_rhport_init>
 8005b24:	4603      	mov	r3, r0
 8005b26:	f083 0301 	eor.w	r3, r3, #1
 8005b2a:	b2db      	uxtb	r3, r3
 8005b2c:	2b00      	cmp	r3, #0
 8005b2e:	d00a      	beq.n	8005b46 <tusb_rhport_init+0x6e>
 8005b30:	4b07      	ldr	r3, [pc, #28]	@ (8005b50 <tusb_rhport_init+0x78>)
 8005b32:	60fb      	str	r3, [r7, #12]
 8005b34:	68fb      	ldr	r3, [r7, #12]
 8005b36:	681b      	ldr	r3, [r3, #0]
 8005b38:	f003 0301 	and.w	r3, r3, #1
 8005b3c:	2b00      	cmp	r3, #0
 8005b3e:	d000      	beq.n	8005b42 <tusb_rhport_init+0x6a>
 8005b40:	be00      	bkpt	0x0000
 8005b42:	2300      	movs	r3, #0
 8005b44:	e000      	b.n	8005b48 <tusb_rhport_init+0x70>
  if (rh_init->role == TUSB_ROLE_HOST) {
    TU_ASSERT(tuh_rhport_init(rhport, rh_init));
  }
  #endif

  return true;
 8005b46:	2301      	movs	r3, #1
}
 8005b48:	4618      	mov	r0, r3
 8005b4a:	3710      	adds	r7, #16
 8005b4c:	46bd      	mov	sp, r7
 8005b4e:	bd80      	pop	{r7, pc}
 8005b50:	e000edf0 	.word	0xe000edf0
 8005b54:	200006b0 	.word	0x200006b0

08005b58 <tu_edpt_claim>:

//--------------------------------------------------------------------+
// Endpoint Helper for both Host and Device stack
//--------------------------------------------------------------------+

bool tu_edpt_claim(tu_edpt_state_t* ep_state, osal_mutex_t mutex) {
 8005b58:	b480      	push	{r7}
 8005b5a:	b085      	sub	sp, #20
 8005b5c:	af00      	add	r7, sp, #0
 8005b5e:	6078      	str	r0, [r7, #4]
 8005b60:	6039      	str	r1, [r7, #0]
  (void) mutex;

  // pre-check to help reducing mutex lock
  TU_VERIFY(ep_state->busy == 0);
 8005b62:	687b      	ldr	r3, [r7, #4]
 8005b64:	781b      	ldrb	r3, [r3, #0]
 8005b66:	f3c3 0300 	ubfx	r3, r3, #0, #1
 8005b6a:	b2db      	uxtb	r3, r3
 8005b6c:	2b00      	cmp	r3, #0
 8005b6e:	d001      	beq.n	8005b74 <tu_edpt_claim+0x1c>
 8005b70:	2300      	movs	r3, #0
 8005b72:	e027      	b.n	8005bc4 <tu_edpt_claim+0x6c>
  TU_VERIFY(ep_state->claimed == 0);
 8005b74:	687b      	ldr	r3, [r7, #4]
 8005b76:	781b      	ldrb	r3, [r3, #0]
 8005b78:	f3c3 0380 	ubfx	r3, r3, #2, #1
 8005b7c:	b2db      	uxtb	r3, r3
 8005b7e:	2b00      	cmp	r3, #0
 8005b80:	d001      	beq.n	8005b86 <tu_edpt_claim+0x2e>
 8005b82:	2300      	movs	r3, #0
 8005b84:	e01e      	b.n	8005bc4 <tu_edpt_claim+0x6c>
  (void) osal_mutex_lock(mutex, OSAL_TIMEOUT_WAIT_FOREVER);

  // can only claim the endpoint if it is not busy and not claimed yet.
  bool const available = (ep_state->busy == 0) && (ep_state->claimed == 0);
 8005b86:	687b      	ldr	r3, [r7, #4]
 8005b88:	781b      	ldrb	r3, [r3, #0]
 8005b8a:	f3c3 0300 	ubfx	r3, r3, #0, #1
 8005b8e:	b2db      	uxtb	r3, r3
 8005b90:	2b00      	cmp	r3, #0
 8005b92:	d108      	bne.n	8005ba6 <tu_edpt_claim+0x4e>
 8005b94:	687b      	ldr	r3, [r7, #4]
 8005b96:	781b      	ldrb	r3, [r3, #0]
 8005b98:	f3c3 0380 	ubfx	r3, r3, #2, #1
 8005b9c:	b2db      	uxtb	r3, r3
 8005b9e:	2b00      	cmp	r3, #0
 8005ba0:	d101      	bne.n	8005ba6 <tu_edpt_claim+0x4e>
 8005ba2:	2301      	movs	r3, #1
 8005ba4:	e000      	b.n	8005ba8 <tu_edpt_claim+0x50>
 8005ba6:	2300      	movs	r3, #0
 8005ba8:	73fb      	strb	r3, [r7, #15]
 8005baa:	7bfb      	ldrb	r3, [r7, #15]
 8005bac:	f003 0301 	and.w	r3, r3, #1
 8005bb0:	73fb      	strb	r3, [r7, #15]
  if (available) {
 8005bb2:	7bfb      	ldrb	r3, [r7, #15]
 8005bb4:	2b00      	cmp	r3, #0
 8005bb6:	d004      	beq.n	8005bc2 <tu_edpt_claim+0x6a>
    ep_state->claimed = 1;
 8005bb8:	687a      	ldr	r2, [r7, #4]
 8005bba:	7813      	ldrb	r3, [r2, #0]
 8005bbc:	f043 0304 	orr.w	r3, r3, #4
 8005bc0:	7013      	strb	r3, [r2, #0]
  }

  (void) osal_mutex_unlock(mutex);
  return available;
 8005bc2:	7bfb      	ldrb	r3, [r7, #15]
}
 8005bc4:	4618      	mov	r0, r3
 8005bc6:	3714      	adds	r7, #20
 8005bc8:	46bd      	mov	sp, r7
 8005bca:	bc80      	pop	{r7}
 8005bcc:	4770      	bx	lr

08005bce <tu_edpt_release>:

bool tu_edpt_release(tu_edpt_state_t* ep_state, osal_mutex_t mutex) {
 8005bce:	b480      	push	{r7}
 8005bd0:	b085      	sub	sp, #20
 8005bd2:	af00      	add	r7, sp, #0
 8005bd4:	6078      	str	r0, [r7, #4]
 8005bd6:	6039      	str	r1, [r7, #0]
  (void) mutex;
  (void) osal_mutex_lock(mutex, OSAL_TIMEOUT_WAIT_FOREVER);

  // can only release the endpoint if it is claimed and not busy
  bool const ret = (ep_state->claimed == 1) && (ep_state->busy == 0);
 8005bd8:	687b      	ldr	r3, [r7, #4]
 8005bda:	781b      	ldrb	r3, [r3, #0]
 8005bdc:	f3c3 0380 	ubfx	r3, r3, #2, #1
 8005be0:	b2db      	uxtb	r3, r3
 8005be2:	2b01      	cmp	r3, #1
 8005be4:	d108      	bne.n	8005bf8 <tu_edpt_release+0x2a>
 8005be6:	687b      	ldr	r3, [r7, #4]
 8005be8:	781b      	ldrb	r3, [r3, #0]
 8005bea:	f3c3 0300 	ubfx	r3, r3, #0, #1
 8005bee:	b2db      	uxtb	r3, r3
 8005bf0:	2b00      	cmp	r3, #0
 8005bf2:	d101      	bne.n	8005bf8 <tu_edpt_release+0x2a>
 8005bf4:	2301      	movs	r3, #1
 8005bf6:	e000      	b.n	8005bfa <tu_edpt_release+0x2c>
 8005bf8:	2300      	movs	r3, #0
 8005bfa:	73fb      	strb	r3, [r7, #15]
 8005bfc:	7bfb      	ldrb	r3, [r7, #15]
 8005bfe:	f003 0301 	and.w	r3, r3, #1
 8005c02:	73fb      	strb	r3, [r7, #15]
  if (ret) {
 8005c04:	7bfb      	ldrb	r3, [r7, #15]
 8005c06:	2b00      	cmp	r3, #0
 8005c08:	d004      	beq.n	8005c14 <tu_edpt_release+0x46>
    ep_state->claimed = 0;
 8005c0a:	687a      	ldr	r2, [r7, #4]
 8005c0c:	7813      	ldrb	r3, [r2, #0]
 8005c0e:	f023 0304 	bic.w	r3, r3, #4
 8005c12:	7013      	strb	r3, [r2, #0]
  }

  (void) osal_mutex_unlock(mutex);
  return ret;
 8005c14:	7bfb      	ldrb	r3, [r7, #15]
}
 8005c16:	4618      	mov	r0, r3
 8005c18:	3714      	adds	r7, #20
 8005c1a:	46bd      	mov	sp, r7
 8005c1c:	bc80      	pop	{r7}
 8005c1e:	4770      	bx	lr

08005c20 <tu_bind_driver_to_ep_itf>:
  return true;
}
#endif

bool tu_bind_driver_to_ep_itf(uint8_t driver_id, uint8_t ep2drv[][2], uint8_t itf2drv[], uint8_t itf_max,
                              const uint8_t *p_desc, uint16_t desc_len) {
 8005c20:	b480      	push	{r7}
 8005c22:	b093      	sub	sp, #76	@ 0x4c
 8005c24:	af00      	add	r7, sp, #0
 8005c26:	60b9      	str	r1, [r7, #8]
 8005c28:	607a      	str	r2, [r7, #4]
 8005c2a:	461a      	mov	r2, r3
 8005c2c:	4603      	mov	r3, r0
 8005c2e:	73fb      	strb	r3, [r7, #15]
 8005c30:	4613      	mov	r3, r2
 8005c32:	73bb      	strb	r3, [r7, #14]
  const uint8_t *desc_end = p_desc + desc_len;
 8005c34:	f8b7 3054 	ldrh.w	r3, [r7, #84]	@ 0x54
 8005c38:	6d3a      	ldr	r2, [r7, #80]	@ 0x50
 8005c3a:	4413      	add	r3, r2
 8005c3c:	647b      	str	r3, [r7, #68]	@ 0x44
  while (tu_desc_in_bounds(p_desc, desc_end)) {
 8005c3e:	e058      	b.n	8005cf2 <tu_bind_driver_to_ep_itf+0xd2>
 8005c40:	6d3b      	ldr	r3, [r7, #80]	@ 0x50
 8005c42:	633b      	str	r3, [r7, #48]	@ 0x30
  return ((uint8_t const*) desc)[DESC_OFFSET_LEN];
}

// get descriptor type
TU_ATTR_ALWAYS_INLINE static inline uint8_t tu_desc_type(void const* desc) {
  return ((uint8_t const*) desc)[DESC_OFFSET_TYPE];
 8005c44:	6b3b      	ldr	r3, [r7, #48]	@ 0x30
 8005c46:	3301      	adds	r3, #1
 8005c48:	781b      	ldrb	r3, [r3, #0]
    const uint8_t desc_type = tu_desc_type(p_desc);
 8005c4a:	f887 3043 	strb.w	r3, [r7, #67]	@ 0x43

    if (desc_type == TUSB_DESC_ENDPOINT) {
 8005c4e:	f897 3043 	ldrb.w	r3, [r7, #67]	@ 0x43
 8005c52:	2b05      	cmp	r3, #5
 8005c54:	d122      	bne.n	8005c9c <tu_bind_driver_to_ep_itf+0x7c>
      const uint8_t ep_addr  = ((const tusb_desc_endpoint_t *)p_desc)->bEndpointAddress;
 8005c56:	6d3b      	ldr	r3, [r7, #80]	@ 0x50
 8005c58:	789b      	ldrb	r3, [r3, #2]
 8005c5a:	f887 3037 	strb.w	r3, [r7, #55]	@ 0x37
 8005c5e:	f897 3037 	ldrb.w	r3, [r7, #55]	@ 0x37
 8005c62:	f887 302e 	strb.w	r3, [r7, #46]	@ 0x2e
  return (addr & TUSB_DIR_IN_MASK) ? TUSB_DIR_IN : TUSB_DIR_OUT;
}

// Get Endpoint number from address
TU_ATTR_ALWAYS_INLINE static inline uint8_t tu_edpt_number(uint8_t addr) {
  return (uint8_t) (addr & TUSB_EPNUM_MASK);
 8005c66:	f897 302e 	ldrb.w	r3, [r7, #46]	@ 0x2e
 8005c6a:	f003 030f 	and.w	r3, r3, #15
 8005c6e:	b2db      	uxtb	r3, r3
      const uint8_t ep_num   = tu_edpt_number(ep_addr);
 8005c70:	f887 3036 	strb.w	r3, [r7, #54]	@ 0x36
 8005c74:	f897 3037 	ldrb.w	r3, [r7, #55]	@ 0x37
 8005c78:	f887 302f 	strb.w	r3, [r7, #47]	@ 0x2f
  return (addr & TUSB_DIR_IN_MASK) ? TUSB_DIR_IN : TUSB_DIR_OUT;
 8005c7c:	f897 302f 	ldrb.w	r3, [r7, #47]	@ 0x2f
 8005c80:	09db      	lsrs	r3, r3, #7
 8005c82:	b2db      	uxtb	r3, r3
      const uint8_t ep_dir   = tu_edpt_dir(ep_addr);
 8005c84:	f887 3035 	strb.w	r3, [r7, #53]	@ 0x35
      ep2drv[ep_num][ep_dir] = driver_id;
 8005c88:	f897 3036 	ldrb.w	r3, [r7, #54]	@ 0x36
 8005c8c:	005b      	lsls	r3, r3, #1
 8005c8e:	68ba      	ldr	r2, [r7, #8]
 8005c90:	441a      	add	r2, r3
 8005c92:	f897 3035 	ldrb.w	r3, [r7, #53]	@ 0x35
 8005c96:	7bf9      	ldrb	r1, [r7, #15]
 8005c98:	54d1      	strb	r1, [r2, r3]
 8005c9a:	e020      	b.n	8005cde <tu_bind_driver_to_ep_itf+0xbe>
    } else if (desc_type == TUSB_DESC_INTERFACE) {
 8005c9c:	f897 3043 	ldrb.w	r3, [r7, #67]	@ 0x43
 8005ca0:	2b04      	cmp	r3, #4
 8005ca2:	d11c      	bne.n	8005cde <tu_bind_driver_to_ep_itf+0xbe>
      const tusb_desc_interface_t *desc_itf = (const tusb_desc_interface_t *)p_desc;
 8005ca4:	6d3b      	ldr	r3, [r7, #80]	@ 0x50
 8005ca6:	63fb      	str	r3, [r7, #60]	@ 0x3c
      if (desc_itf->bAlternateSetting == 0) {
 8005ca8:	6bfb      	ldr	r3, [r7, #60]	@ 0x3c
 8005caa:	78db      	ldrb	r3, [r3, #3]
 8005cac:	2b00      	cmp	r3, #0
 8005cae:	d116      	bne.n	8005cde <tu_bind_driver_to_ep_itf+0xbe>
        TU_ASSERT(desc_itf->bInterfaceNumber < itf_max);
 8005cb0:	6bfb      	ldr	r3, [r7, #60]	@ 0x3c
 8005cb2:	789b      	ldrb	r3, [r3, #2]
 8005cb4:	7bba      	ldrb	r2, [r7, #14]
 8005cb6:	429a      	cmp	r2, r3
 8005cb8:	d80a      	bhi.n	8005cd0 <tu_bind_driver_to_ep_itf+0xb0>
 8005cba:	4b1f      	ldr	r3, [pc, #124]	@ (8005d38 <tu_bind_driver_to_ep_itf+0x118>)
 8005cbc:	63bb      	str	r3, [r7, #56]	@ 0x38
 8005cbe:	6bbb      	ldr	r3, [r7, #56]	@ 0x38
 8005cc0:	681b      	ldr	r3, [r3, #0]
 8005cc2:	f003 0301 	and.w	r3, r3, #1
 8005cc6:	2b00      	cmp	r3, #0
 8005cc8:	d000      	beq.n	8005ccc <tu_bind_driver_to_ep_itf+0xac>
 8005cca:	be00      	bkpt	0x0000
 8005ccc:	2300      	movs	r3, #0
 8005cce:	e02d      	b.n	8005d2c <tu_bind_driver_to_ep_itf+0x10c>
        itf2drv[desc_itf->bInterfaceNumber] = driver_id;
 8005cd0:	6bfb      	ldr	r3, [r7, #60]	@ 0x3c
 8005cd2:	789b      	ldrb	r3, [r3, #2]
 8005cd4:	461a      	mov	r2, r3
 8005cd6:	687b      	ldr	r3, [r7, #4]
 8005cd8:	4413      	add	r3, r2
 8005cda:	7bfa      	ldrb	r2, [r7, #15]
 8005cdc:	701a      	strb	r2, [r3, #0]
 8005cde:	6d3b      	ldr	r3, [r7, #80]	@ 0x50
 8005ce0:	62bb      	str	r3, [r7, #40]	@ 0x28
  uint8_t const* desc8 = (uint8_t const*) desc;
 8005ce2:	6abb      	ldr	r3, [r7, #40]	@ 0x28
 8005ce4:	627b      	str	r3, [r7, #36]	@ 0x24
  return desc8 + desc8[DESC_OFFSET_LEN];
 8005ce6:	6a7b      	ldr	r3, [r7, #36]	@ 0x24
 8005ce8:	781b      	ldrb	r3, [r3, #0]
 8005cea:	461a      	mov	r2, r3
 8005cec:	6a7b      	ldr	r3, [r7, #36]	@ 0x24
 8005cee:	4413      	add	r3, r2
      }
    }

    p_desc = tu_desc_next(p_desc);
 8005cf0:	653b      	str	r3, [r7, #80]	@ 0x50
 8005cf2:	6d3b      	ldr	r3, [r7, #80]	@ 0x50
 8005cf4:	623b      	str	r3, [r7, #32]
 8005cf6:	6c7b      	ldr	r3, [r7, #68]	@ 0x44
 8005cf8:	61fb      	str	r3, [r7, #28]
TU_ATTR_ALWAYS_INLINE static inline uint8_t tu_desc_subtype(void const* desc) {
  return ((uint8_t const*) desc)[DESC_OFFSET_SUBTYPE];
}

TU_ATTR_ALWAYS_INLINE static inline bool tu_desc_in_bounds(const uint8_t *p_desc, const uint8_t *desc_end) {
  return p_desc < desc_end && tu_desc_next(p_desc) <= desc_end;
 8005cfa:	6a3a      	ldr	r2, [r7, #32]
 8005cfc:	69fb      	ldr	r3, [r7, #28]
 8005cfe:	429a      	cmp	r2, r3
 8005d00:	d20d      	bcs.n	8005d1e <tu_bind_driver_to_ep_itf+0xfe>
 8005d02:	6a3b      	ldr	r3, [r7, #32]
 8005d04:	61bb      	str	r3, [r7, #24]
  uint8_t const* desc8 = (uint8_t const*) desc;
 8005d06:	69bb      	ldr	r3, [r7, #24]
 8005d08:	617b      	str	r3, [r7, #20]
  return desc8 + desc8[DESC_OFFSET_LEN];
 8005d0a:	697b      	ldr	r3, [r7, #20]
 8005d0c:	781b      	ldrb	r3, [r3, #0]
 8005d0e:	461a      	mov	r2, r3
 8005d10:	697b      	ldr	r3, [r7, #20]
 8005d12:	4413      	add	r3, r2
  return p_desc < desc_end && tu_desc_next(p_desc) <= desc_end;
 8005d14:	69fa      	ldr	r2, [r7, #28]
 8005d16:	429a      	cmp	r2, r3
 8005d18:	d301      	bcc.n	8005d1e <tu_bind_driver_to_ep_itf+0xfe>
 8005d1a:	2301      	movs	r3, #1
 8005d1c:	e000      	b.n	8005d20 <tu_bind_driver_to_ep_itf+0x100>
 8005d1e:	2300      	movs	r3, #0
 8005d20:	f003 0301 	and.w	r3, r3, #1
 8005d24:	b2db      	uxtb	r3, r3
  while (tu_desc_in_bounds(p_desc, desc_end)) {
 8005d26:	2b00      	cmp	r3, #0
 8005d28:	d18a      	bne.n	8005c40 <tu_bind_driver_to_ep_itf+0x20>
  }
  return true;
 8005d2a:	2301      	movs	r3, #1
}
 8005d2c:	4618      	mov	r0, r3
 8005d2e:	374c      	adds	r7, #76	@ 0x4c
 8005d30:	46bd      	mov	sp, r7
 8005d32:	bc80      	pop	{r7}
 8005d34:	4770      	bx	lr
 8005d36:	bf00      	nop
 8005d38:	e000edf0 	.word	0xe000edf0

08005d3c <tu_edpt_stream_init>:
//--------------------------------------------------------------------+
// Endpoint Stream Helper for both Host and Device stack
//--------------------------------------------------------------------+

bool tu_edpt_stream_init(tu_edpt_stream_t *s, bool is_host, bool is_tx, bool overwritable, void *ff_buf,
                         uint16_t ff_bufsize, uint8_t *ep_buf) {
 8005d3c:	b580      	push	{r7, lr}
 8005d3e:	b082      	sub	sp, #8
 8005d40:	af00      	add	r7, sp, #0
 8005d42:	6078      	str	r0, [r7, #4]
 8005d44:	4608      	mov	r0, r1
 8005d46:	4611      	mov	r1, r2
 8005d48:	461a      	mov	r2, r3
 8005d4a:	4603      	mov	r3, r0
 8005d4c:	70fb      	strb	r3, [r7, #3]
 8005d4e:	460b      	mov	r3, r1
 8005d50:	70bb      	strb	r3, [r7, #2]
 8005d52:	4613      	mov	r3, r2
 8005d54:	707b      	strb	r3, [r7, #1]
  (void) is_tx;

  if (ff_buf == NULL || ff_bufsize == 0) {
 8005d56:	693b      	ldr	r3, [r7, #16]
 8005d58:	2b00      	cmp	r3, #0
 8005d5a:	d002      	beq.n	8005d62 <tu_edpt_stream_init+0x26>
 8005d5c:	8abb      	ldrh	r3, [r7, #20]
 8005d5e:	2b00      	cmp	r3, #0
 8005d60:	d101      	bne.n	8005d66 <tu_edpt_stream_init+0x2a>
    return false;
 8005d62:	2300      	movs	r3, #0
 8005d64:	e00e      	b.n	8005d84 <tu_edpt_stream_init+0x48>
  }

  s->is_host = is_host;
 8005d66:	687b      	ldr	r3, [r7, #4]
 8005d68:	78fa      	ldrb	r2, [r7, #3]
 8005d6a:	705a      	strb	r2, [r3, #1]
  tu_fifo_config(&s->ff, ff_buf, ff_bufsize, overwritable);
 8005d6c:	687b      	ldr	r3, [r7, #4]
 8005d6e:	f103 000c 	add.w	r0, r3, #12
 8005d72:	787b      	ldrb	r3, [r7, #1]
 8005d74:	8aba      	ldrh	r2, [r7, #20]
 8005d76:	6939      	ldr	r1, [r7, #16]
 8005d78:	f7fb fab6 	bl	80012e8 <tu_fifo_config>
    osal_mutex_t new_mutex = osal_mutex_create(&s->ff_mutexdef);
    tu_fifo_config_mutex(&s->ff, is_tx ? new_mutex : NULL, is_tx ? NULL : new_mutex);
  }
  #endif

  s->ep_buf = ep_buf;
 8005d7c:	687b      	ldr	r3, [r7, #4]
 8005d7e:	69ba      	ldr	r2, [r7, #24]
 8005d80:	609a      	str	r2, [r3, #8]

  return true;
 8005d82:	2301      	movs	r3, #1
}
 8005d84:	4618      	mov	r0, r3
 8005d86:	3708      	adds	r7, #8
 8005d88:	46bd      	mov	sp, r7
 8005d8a:	bd80      	pop	{r7, pc}

08005d8c <stream_claim>:

static bool stream_claim(tu_edpt_stream_t *s) {
 8005d8c:	b580      	push	{r7, lr}
 8005d8e:	b082      	sub	sp, #8
 8005d90:	af00      	add	r7, sp, #0
 8005d92:	6078      	str	r0, [r7, #4]
  TU_VERIFY(s->ep_addr != 0); // must be opened
 8005d94:	687b      	ldr	r3, [r7, #4]
 8005d96:	789b      	ldrb	r3, [r3, #2]
 8005d98:	2b00      	cmp	r3, #0
 8005d9a:	d101      	bne.n	8005da0 <stream_claim+0x14>
 8005d9c:	2300      	movs	r3, #0
 8005d9e:	e00e      	b.n	8005dbe <stream_claim+0x32>
  if (s->is_host) {
 8005da0:	687b      	ldr	r3, [r7, #4]
 8005da2:	785b      	ldrb	r3, [r3, #1]
 8005da4:	2b00      	cmp	r3, #0
 8005da6:	d109      	bne.n	8005dbc <stream_claim+0x30>
    #if CFG_TUH_ENABLED
    return usbh_edpt_claim(s->hwid, s->ep_addr);
  #endif
  } else {
    #if CFG_TUD_ENABLED
    return usbd_edpt_claim(s->hwid, s->ep_addr);
 8005da8:	687b      	ldr	r3, [r7, #4]
 8005daa:	781a      	ldrb	r2, [r3, #0]
 8005dac:	687b      	ldr	r3, [r7, #4]
 8005dae:	789b      	ldrb	r3, [r3, #2]
 8005db0:	4619      	mov	r1, r3
 8005db2:	4610      	mov	r0, r2
 8005db4:	f7fd fb9c 	bl	80034f0 <usbd_edpt_claim>
 8005db8:	4603      	mov	r3, r0
 8005dba:	e000      	b.n	8005dbe <stream_claim+0x32>
  #endif
  }
  return false;
 8005dbc:	2300      	movs	r3, #0
}
 8005dbe:	4618      	mov	r0, r3
 8005dc0:	3708      	adds	r7, #8
 8005dc2:	46bd      	mov	sp, r7
 8005dc4:	bd80      	pop	{r7, pc}

08005dc6 <stream_xfer>:

static bool stream_xfer(tu_edpt_stream_t *s, uint16_t count) {
 8005dc6:	b590      	push	{r4, r7, lr}
 8005dc8:	b085      	sub	sp, #20
 8005dca:	af02      	add	r7, sp, #8
 8005dcc:	6078      	str	r0, [r7, #4]
 8005dce:	460b      	mov	r3, r1
 8005dd0:	807b      	strh	r3, [r7, #2]
  if (s->is_host) {
 8005dd2:	687b      	ldr	r3, [r7, #4]
 8005dd4:	785b      	ldrb	r3, [r3, #1]
 8005dd6:	2b00      	cmp	r3, #0
 8005dd8:	d123      	bne.n	8005e22 <stream_xfer+0x5c>
    #if CFG_TUH_ENABLED
    return usbh_edpt_xfer(s->hwid, s->ep_addr, count ? s->ep_buf : NULL, count);
  #endif
  } else {
    #if CFG_TUD_ENABLED
    if (s->ep_buf == NULL) {
 8005dda:	687b      	ldr	r3, [r7, #4]
 8005ddc:	689b      	ldr	r3, [r3, #8]
 8005dde:	2b00      	cmp	r3, #0
 8005de0:	d10d      	bne.n	8005dfe <stream_xfer+0x38>
      return usbd_edpt_xfer_fifo(s->hwid, s->ep_addr, &s->ff, count, false);
 8005de2:	687b      	ldr	r3, [r7, #4]
 8005de4:	7818      	ldrb	r0, [r3, #0]
 8005de6:	687b      	ldr	r3, [r7, #4]
 8005de8:	7899      	ldrb	r1, [r3, #2]
 8005dea:	687b      	ldr	r3, [r7, #4]
 8005dec:	f103 020c 	add.w	r2, r3, #12
 8005df0:	887b      	ldrh	r3, [r7, #2]
 8005df2:	2400      	movs	r4, #0
 8005df4:	9400      	str	r4, [sp, #0]
 8005df6:	f7fd fc49 	bl	800368c <usbd_edpt_xfer_fifo>
 8005dfa:	4603      	mov	r3, r0
 8005dfc:	e012      	b.n	8005e24 <stream_xfer+0x5e>
    } else {
      return usbd_edpt_xfer(s->hwid, s->ep_addr, count ? s->ep_buf : NULL, count, false);
 8005dfe:	687b      	ldr	r3, [r7, #4]
 8005e00:	7818      	ldrb	r0, [r3, #0]
 8005e02:	687b      	ldr	r3, [r7, #4]
 8005e04:	7899      	ldrb	r1, [r3, #2]
 8005e06:	887b      	ldrh	r3, [r7, #2]
 8005e08:	2b00      	cmp	r3, #0
 8005e0a:	d002      	beq.n	8005e12 <stream_xfer+0x4c>
 8005e0c:	687b      	ldr	r3, [r7, #4]
 8005e0e:	689a      	ldr	r2, [r3, #8]
 8005e10:	e000      	b.n	8005e14 <stream_xfer+0x4e>
 8005e12:	2200      	movs	r2, #0
 8005e14:	887b      	ldrh	r3, [r7, #2]
 8005e16:	2400      	movs	r4, #0
 8005e18:	9400      	str	r4, [sp, #0]
 8005e1a:	f7fd fbbd 	bl	8003598 <usbd_edpt_xfer>
 8005e1e:	4603      	mov	r3, r0
 8005e20:	e000      	b.n	8005e24 <stream_xfer+0x5e>
    }
  #endif
  }
  return false;
 8005e22:	2300      	movs	r3, #0
}
 8005e24:	4618      	mov	r0, r3
 8005e26:	370c      	adds	r7, #12
 8005e28:	46bd      	mov	sp, r7
 8005e2a:	bd90      	pop	{r4, r7, pc}

08005e2c <stream_release>:

static bool stream_release(tu_edpt_stream_t *s) {
 8005e2c:	b580      	push	{r7, lr}
 8005e2e:	b082      	sub	sp, #8
 8005e30:	af00      	add	r7, sp, #0
 8005e32:	6078      	str	r0, [r7, #4]
  if (s->is_host) {
 8005e34:	687b      	ldr	r3, [r7, #4]
 8005e36:	785b      	ldrb	r3, [r3, #1]
 8005e38:	2b00      	cmp	r3, #0
 8005e3a:	d109      	bne.n	8005e50 <stream_release+0x24>
    #if CFG_TUH_ENABLED
    return usbh_edpt_release(s->hwid, s->ep_addr);
  #endif
  } else {
    #if CFG_TUD_ENABLED
    return usbd_edpt_release(s->hwid, s->ep_addr);
 8005e3c:	687b      	ldr	r3, [r7, #4]
 8005e3e:	781a      	ldrb	r2, [r3, #0]
 8005e40:	687b      	ldr	r3, [r7, #4]
 8005e42:	789b      	ldrb	r3, [r3, #2]
 8005e44:	4619      	mov	r1, r3
 8005e46:	4610      	mov	r0, r2
 8005e48:	f7fd fb7c 	bl	8003544 <usbd_edpt_release>
 8005e4c:	4603      	mov	r3, r0
 8005e4e:	e000      	b.n	8005e52 <stream_release+0x26>
  #endif
  }
  return false;
 8005e50:	2300      	movs	r3, #0
}
 8005e52:	4618      	mov	r0, r3
 8005e54:	3708      	adds	r7, #8
 8005e56:	46bd      	mov	sp, r7
 8005e58:	bd80      	pop	{r7, pc}
	...

08005e5c <tu_edpt_stream_write_zlp_if_needed>:

//--------------------------------------------------------------------+
// Stream Write
//--------------------------------------------------------------------+
bool tu_edpt_stream_write_zlp_if_needed(tu_edpt_stream_t *s, uint32_t last_xferred_bytes) {
 8005e5c:	b580      	push	{r7, lr}
 8005e5e:	b086      	sub	sp, #24
 8005e60:	af00      	add	r7, sp, #0
 8005e62:	6078      	str	r0, [r7, #4]
 8005e64:	6039      	str	r1, [r7, #0]
  // ZLP condition: no pending data, last transferred bytes is multiple of packet size
  TU_VERIFY(tu_fifo_empty(&s->ff) && last_xferred_bytes > 0 && (0 == (last_xferred_bytes & (s->mps - 1))));
 8005e66:	687b      	ldr	r3, [r7, #4]
 8005e68:	330c      	adds	r3, #12
 8005e6a:	613b      	str	r3, [r7, #16]
  const uint16_t wr_idx = f->wr_idx;
 8005e6c:	693b      	ldr	r3, [r7, #16]
 8005e6e:	891b      	ldrh	r3, [r3, #8]
 8005e70:	81fb      	strh	r3, [r7, #14]
  const uint16_t rd_idx = f->rd_idx;
 8005e72:	693b      	ldr	r3, [r7, #16]
 8005e74:	895b      	ldrh	r3, [r3, #10]
 8005e76:	81bb      	strh	r3, [r7, #12]
  return wr_idx == rd_idx;
 8005e78:	89fa      	ldrh	r2, [r7, #14]
 8005e7a:	89bb      	ldrh	r3, [r7, #12]
 8005e7c:	429a      	cmp	r2, r3
 8005e7e:	bf0c      	ite	eq
 8005e80:	2301      	moveq	r3, #1
 8005e82:	2300      	movne	r3, #0
 8005e84:	b2db      	uxtb	r3, r3
 8005e86:	f083 0301 	eor.w	r3, r3, #1
 8005e8a:	b2db      	uxtb	r3, r3
 8005e8c:	2b00      	cmp	r3, #0
 8005e8e:	d10a      	bne.n	8005ea6 <tu_edpt_stream_write_zlp_if_needed+0x4a>
 8005e90:	683b      	ldr	r3, [r7, #0]
 8005e92:	2b00      	cmp	r3, #0
 8005e94:	d007      	beq.n	8005ea6 <tu_edpt_stream_write_zlp_if_needed+0x4a>
 8005e96:	687b      	ldr	r3, [r7, #4]
 8005e98:	889b      	ldrh	r3, [r3, #4]
 8005e9a:	3b01      	subs	r3, #1
 8005e9c:	461a      	mov	r2, r3
 8005e9e:	683b      	ldr	r3, [r7, #0]
 8005ea0:	4013      	ands	r3, r2
 8005ea2:	2b00      	cmp	r3, #0
 8005ea4:	d001      	beq.n	8005eaa <tu_edpt_stream_write_zlp_if_needed+0x4e>
 8005ea6:	2300      	movs	r3, #0
 8005ea8:	e020      	b.n	8005eec <tu_edpt_stream_write_zlp_if_needed+0x90>
  TU_VERIFY(stream_claim(s));
 8005eaa:	6878      	ldr	r0, [r7, #4]
 8005eac:	f7ff ff6e 	bl	8005d8c <stream_claim>
 8005eb0:	4603      	mov	r3, r0
 8005eb2:	f083 0301 	eor.w	r3, r3, #1
 8005eb6:	b2db      	uxtb	r3, r3
 8005eb8:	2b00      	cmp	r3, #0
 8005eba:	d001      	beq.n	8005ec0 <tu_edpt_stream_write_zlp_if_needed+0x64>
 8005ebc:	2300      	movs	r3, #0
 8005ebe:	e015      	b.n	8005eec <tu_edpt_stream_write_zlp_if_needed+0x90>
  TU_ASSERT(stream_xfer(s, 0));
 8005ec0:	2100      	movs	r1, #0
 8005ec2:	6878      	ldr	r0, [r7, #4]
 8005ec4:	f7ff ff7f 	bl	8005dc6 <stream_xfer>
 8005ec8:	4603      	mov	r3, r0
 8005eca:	f083 0301 	eor.w	r3, r3, #1
 8005ece:	b2db      	uxtb	r3, r3
 8005ed0:	2b00      	cmp	r3, #0
 8005ed2:	d00a      	beq.n	8005eea <tu_edpt_stream_write_zlp_if_needed+0x8e>
 8005ed4:	4b07      	ldr	r3, [pc, #28]	@ (8005ef4 <tu_edpt_stream_write_zlp_if_needed+0x98>)
 8005ed6:	617b      	str	r3, [r7, #20]
 8005ed8:	697b      	ldr	r3, [r7, #20]
 8005eda:	681b      	ldr	r3, [r3, #0]
 8005edc:	f003 0301 	and.w	r3, r3, #1
 8005ee0:	2b00      	cmp	r3, #0
 8005ee2:	d000      	beq.n	8005ee6 <tu_edpt_stream_write_zlp_if_needed+0x8a>
 8005ee4:	be00      	bkpt	0x0000
 8005ee6:	2300      	movs	r3, #0
 8005ee8:	e000      	b.n	8005eec <tu_edpt_stream_write_zlp_if_needed+0x90>
  return true;
 8005eea:	2301      	movs	r3, #1
}
 8005eec:	4618      	mov	r0, r3
 8005eee:	3718      	adds	r7, #24
 8005ef0:	46bd      	mov	sp, r7
 8005ef2:	bd80      	pop	{r7, pc}
 8005ef4:	e000edf0 	.word	0xe000edf0

08005ef8 <tu_edpt_stream_write_xfer>:

uint32_t tu_edpt_stream_write_xfer(tu_edpt_stream_t *s) {
 8005ef8:	b580      	push	{r7, lr}
 8005efa:	b094      	sub	sp, #80	@ 0x50
 8005efc:	af00      	add	r7, sp, #0
 8005efe:	6078      	str	r0, [r7, #4]
  const uint16_t ff_count = tu_fifo_count(&s->ff);
 8005f00:	687b      	ldr	r3, [r7, #4]
 8005f02:	330c      	adds	r3, #12
 8005f04:	647b      	str	r3, [r7, #68]	@ 0x44
  const uint16_t wr_idx = f->wr_idx;
 8005f06:	6c7b      	ldr	r3, [r7, #68]	@ 0x44
 8005f08:	891b      	ldrh	r3, [r3, #8]
 8005f0a:	f8a7 3042 	strh.w	r3, [r7, #66]	@ 0x42
  const uint16_t rd_idx = f->rd_idx;
 8005f0e:	6c7b      	ldr	r3, [r7, #68]	@ 0x44
 8005f10:	895b      	ldrh	r3, [r3, #10]
 8005f12:	f8a7 3040 	strh.w	r3, [r7, #64]	@ 0x40
  return tu_min16(tu_ff_overflow_count(f->depth, wr_idx, rd_idx), f->depth);
 8005f16:	6c7b      	ldr	r3, [r7, #68]	@ 0x44
 8005f18:	889b      	ldrh	r3, [r3, #4]
 8005f1a:	87fb      	strh	r3, [r7, #62]	@ 0x3e
 8005f1c:	f8b7 3042 	ldrh.w	r3, [r7, #66]	@ 0x42
 8005f20:	87bb      	strh	r3, [r7, #60]	@ 0x3c
 8005f22:	f8b7 3040 	ldrh.w	r3, [r7, #64]	@ 0x40
 8005f26:	877b      	strh	r3, [r7, #58]	@ 0x3a
  const int32_t diff = (int32_t)wr_idx - (int32_t)rd_idx;
 8005f28:	8fba      	ldrh	r2, [r7, #60]	@ 0x3c
 8005f2a:	8f7b      	ldrh	r3, [r7, #58]	@ 0x3a
 8005f2c:	1ad3      	subs	r3, r2, r3
 8005f2e:	637b      	str	r3, [r7, #52]	@ 0x34
  if (diff >= 0) {
 8005f30:	6b7b      	ldr	r3, [r7, #52]	@ 0x34
 8005f32:	2b00      	cmp	r3, #0
 8005f34:	db02      	blt.n	8005f3c <tu_edpt_stream_write_xfer+0x44>
    return (uint16_t)diff;
 8005f36:	6b7b      	ldr	r3, [r7, #52]	@ 0x34
 8005f38:	b29b      	uxth	r3, r3
 8005f3a:	e006      	b.n	8005f4a <tu_edpt_stream_write_xfer+0x52>
    return (uint16_t)(2 * depth + diff);
 8005f3c:	8ffb      	ldrh	r3, [r7, #62]	@ 0x3e
 8005f3e:	005b      	lsls	r3, r3, #1
 8005f40:	b29a      	uxth	r2, r3
 8005f42:	6b7b      	ldr	r3, [r7, #52]	@ 0x34
 8005f44:	b29b      	uxth	r3, r3
 8005f46:	4413      	add	r3, r2
 8005f48:	b29b      	uxth	r3, r3
  return tu_min16(tu_ff_overflow_count(f->depth, wr_idx, rd_idx), f->depth);
 8005f4a:	6c7a      	ldr	r2, [r7, #68]	@ 0x44
 8005f4c:	8892      	ldrh	r2, [r2, #4]
 8005f4e:	867b      	strh	r3, [r7, #50]	@ 0x32
 8005f50:	4613      	mov	r3, r2
 8005f52:	863b      	strh	r3, [r7, #48]	@ 0x30
TU_ATTR_ALWAYS_INLINE static inline uint16_t tu_min16 (uint16_t x, uint16_t y) { return (x < y) ? x : y; }
 8005f54:	8e7a      	ldrh	r2, [r7, #50]	@ 0x32
 8005f56:	8e3b      	ldrh	r3, [r7, #48]	@ 0x30
 8005f58:	4293      	cmp	r3, r2
 8005f5a:	bf28      	it	cs
 8005f5c:	4613      	movcs	r3, r2
 8005f5e:	b29b      	uxth	r3, r3
 8005f60:	f8a7 304c 	strh.w	r3, [r7, #76]	@ 0x4c
  TU_VERIFY(ff_count > 0, 0); // skip if no data
 8005f64:	f8b7 304c 	ldrh.w	r3, [r7, #76]	@ 0x4c
 8005f68:	2b00      	cmp	r3, #0
 8005f6a:	d101      	bne.n	8005f70 <tu_edpt_stream_write_xfer+0x78>
 8005f6c:	2300      	movs	r3, #0
 8005f6e:	e073      	b.n	8006058 <tu_edpt_stream_write_xfer+0x160>
  TU_VERIFY(stream_claim(s), 0);
 8005f70:	6878      	ldr	r0, [r7, #4]
 8005f72:	f7ff ff0b 	bl	8005d8c <stream_claim>
 8005f76:	4603      	mov	r3, r0
 8005f78:	f083 0301 	eor.w	r3, r3, #1
 8005f7c:	b2db      	uxtb	r3, r3
 8005f7e:	2b00      	cmp	r3, #0
 8005f80:	d001      	beq.n	8005f86 <tu_edpt_stream_write_xfer+0x8e>
 8005f82:	2300      	movs	r3, #0
 8005f84:	e068      	b.n	8006058 <tu_edpt_stream_write_xfer+0x160>

  // Pull data from FIFO -> EP buf
  uint16_t count;
  if (s->ep_buf == NULL) {
 8005f86:	687b      	ldr	r3, [r7, #4]
 8005f88:	689b      	ldr	r3, [r3, #8]
 8005f8a:	2b00      	cmp	r3, #0
 8005f8c:	d12e      	bne.n	8005fec <tu_edpt_stream_write_xfer+0xf4>
    count = tu_fifo_count(&s->ff); // re-get count since fifo can be changed
 8005f8e:	687b      	ldr	r3, [r7, #4]
 8005f90:	330c      	adds	r3, #12
 8005f92:	62fb      	str	r3, [r7, #44]	@ 0x2c
  const uint16_t wr_idx = f->wr_idx;
 8005f94:	6afb      	ldr	r3, [r7, #44]	@ 0x2c
 8005f96:	891b      	ldrh	r3, [r3, #8]
 8005f98:	857b      	strh	r3, [r7, #42]	@ 0x2a
  const uint16_t rd_idx = f->rd_idx;
 8005f9a:	6afb      	ldr	r3, [r7, #44]	@ 0x2c
 8005f9c:	895b      	ldrh	r3, [r3, #10]
 8005f9e:	853b      	strh	r3, [r7, #40]	@ 0x28
  return tu_min16(tu_ff_overflow_count(f->depth, wr_idx, rd_idx), f->depth);
 8005fa0:	6afb      	ldr	r3, [r7, #44]	@ 0x2c
 8005fa2:	889b      	ldrh	r3, [r3, #4]
 8005fa4:	84fb      	strh	r3, [r7, #38]	@ 0x26
 8005fa6:	8d7b      	ldrh	r3, [r7, #42]	@ 0x2a
 8005fa8:	84bb      	strh	r3, [r7, #36]	@ 0x24
 8005faa:	8d3b      	ldrh	r3, [r7, #40]	@ 0x28
 8005fac:	847b      	strh	r3, [r7, #34]	@ 0x22
  const int32_t diff = (int32_t)wr_idx - (int32_t)rd_idx;
 8005fae:	8cba      	ldrh	r2, [r7, #36]	@ 0x24
 8005fb0:	8c7b      	ldrh	r3, [r7, #34]	@ 0x22
 8005fb2:	1ad3      	subs	r3, r2, r3
 8005fb4:	61fb      	str	r3, [r7, #28]
  if (diff >= 0) {
 8005fb6:	69fb      	ldr	r3, [r7, #28]
 8005fb8:	2b00      	cmp	r3, #0
 8005fba:	db02      	blt.n	8005fc2 <tu_edpt_stream_write_xfer+0xca>
    return (uint16_t)diff;
 8005fbc:	69fb      	ldr	r3, [r7, #28]
 8005fbe:	b29b      	uxth	r3, r3
 8005fc0:	e006      	b.n	8005fd0 <tu_edpt_stream_write_xfer+0xd8>
    return (uint16_t)(2 * depth + diff);
 8005fc2:	8cfb      	ldrh	r3, [r7, #38]	@ 0x26
 8005fc4:	005b      	lsls	r3, r3, #1
 8005fc6:	b29a      	uxth	r2, r3
 8005fc8:	69fb      	ldr	r3, [r7, #28]
 8005fca:	b29b      	uxth	r3, r3
 8005fcc:	4413      	add	r3, r2
 8005fce:	b29b      	uxth	r3, r3
  return tu_min16(tu_ff_overflow_count(f->depth, wr_idx, rd_idx), f->depth);
 8005fd0:	6afa      	ldr	r2, [r7, #44]	@ 0x2c
 8005fd2:	8892      	ldrh	r2, [r2, #4]
 8005fd4:	837b      	strh	r3, [r7, #26]
 8005fd6:	4613      	mov	r3, r2
 8005fd8:	833b      	strh	r3, [r7, #24]
 8005fda:	8b7a      	ldrh	r2, [r7, #26]
 8005fdc:	8b3b      	ldrh	r3, [r7, #24]
 8005fde:	4293      	cmp	r3, r2
 8005fe0:	bf28      	it	cs
 8005fe2:	4613      	movcs	r3, r2
 8005fe4:	b29b      	uxth	r3, r3
 8005fe6:	f8a7 304e 	strh.w	r3, [r7, #78]	@ 0x4e
 8005fea:	e013      	b.n	8006014 <tu_edpt_stream_write_xfer+0x11c>
  } else {
    count = tu_fifo_read_n(&s->ff, s->ep_buf, s->xfer_len);
 8005fec:	687b      	ldr	r3, [r7, #4]
 8005fee:	f103 020c 	add.w	r2, r3, #12
 8005ff2:	687b      	ldr	r3, [r7, #4]
 8005ff4:	689b      	ldr	r3, [r3, #8]
 8005ff6:	6879      	ldr	r1, [r7, #4]
 8005ff8:	88c9      	ldrh	r1, [r1, #6]
 8005ffa:	617a      	str	r2, [r7, #20]
 8005ffc:	613b      	str	r3, [r7, #16]
 8005ffe:	460b      	mov	r3, r1
 8006000:	81fb      	strh	r3, [r7, #14]
  return tu_fifo_read_n_access_mode(f, buffer, n, NULL);
 8006002:	89fa      	ldrh	r2, [r7, #14]
 8006004:	2300      	movs	r3, #0
 8006006:	6939      	ldr	r1, [r7, #16]
 8006008:	6978      	ldr	r0, [r7, #20]
 800600a:	f7fb fd02 	bl	8001a12 <tu_fifo_read_n_access_mode>
 800600e:	4603      	mov	r3, r0
 8006010:	f8a7 304e 	strh.w	r3, [r7, #78]	@ 0x4e
  }

  if (count > 0) {
 8006014:	f8b7 304e 	ldrh.w	r3, [r7, #78]	@ 0x4e
 8006018:	2b00      	cmp	r3, #0
 800601a:	d019      	beq.n	8006050 <tu_edpt_stream_write_xfer+0x158>
    TU_ASSERT(stream_xfer(s, count), 0);
 800601c:	f8b7 304e 	ldrh.w	r3, [r7, #78]	@ 0x4e
 8006020:	4619      	mov	r1, r3
 8006022:	6878      	ldr	r0, [r7, #4]
 8006024:	f7ff fecf 	bl	8005dc6 <stream_xfer>
 8006028:	4603      	mov	r3, r0
 800602a:	f083 0301 	eor.w	r3, r3, #1
 800602e:	b2db      	uxtb	r3, r3
 8006030:	2b00      	cmp	r3, #0
 8006032:	d00a      	beq.n	800604a <tu_edpt_stream_write_xfer+0x152>
 8006034:	4b0a      	ldr	r3, [pc, #40]	@ (8006060 <tu_edpt_stream_write_xfer+0x168>)
 8006036:	64bb      	str	r3, [r7, #72]	@ 0x48
 8006038:	6cbb      	ldr	r3, [r7, #72]	@ 0x48
 800603a:	681b      	ldr	r3, [r3, #0]
 800603c:	f003 0301 	and.w	r3, r3, #1
 8006040:	2b00      	cmp	r3, #0
 8006042:	d000      	beq.n	8006046 <tu_edpt_stream_write_xfer+0x14e>
 8006044:	be00      	bkpt	0x0000
 8006046:	2300      	movs	r3, #0
 8006048:	e006      	b.n	8006058 <tu_edpt_stream_write_xfer+0x160>
    return count;
 800604a:	f8b7 304e 	ldrh.w	r3, [r7, #78]	@ 0x4e
 800604e:	e003      	b.n	8006058 <tu_edpt_stream_write_xfer+0x160>
  } else {
    // Release endpoint since we don't make any transfer
    // Note: data is dropped if terminal is not connected
    stream_release(s);
 8006050:	6878      	ldr	r0, [r7, #4]
 8006052:	f7ff feeb 	bl	8005e2c <stream_release>
    return 0;
 8006056:	2300      	movs	r3, #0
  }
}
 8006058:	4618      	mov	r0, r3
 800605a:	3750      	adds	r7, #80	@ 0x50
 800605c:	46bd      	mov	sp, r7
 800605e:	bd80      	pop	{r7, pc}
 8006060:	e000edf0 	.word	0xe000edf0

08006064 <tu_edpt_stream_write>:

uint32_t tu_edpt_stream_write(tu_edpt_stream_t *s, const void *buffer, uint32_t bufsize) {
 8006064:	b580      	push	{r7, lr}
 8006066:	b090      	sub	sp, #64	@ 0x40
 8006068:	af00      	add	r7, sp, #0
 800606a:	60f8      	str	r0, [r7, #12]
 800606c:	60b9      	str	r1, [r7, #8]
 800606e:	607a      	str	r2, [r7, #4]
  TU_VERIFY(bufsize > 0);
 8006070:	687b      	ldr	r3, [r7, #4]
 8006072:	2b00      	cmp	r3, #0
 8006074:	d101      	bne.n	800607a <tu_edpt_stream_write+0x16>
 8006076:	2300      	movs	r3, #0
 8006078:	e04d      	b.n	8006116 <tu_edpt_stream_write+0xb2>
  const uint16_t ret = tu_fifo_write_n(&s->ff, buffer, (uint16_t) bufsize);
 800607a:	68fb      	ldr	r3, [r7, #12]
 800607c:	330c      	adds	r3, #12
 800607e:	687a      	ldr	r2, [r7, #4]
 8006080:	b292      	uxth	r2, r2
 8006082:	623b      	str	r3, [r7, #32]
 8006084:	68bb      	ldr	r3, [r7, #8]
 8006086:	61fb      	str	r3, [r7, #28]
 8006088:	4613      	mov	r3, r2
 800608a:	837b      	strh	r3, [r7, #26]
  return tu_fifo_write_n_access_mode(f, data, n, NULL);
 800608c:	8b7a      	ldrh	r2, [r7, #26]
 800608e:	2300      	movs	r3, #0
 8006090:	69f9      	ldr	r1, [r7, #28]
 8006092:	6a38      	ldr	r0, [r7, #32]
 8006094:	f7fb fcea 	bl	8001a6c <tu_fifo_write_n_access_mode>
 8006098:	4603      	mov	r3, r0
 800609a:	87fb      	strh	r3, [r7, #62]	@ 0x3e

  // flush if fifo has more than packet size or
  // in rare case: fifo depth is configured too small (which never reach packet size)
  if ((tu_fifo_count(&s->ff) >= s->mps) || (tu_fifo_depth(&s->ff) < s->mps)) {
 800609c:	68fb      	ldr	r3, [r7, #12]
 800609e:	330c      	adds	r3, #12
 80060a0:	63bb      	str	r3, [r7, #56]	@ 0x38
  const uint16_t wr_idx = f->wr_idx;
 80060a2:	6bbb      	ldr	r3, [r7, #56]	@ 0x38
 80060a4:	891b      	ldrh	r3, [r3, #8]
 80060a6:	86fb      	strh	r3, [r7, #54]	@ 0x36
  const uint16_t rd_idx = f->rd_idx;
 80060a8:	6bbb      	ldr	r3, [r7, #56]	@ 0x38
 80060aa:	895b      	ldrh	r3, [r3, #10]
 80060ac:	86bb      	strh	r3, [r7, #52]	@ 0x34
  return tu_min16(tu_ff_overflow_count(f->depth, wr_idx, rd_idx), f->depth);
 80060ae:	6bbb      	ldr	r3, [r7, #56]	@ 0x38
 80060b0:	889b      	ldrh	r3, [r3, #4]
 80060b2:	867b      	strh	r3, [r7, #50]	@ 0x32
 80060b4:	8efb      	ldrh	r3, [r7, #54]	@ 0x36
 80060b6:	863b      	strh	r3, [r7, #48]	@ 0x30
 80060b8:	8ebb      	ldrh	r3, [r7, #52]	@ 0x34
 80060ba:	85fb      	strh	r3, [r7, #46]	@ 0x2e
  const int32_t diff = (int32_t)wr_idx - (int32_t)rd_idx;
 80060bc:	8e3a      	ldrh	r2, [r7, #48]	@ 0x30
 80060be:	8dfb      	ldrh	r3, [r7, #46]	@ 0x2e
 80060c0:	1ad3      	subs	r3, r2, r3
 80060c2:	62bb      	str	r3, [r7, #40]	@ 0x28
  if (diff >= 0) {
 80060c4:	6abb      	ldr	r3, [r7, #40]	@ 0x28
 80060c6:	2b00      	cmp	r3, #0
 80060c8:	db02      	blt.n	80060d0 <tu_edpt_stream_write+0x6c>
    return (uint16_t)diff;
 80060ca:	6abb      	ldr	r3, [r7, #40]	@ 0x28
 80060cc:	b29b      	uxth	r3, r3
 80060ce:	e006      	b.n	80060de <tu_edpt_stream_write+0x7a>
    return (uint16_t)(2 * depth + diff);
 80060d0:	8e7b      	ldrh	r3, [r7, #50]	@ 0x32
 80060d2:	005b      	lsls	r3, r3, #1
 80060d4:	b29a      	uxth	r2, r3
 80060d6:	6abb      	ldr	r3, [r7, #40]	@ 0x28
 80060d8:	b29b      	uxth	r3, r3
 80060da:	4413      	add	r3, r2
 80060dc:	b29b      	uxth	r3, r3
  return tu_min16(tu_ff_overflow_count(f->depth, wr_idx, rd_idx), f->depth);
 80060de:	6bba      	ldr	r2, [r7, #56]	@ 0x38
 80060e0:	8892      	ldrh	r2, [r2, #4]
 80060e2:	84fb      	strh	r3, [r7, #38]	@ 0x26
 80060e4:	4613      	mov	r3, r2
 80060e6:	84bb      	strh	r3, [r7, #36]	@ 0x24
 80060e8:	8cfa      	ldrh	r2, [r7, #38]	@ 0x26
 80060ea:	8cbb      	ldrh	r3, [r7, #36]	@ 0x24
 80060ec:	4293      	cmp	r3, r2
 80060ee:	bf28      	it	cs
 80060f0:	4613      	movcs	r3, r2
 80060f2:	b29a      	uxth	r2, r3
 80060f4:	68fb      	ldr	r3, [r7, #12]
 80060f6:	889b      	ldrh	r3, [r3, #4]
 80060f8:	429a      	cmp	r2, r3
 80060fa:	d208      	bcs.n	800610e <tu_edpt_stream_write+0xaa>
 80060fc:	68fb      	ldr	r3, [r7, #12]
 80060fe:	330c      	adds	r3, #12
 8006100:	617b      	str	r3, [r7, #20]
  return f->depth;
 8006102:	697b      	ldr	r3, [r7, #20]
 8006104:	889a      	ldrh	r2, [r3, #4]
 8006106:	68fb      	ldr	r3, [r7, #12]
 8006108:	889b      	ldrh	r3, [r3, #4]
 800610a:	429a      	cmp	r2, r3
 800610c:	d202      	bcs.n	8006114 <tu_edpt_stream_write+0xb0>
    tu_edpt_stream_write_xfer(s);
 800610e:	68f8      	ldr	r0, [r7, #12]
 8006110:	f7ff fef2 	bl	8005ef8 <tu_edpt_stream_write_xfer>
  }
  return ret;
 8006114:	8ffb      	ldrh	r3, [r7, #62]	@ 0x3e
}
 8006116:	4618      	mov	r0, r3
 8006118:	3740      	adds	r7, #64	@ 0x40
 800611a:	46bd      	mov	sp, r7
 800611c:	bd80      	pop	{r7, pc}
	...

08006120 <tu_edpt_stream_read_xfer>:
}

//--------------------------------------------------------------------+
// Stream Read
//--------------------------------------------------------------------+
uint32_t tu_edpt_stream_read_xfer(tu_edpt_stream_t *s) {
 8006120:	b580      	push	{r7, lr}
 8006122:	b094      	sub	sp, #80	@ 0x50
 8006124:	af00      	add	r7, sp, #0
 8006126:	6078      	str	r0, [r7, #4]
  uint16_t available = tu_fifo_remaining(&s->ff);
 8006128:	687b      	ldr	r3, [r7, #4]
 800612a:	330c      	adds	r3, #12
 800612c:	647b      	str	r3, [r7, #68]	@ 0x44
  const uint16_t rd_idx = f->rd_idx;
  return tu_ff_overflow_count(f->depth, wr_idx, rd_idx) >= f->depth;
}

TU_ATTR_ALWAYS_INLINE static inline uint16_t tu_fifo_remaining(const tu_fifo_t *f) {
  const uint16_t wr_idx = f->wr_idx;
 800612e:	6c7b      	ldr	r3, [r7, #68]	@ 0x44
 8006130:	891b      	ldrh	r3, [r3, #8]
 8006132:	f8a7 3042 	strh.w	r3, [r7, #66]	@ 0x42
  const uint16_t rd_idx = f->rd_idx;
 8006136:	6c7b      	ldr	r3, [r7, #68]	@ 0x44
 8006138:	895b      	ldrh	r3, [r3, #10]
 800613a:	f8a7 3040 	strh.w	r3, [r7, #64]	@ 0x40
  return tu_ff_remaining_local(f->depth, wr_idx, rd_idx);
 800613e:	6c7b      	ldr	r3, [r7, #68]	@ 0x44
 8006140:	889b      	ldrh	r3, [r3, #4]
 8006142:	87fb      	strh	r3, [r7, #62]	@ 0x3e
 8006144:	f8b7 3042 	ldrh.w	r3, [r7, #66]	@ 0x42
 8006148:	87bb      	strh	r3, [r7, #60]	@ 0x3c
 800614a:	f8b7 3040 	ldrh.w	r3, [r7, #64]	@ 0x40
 800614e:	877b      	strh	r3, [r7, #58]	@ 0x3a
 8006150:	8ffb      	ldrh	r3, [r7, #62]	@ 0x3e
 8006152:	873b      	strh	r3, [r7, #56]	@ 0x38
 8006154:	8fbb      	ldrh	r3, [r7, #60]	@ 0x3c
 8006156:	86fb      	strh	r3, [r7, #54]	@ 0x36
 8006158:	8f7b      	ldrh	r3, [r7, #58]	@ 0x3a
 800615a:	86bb      	strh	r3, [r7, #52]	@ 0x34
  const int32_t diff = (int32_t)wr_idx - (int32_t)rd_idx;
 800615c:	8efa      	ldrh	r2, [r7, #54]	@ 0x36
 800615e:	8ebb      	ldrh	r3, [r7, #52]	@ 0x34
 8006160:	1ad3      	subs	r3, r2, r3
 8006162:	633b      	str	r3, [r7, #48]	@ 0x30
  if (diff >= 0) {
 8006164:	6b3b      	ldr	r3, [r7, #48]	@ 0x30
 8006166:	2b00      	cmp	r3, #0
 8006168:	db02      	blt.n	8006170 <tu_edpt_stream_read_xfer+0x50>
    return (uint16_t)diff;
 800616a:	6b3b      	ldr	r3, [r7, #48]	@ 0x30
 800616c:	b29b      	uxth	r3, r3
 800616e:	e006      	b.n	800617e <tu_edpt_stream_read_xfer+0x5e>
    return (uint16_t)(2 * depth + diff);
 8006170:	8f3b      	ldrh	r3, [r7, #56]	@ 0x38
 8006172:	005b      	lsls	r3, r3, #1
 8006174:	b29a      	uxth	r2, r3
 8006176:	6b3b      	ldr	r3, [r7, #48]	@ 0x30
 8006178:	b29b      	uxth	r3, r3
 800617a:	4413      	add	r3, r2
 800617c:	b29b      	uxth	r3, r3
  const uint16_t ovf_count = tu_ff_overflow_count(depth, wr_idx, rd_idx);
 800617e:	85fb      	strh	r3, [r7, #46]	@ 0x2e
  return (depth > ovf_count) ? (depth - ovf_count) : 0;
 8006180:	8ffa      	ldrh	r2, [r7, #62]	@ 0x3e
 8006182:	8dfb      	ldrh	r3, [r7, #46]	@ 0x2e
 8006184:	429a      	cmp	r2, r3
 8006186:	d904      	bls.n	8006192 <tu_edpt_stream_read_xfer+0x72>
 8006188:	8ffa      	ldrh	r2, [r7, #62]	@ 0x3e
 800618a:	8dfb      	ldrh	r3, [r7, #46]	@ 0x2e
 800618c:	1ad3      	subs	r3, r2, r3
 800618e:	b29b      	uxth	r3, r3
 8006190:	e000      	b.n	8006194 <tu_edpt_stream_read_xfer+0x74>
 8006192:	2300      	movs	r3, #0
 8006194:	f8a7 304e 	strh.w	r3, [r7, #78]	@ 0x4e

  // Prepare for incoming data but only allow what we can store in the ring buffer.
  // TODO Actually we can still carry out the transfer, keeping count of received bytes
  // and slowly move it to the FIFO when read().
  // This pre-check reduces endpoint claiming
  TU_VERIFY(available >= s->mps);
 8006198:	687b      	ldr	r3, [r7, #4]
 800619a:	889b      	ldrh	r3, [r3, #4]
 800619c:	f8b7 204e 	ldrh.w	r2, [r7, #78]	@ 0x4e
 80061a0:	429a      	cmp	r2, r3
 80061a2:	d201      	bcs.n	80061a8 <tu_edpt_stream_read_xfer+0x88>
 80061a4:	2300      	movs	r3, #0
 80061a6:	e07c      	b.n	80062a2 <tu_edpt_stream_read_xfer+0x182>
  TU_VERIFY(stream_claim(s), 0);
 80061a8:	6878      	ldr	r0, [r7, #4]
 80061aa:	f7ff fdef 	bl	8005d8c <stream_claim>
 80061ae:	4603      	mov	r3, r0
 80061b0:	f083 0301 	eor.w	r3, r3, #1
 80061b4:	b2db      	uxtb	r3, r3
 80061b6:	2b00      	cmp	r3, #0
 80061b8:	d001      	beq.n	80061be <tu_edpt_stream_read_xfer+0x9e>
 80061ba:	2300      	movs	r3, #0
 80061bc:	e071      	b.n	80062a2 <tu_edpt_stream_read_xfer+0x182>
  available = tu_fifo_remaining(&s->ff); // re-get available since fifo can be changed
 80061be:	687b      	ldr	r3, [r7, #4]
 80061c0:	330c      	adds	r3, #12
 80061c2:	62bb      	str	r3, [r7, #40]	@ 0x28
  const uint16_t wr_idx = f->wr_idx;
 80061c4:	6abb      	ldr	r3, [r7, #40]	@ 0x28
 80061c6:	891b      	ldrh	r3, [r3, #8]
 80061c8:	84fb      	strh	r3, [r7, #38]	@ 0x26
  const uint16_t rd_idx = f->rd_idx;
 80061ca:	6abb      	ldr	r3, [r7, #40]	@ 0x28
 80061cc:	895b      	ldrh	r3, [r3, #10]
 80061ce:	84bb      	strh	r3, [r7, #36]	@ 0x24
  return tu_ff_remaining_local(f->depth, wr_idx, rd_idx);
 80061d0:	6abb      	ldr	r3, [r7, #40]	@ 0x28
 80061d2:	889b      	ldrh	r3, [r3, #4]
 80061d4:	847b      	strh	r3, [r7, #34]	@ 0x22
 80061d6:	8cfb      	ldrh	r3, [r7, #38]	@ 0x26
 80061d8:	843b      	strh	r3, [r7, #32]
 80061da:	8cbb      	ldrh	r3, [r7, #36]	@ 0x24
 80061dc:	83fb      	strh	r3, [r7, #30]
 80061de:	8c7b      	ldrh	r3, [r7, #34]	@ 0x22
 80061e0:	83bb      	strh	r3, [r7, #28]
 80061e2:	8c3b      	ldrh	r3, [r7, #32]
 80061e4:	837b      	strh	r3, [r7, #26]
 80061e6:	8bfb      	ldrh	r3, [r7, #30]
 80061e8:	833b      	strh	r3, [r7, #24]
  const int32_t diff = (int32_t)wr_idx - (int32_t)rd_idx;
 80061ea:	8b7a      	ldrh	r2, [r7, #26]
 80061ec:	8b3b      	ldrh	r3, [r7, #24]
 80061ee:	1ad3      	subs	r3, r2, r3
 80061f0:	617b      	str	r3, [r7, #20]
  if (diff >= 0) {
 80061f2:	697b      	ldr	r3, [r7, #20]
 80061f4:	2b00      	cmp	r3, #0
 80061f6:	db02      	blt.n	80061fe <tu_edpt_stream_read_xfer+0xde>
    return (uint16_t)diff;
 80061f8:	697b      	ldr	r3, [r7, #20]
 80061fa:	b29b      	uxth	r3, r3
 80061fc:	e006      	b.n	800620c <tu_edpt_stream_read_xfer+0xec>
    return (uint16_t)(2 * depth + diff);
 80061fe:	8bbb      	ldrh	r3, [r7, #28]
 8006200:	005b      	lsls	r3, r3, #1
 8006202:	b29a      	uxth	r2, r3
 8006204:	697b      	ldr	r3, [r7, #20]
 8006206:	b29b      	uxth	r3, r3
 8006208:	4413      	add	r3, r2
 800620a:	b29b      	uxth	r3, r3
  const uint16_t ovf_count = tu_ff_overflow_count(depth, wr_idx, rd_idx);
 800620c:	827b      	strh	r3, [r7, #18]
  return (depth > ovf_count) ? (depth - ovf_count) : 0;
 800620e:	8c7a      	ldrh	r2, [r7, #34]	@ 0x22
 8006210:	8a7b      	ldrh	r3, [r7, #18]
 8006212:	429a      	cmp	r2, r3
 8006214:	d904      	bls.n	8006220 <tu_edpt_stream_read_xfer+0x100>
 8006216:	8c7a      	ldrh	r2, [r7, #34]	@ 0x22
 8006218:	8a7b      	ldrh	r3, [r7, #18]
 800621a:	1ad3      	subs	r3, r2, r3
 800621c:	b29b      	uxth	r3, r3
 800621e:	e000      	b.n	8006222 <tu_edpt_stream_read_xfer+0x102>
 8006220:	2300      	movs	r3, #0
 8006222:	f8a7 304e 	strh.w	r3, [r7, #78]	@ 0x4e

  if (available >= s->mps) {
 8006226:	687b      	ldr	r3, [r7, #4]
 8006228:	889b      	ldrh	r3, [r3, #4]
 800622a:	f8b7 204e 	ldrh.w	r2, [r7, #78]	@ 0x4e
 800622e:	429a      	cmp	r2, r3
 8006230:	d333      	bcc.n	800629a <tu_edpt_stream_read_xfer+0x17a>
    // multiple of packet size limit by ep bufsize
    uint16_t count = (uint16_t) (available & ~(s->mps - 1));
 8006232:	687b      	ldr	r3, [r7, #4]
 8006234:	889b      	ldrh	r3, [r3, #4]
 8006236:	425b      	negs	r3, r3
 8006238:	b29b      	uxth	r3, r3
 800623a:	b21a      	sxth	r2, r3
 800623c:	f9b7 304e 	ldrsh.w	r3, [r7, #78]	@ 0x4e
 8006240:	4013      	ands	r3, r2
 8006242:	b21b      	sxth	r3, r3
 8006244:	f8a7 304c 	strh.w	r3, [r7, #76]	@ 0x4c
    count = tu_min16(count, s->xfer_len);
 8006248:	687b      	ldr	r3, [r7, #4]
 800624a:	88da      	ldrh	r2, [r3, #6]
 800624c:	f8b7 304c 	ldrh.w	r3, [r7, #76]	@ 0x4c
 8006250:	823b      	strh	r3, [r7, #16]
 8006252:	4613      	mov	r3, r2
 8006254:	81fb      	strh	r3, [r7, #14]
 8006256:	8a3a      	ldrh	r2, [r7, #16]
 8006258:	89fb      	ldrh	r3, [r7, #14]
 800625a:	4293      	cmp	r3, r2
 800625c:	bf28      	it	cs
 800625e:	4613      	movcs	r3, r2
 8006260:	b29b      	uxth	r3, r3
 8006262:	f8a7 304c 	strh.w	r3, [r7, #76]	@ 0x4c
    TU_ASSERT(stream_xfer(s, count), 0);
 8006266:	f8b7 304c 	ldrh.w	r3, [r7, #76]	@ 0x4c
 800626a:	4619      	mov	r1, r3
 800626c:	6878      	ldr	r0, [r7, #4]
 800626e:	f7ff fdaa 	bl	8005dc6 <stream_xfer>
 8006272:	4603      	mov	r3, r0
 8006274:	f083 0301 	eor.w	r3, r3, #1
 8006278:	b2db      	uxtb	r3, r3
 800627a:	2b00      	cmp	r3, #0
 800627c:	d00a      	beq.n	8006294 <tu_edpt_stream_read_xfer+0x174>
 800627e:	4b0b      	ldr	r3, [pc, #44]	@ (80062ac <tu_edpt_stream_read_xfer+0x18c>)
 8006280:	64bb      	str	r3, [r7, #72]	@ 0x48
 8006282:	6cbb      	ldr	r3, [r7, #72]	@ 0x48
 8006284:	681b      	ldr	r3, [r3, #0]
 8006286:	f003 0301 	and.w	r3, r3, #1
 800628a:	2b00      	cmp	r3, #0
 800628c:	d000      	beq.n	8006290 <tu_edpt_stream_read_xfer+0x170>
 800628e:	be00      	bkpt	0x0000
 8006290:	2300      	movs	r3, #0
 8006292:	e006      	b.n	80062a2 <tu_edpt_stream_read_xfer+0x182>
    return count;
 8006294:	f8b7 304c 	ldrh.w	r3, [r7, #76]	@ 0x4c
 8006298:	e003      	b.n	80062a2 <tu_edpt_stream_read_xfer+0x182>
  } else {
    // Release endpoint since we don't make any transfer
    stream_release(s);
 800629a:	6878      	ldr	r0, [r7, #4]
 800629c:	f7ff fdc6 	bl	8005e2c <stream_release>
    return 0;
 80062a0:	2300      	movs	r3, #0
  }
}
 80062a2:	4618      	mov	r0, r3
 80062a4:	3750      	adds	r7, #80	@ 0x50
 80062a6:	46bd      	mov	sp, r7
 80062a8:	bd80      	pop	{r7, pc}
 80062aa:	bf00      	nop
 80062ac:	e000edf0 	.word	0xe000edf0

080062b0 <tu_edpt_stream_read>:

uint32_t tu_edpt_stream_read(tu_edpt_stream_t *s, void *buffer, uint32_t bufsize) {
 80062b0:	b580      	push	{r7, lr}
 80062b2:	b088      	sub	sp, #32
 80062b4:	af00      	add	r7, sp, #0
 80062b6:	60f8      	str	r0, [r7, #12]
 80062b8:	60b9      	str	r1, [r7, #8]
 80062ba:	607a      	str	r2, [r7, #4]
  const uint32_t num_read = tu_fifo_read_n(&s->ff, buffer, (uint16_t)bufsize);
 80062bc:	68fb      	ldr	r3, [r7, #12]
 80062be:	330c      	adds	r3, #12
 80062c0:	687a      	ldr	r2, [r7, #4]
 80062c2:	b292      	uxth	r2, r2
 80062c4:	61bb      	str	r3, [r7, #24]
 80062c6:	68bb      	ldr	r3, [r7, #8]
 80062c8:	617b      	str	r3, [r7, #20]
 80062ca:	4613      	mov	r3, r2
 80062cc:	827b      	strh	r3, [r7, #18]
  return tu_fifo_read_n_access_mode(f, buffer, n, NULL);
 80062ce:	8a7a      	ldrh	r2, [r7, #18]
 80062d0:	2300      	movs	r3, #0
 80062d2:	6979      	ldr	r1, [r7, #20]
 80062d4:	69b8      	ldr	r0, [r7, #24]
 80062d6:	f7fb fb9c 	bl	8001a12 <tu_fifo_read_n_access_mode>
 80062da:	4603      	mov	r3, r0
 80062dc:	61fb      	str	r3, [r7, #28]
  tu_edpt_stream_read_xfer(s);
 80062de:	68f8      	ldr	r0, [r7, #12]
 80062e0:	f7ff ff1e 	bl	8006120 <tu_edpt_stream_read_xfer>
  return num_read;
 80062e4:	69fb      	ldr	r3, [r7, #28]
}
 80062e6:	4618      	mov	r0, r3
 80062e8:	3720      	adds	r7, #32
 80062ea:	46bd      	mov	sp, r7
 80062ec:	bd80      	pop	{r7, pc}
	...

080062f0 <HAL_Init>:
  *         need to ensure that the SysTick time base is always set to 1 millisecond
  *         to have correct HAL operation.
  * @retval HAL status
  */
HAL_StatusTypeDef HAL_Init(void)
{
 80062f0:	b580      	push	{r7, lr}
 80062f2:	af00      	add	r7, sp, #0
    defined(STM32F102x6) || defined(STM32F102xB) || \
    defined(STM32F103x6) || defined(STM32F103xB) || defined(STM32F103xE) || defined(STM32F103xG) || \
    defined(STM32F105xC) || defined(STM32F107xC)

  /* Prefetch buffer is not available on value line devices */
  __HAL_FLASH_PREFETCH_BUFFER_ENABLE();
 80062f4:	4b08      	ldr	r3, [pc, #32]	@ (8006318 <HAL_Init+0x28>)
 80062f6:	681b      	ldr	r3, [r3, #0]
 80062f8:	4a07      	ldr	r2, [pc, #28]	@ (8006318 <HAL_Init+0x28>)
 80062fa:	f043 0310 	orr.w	r3, r3, #16
 80062fe:	6013      	str	r3, [r2, #0]
#endif
#endif /* PREFETCH_ENABLE */

  /* Set Interrupt Group Priority */
  HAL_NVIC_SetPriorityGrouping(NVIC_PRIORITYGROUP_4);
 8006300:	2003      	movs	r0, #3
 8006302:	f000 f947 	bl	8006594 <HAL_NVIC_SetPriorityGrouping>

  /* Use systick as time base source and configure 1ms tick (default clock after Reset is HSI) */
  HAL_InitTick(TICK_INT_PRIORITY);
 8006306:	200f      	movs	r0, #15
 8006308:	f000 f808 	bl	800631c <HAL_InitTick>

  /* Init the low level hardware */
  HAL_MspInit();
 800630c:	f7fa f87e 	bl	800040c <HAL_MspInit>

  /* Return function status */
  return HAL_OK;
 8006310:	2300      	movs	r3, #0
}
 8006312:	4618      	mov	r0, r3
 8006314:	bd80      	pop	{r7, pc}
 8006316:	bf00      	nop
 8006318:	40022000 	.word	0x40022000

0800631c <HAL_InitTick>:
  *       implementation  in user file.
  * @param TickPriority Tick interrupt priority.
  * @retval HAL status
  */
__weak HAL_StatusTypeDef HAL_InitTick(uint32_t TickPriority)
{
 800631c:	b580      	push	{r7, lr}
 800631e:	b082      	sub	sp, #8
 8006320:	af00      	add	r7, sp, #0
 8006322:	6078      	str	r0, [r7, #4]
  /* Configure the SysTick to have interrupt in 1ms time basis*/
  if (HAL_SYSTICK_Config(SystemCoreClock / (1000U / uwTickFreq)) > 0U)
 8006324:	4b12      	ldr	r3, [pc, #72]	@ (8006370 <HAL_InitTick+0x54>)
 8006326:	681a      	ldr	r2, [r3, #0]
 8006328:	4b12      	ldr	r3, [pc, #72]	@ (8006374 <HAL_InitTick+0x58>)
 800632a:	781b      	ldrb	r3, [r3, #0]
 800632c:	4619      	mov	r1, r3
 800632e:	f44f 737a 	mov.w	r3, #1000	@ 0x3e8
 8006332:	fbb3 f3f1 	udiv	r3, r3, r1
 8006336:	fbb2 f3f3 	udiv	r3, r2, r3
 800633a:	4618      	mov	r0, r3
 800633c:	f000 f95f 	bl	80065fe <HAL_SYSTICK_Config>
 8006340:	4603      	mov	r3, r0
 8006342:	2b00      	cmp	r3, #0
 8006344:	d001      	beq.n	800634a <HAL_InitTick+0x2e>
  {
    return HAL_ERROR;
 8006346:	2301      	movs	r3, #1
 8006348:	e00e      	b.n	8006368 <HAL_InitTick+0x4c>
  }

  /* Configure the SysTick IRQ priority */
  if (TickPriority < (1UL << __NVIC_PRIO_BITS))
 800634a:	687b      	ldr	r3, [r7, #4]
 800634c:	2b0f      	cmp	r3, #15
 800634e:	d80a      	bhi.n	8006366 <HAL_InitTick+0x4a>
  {
    HAL_NVIC_SetPriority(SysTick_IRQn, TickPriority, 0U);
 8006350:	2200      	movs	r2, #0
 8006352:	6879      	ldr	r1, [r7, #4]
 8006354:	f04f 30ff 	mov.w	r0, #4294967295
 8006358:	f000 f927 	bl	80065aa <HAL_NVIC_SetPriority>
    uwTickPrio = TickPriority;
 800635c:	4a06      	ldr	r2, [pc, #24]	@ (8006378 <HAL_InitTick+0x5c>)
 800635e:	687b      	ldr	r3, [r7, #4]
 8006360:	6013      	str	r3, [r2, #0]
  {
    return HAL_ERROR;
  }

  /* Return function status */
  return HAL_OK;
 8006362:	2300      	movs	r3, #0
 8006364:	e000      	b.n	8006368 <HAL_InitTick+0x4c>
    return HAL_ERROR;
 8006366:	2301      	movs	r3, #1
}
 8006368:	4618      	mov	r0, r3
 800636a:	3708      	adds	r7, #8
 800636c:	46bd      	mov	sp, r7
 800636e:	bd80      	pop	{r7, pc}
 8006370:	20000000 	.word	0x20000000
 8006374:	2000003c 	.word	0x2000003c
 8006378:	20000038 	.word	0x20000038

0800637c <HAL_IncTick>:
  * @note This function is declared as __weak to be overwritten in case of other
  *      implementations in user file.
  * @retval None
  */
__weak void HAL_IncTick(void)
{
 800637c:	b480      	push	{r7}
 800637e:	af00      	add	r7, sp, #0
  uwTick += uwTickFreq;
 8006380:	4b05      	ldr	r3, [pc, #20]	@ (8006398 <HAL_IncTick+0x1c>)
 8006382:	781b      	ldrb	r3, [r3, #0]
 8006384:	461a      	mov	r2, r3
 8006386:	4b05      	ldr	r3, [pc, #20]	@ (800639c <HAL_IncTick+0x20>)
 8006388:	681b      	ldr	r3, [r3, #0]
 800638a:	4413      	add	r3, r2
 800638c:	4a03      	ldr	r2, [pc, #12]	@ (800639c <HAL_IncTick+0x20>)
 800638e:	6013      	str	r3, [r2, #0]
}
 8006390:	bf00      	nop
 8006392:	46bd      	mov	sp, r7
 8006394:	bc80      	pop	{r7}
 8006396:	4770      	bx	lr
 8006398:	2000003c 	.word	0x2000003c
 800639c:	200006b4 	.word	0x200006b4

080063a0 <HAL_GetTick>:
  * @note  This function is declared as __weak to be overwritten in case of other
  *       implementations in user file.
  * @retval tick value
  */
__weak uint32_t HAL_GetTick(void)
{
 80063a0:	b480      	push	{r7}
 80063a2:	af00      	add	r7, sp, #0
  return uwTick;
 80063a4:	4b02      	ldr	r3, [pc, #8]	@ (80063b0 <HAL_GetTick+0x10>)
 80063a6:	681b      	ldr	r3, [r3, #0]
}
 80063a8:	4618      	mov	r0, r3
 80063aa:	46bd      	mov	sp, r7
 80063ac:	bc80      	pop	{r7}
 80063ae:	4770      	bx	lr
 80063b0:	200006b4 	.word	0x200006b4

080063b4 <HAL_Delay>:
  *       implementations in user file.
  * @param Delay specifies the delay time length, in milliseconds.
  * @retval None
  */
__weak void HAL_Delay(uint32_t Delay)
{
 80063b4:	b580      	push	{r7, lr}
 80063b6:	b084      	sub	sp, #16
 80063b8:	af00      	add	r7, sp, #0
 80063ba:	6078      	str	r0, [r7, #4]
  uint32_t tickstart = HAL_GetTick();
 80063bc:	f7ff fff0 	bl	80063a0 <HAL_GetTick>
 80063c0:	60b8      	str	r0, [r7, #8]
  uint32_t wait = Delay;
 80063c2:	687b      	ldr	r3, [r7, #4]
 80063c4:	60fb      	str	r3, [r7, #12]

  /* Add a freq to guarantee minimum wait */
  if (wait < HAL_MAX_DELAY)
 80063c6:	68fb      	ldr	r3, [r7, #12]
 80063c8:	f1b3 3fff 	cmp.w	r3, #4294967295
 80063cc:	d005      	beq.n	80063da <HAL_Delay+0x26>
  {
    wait += (uint32_t)(uwTickFreq);
 80063ce:	4b0a      	ldr	r3, [pc, #40]	@ (80063f8 <HAL_Delay+0x44>)
 80063d0:	781b      	ldrb	r3, [r3, #0]
 80063d2:	461a      	mov	r2, r3
 80063d4:	68fb      	ldr	r3, [r7, #12]
 80063d6:	4413      	add	r3, r2
 80063d8:	60fb      	str	r3, [r7, #12]
  }

  while ((HAL_GetTick() - tickstart) < wait)
 80063da:	bf00      	nop
 80063dc:	f7ff ffe0 	bl	80063a0 <HAL_GetTick>
 80063e0:	4602      	mov	r2, r0
 80063e2:	68bb      	ldr	r3, [r7, #8]
 80063e4:	1ad3      	subs	r3, r2, r3
 80063e6:	68fa      	ldr	r2, [r7, #12]
 80063e8:	429a      	cmp	r2, r3
 80063ea:	d8f7      	bhi.n	80063dc <HAL_Delay+0x28>
  {
  }
}
 80063ec:	bf00      	nop
 80063ee:	bf00      	nop
 80063f0:	3710      	adds	r7, #16
 80063f2:	46bd      	mov	sp, r7
 80063f4:	bd80      	pop	{r7, pc}
 80063f6:	bf00      	nop
 80063f8:	2000003c 	.word	0x2000003c

080063fc <__NVIC_SetPriorityGrouping>:
{
 80063fc:	b480      	push	{r7}
 80063fe:	b085      	sub	sp, #20
 8006400:	af00      	add	r7, sp, #0
 8006402:	6078      	str	r0, [r7, #4]
  uint32_t PriorityGroupTmp = (PriorityGroup & (uint32_t)0x07UL);             /* only values 0..7 are used          */
 8006404:	687b      	ldr	r3, [r7, #4]
 8006406:	f003 0307 	and.w	r3, r3, #7
 800640a:	60fb      	str	r3, [r7, #12]
  reg_value  =  SCB->AIRCR;                                                   /* read old register configuration    */
 800640c:	4b0c      	ldr	r3, [pc, #48]	@ (8006440 <__NVIC_SetPriorityGrouping+0x44>)
 800640e:	68db      	ldr	r3, [r3, #12]
 8006410:	60bb      	str	r3, [r7, #8]
  reg_value &= ~((uint32_t)(SCB_AIRCR_VECTKEY_Msk | SCB_AIRCR_PRIGROUP_Msk)); /* clear bits to change               */
 8006412:	68ba      	ldr	r2, [r7, #8]
 8006414:	f64f 03ff 	movw	r3, #63743	@ 0xf8ff
 8006418:	4013      	ands	r3, r2
 800641a:	60bb      	str	r3, [r7, #8]
                (PriorityGroupTmp << SCB_AIRCR_PRIGROUP_Pos) );               /* Insert write key and priority group */
 800641c:	68fb      	ldr	r3, [r7, #12]
 800641e:	021a      	lsls	r2, r3, #8
                ((uint32_t)0x5FAUL << SCB_AIRCR_VECTKEY_Pos) |
 8006420:	68bb      	ldr	r3, [r7, #8]
 8006422:	4313      	orrs	r3, r2
  reg_value  =  (reg_value                                   |
 8006424:	f043 63bf 	orr.w	r3, r3, #100139008	@ 0x5f80000
 8006428:	f443 3300 	orr.w	r3, r3, #131072	@ 0x20000
 800642c:	60bb      	str	r3, [r7, #8]
  SCB->AIRCR =  reg_value;
 800642e:	4a04      	ldr	r2, [pc, #16]	@ (8006440 <__NVIC_SetPriorityGrouping+0x44>)
 8006430:	68bb      	ldr	r3, [r7, #8]
 8006432:	60d3      	str	r3, [r2, #12]
}
 8006434:	bf00      	nop
 8006436:	3714      	adds	r7, #20
 8006438:	46bd      	mov	sp, r7
 800643a:	bc80      	pop	{r7}
 800643c:	4770      	bx	lr
 800643e:	bf00      	nop
 8006440:	e000ed00 	.word	0xe000ed00

08006444 <__NVIC_GetPriorityGrouping>:
{
 8006444:	b480      	push	{r7}
 8006446:	af00      	add	r7, sp, #0
  return ((uint32_t)((SCB->AIRCR & SCB_AIRCR_PRIGROUP_Msk) >> SCB_AIRCR_PRIGROUP_Pos));
 8006448:	4b04      	ldr	r3, [pc, #16]	@ (800645c <__NVIC_GetPriorityGrouping+0x18>)
 800644a:	68db      	ldr	r3, [r3, #12]
 800644c:	0a1b      	lsrs	r3, r3, #8
 800644e:	f003 0307 	and.w	r3, r3, #7
}
 8006452:	4618      	mov	r0, r3
 8006454:	46bd      	mov	sp, r7
 8006456:	bc80      	pop	{r7}
 8006458:	4770      	bx	lr
 800645a:	bf00      	nop
 800645c:	e000ed00 	.word	0xe000ed00

08006460 <__NVIC_EnableIRQ>:
{
 8006460:	b480      	push	{r7}
 8006462:	b083      	sub	sp, #12
 8006464:	af00      	add	r7, sp, #0
 8006466:	4603      	mov	r3, r0
 8006468:	71fb      	strb	r3, [r7, #7]
  if ((int32_t)(IRQn) >= 0)
 800646a:	f997 3007 	ldrsb.w	r3, [r7, #7]
 800646e:	2b00      	cmp	r3, #0
 8006470:	db0b      	blt.n	800648a <__NVIC_EnableIRQ+0x2a>
    NVIC->ISER[(((uint32_t)IRQn) >> 5UL)] = (uint32_t)(1UL << (((uint32_t)IRQn) & 0x1FUL));
 8006472:	79fb      	ldrb	r3, [r7, #7]
 8006474:	f003 021f 	and.w	r2, r3, #31
 8006478:	4906      	ldr	r1, [pc, #24]	@ (8006494 <__NVIC_EnableIRQ+0x34>)
 800647a:	f997 3007 	ldrsb.w	r3, [r7, #7]
 800647e:	095b      	lsrs	r3, r3, #5
 8006480:	2001      	movs	r0, #1
 8006482:	fa00 f202 	lsl.w	r2, r0, r2
 8006486:	f841 2023 	str.w	r2, [r1, r3, lsl #2]
}
 800648a:	bf00      	nop
 800648c:	370c      	adds	r7, #12
 800648e:	46bd      	mov	sp, r7
 8006490:	bc80      	pop	{r7}
 8006492:	4770      	bx	lr
 8006494:	e000e100 	.word	0xe000e100

08006498 <__NVIC_SetPriority>:
  \param [in]      IRQn  Interrupt number.
  \param [in]  priority  Priority to set.
  \note    The priority cannot be set for every processor exception.
 */
__STATIC_INLINE void __NVIC_SetPriority(IRQn_Type IRQn, uint32_t priority)
{
 8006498:	b480      	push	{r7}
 800649a:	b083      	sub	sp, #12
 800649c:	af00      	add	r7, sp, #0
 800649e:	4603      	mov	r3, r0
 80064a0:	6039      	str	r1, [r7, #0]
 80064a2:	71fb      	strb	r3, [r7, #7]
  if ((int32_t)(IRQn) >= 0)
 80064a4:	f997 3007 	ldrsb.w	r3, [r7, #7]
 80064a8:	2b00      	cmp	r3, #0
 80064aa:	db0a      	blt.n	80064c2 <__NVIC_SetPriority+0x2a>
  {
    NVIC->IP[((uint32_t)IRQn)]               = (uint8_t)((priority << (8U - __NVIC_PRIO_BITS)) & (uint32_t)0xFFUL);
 80064ac:	683b      	ldr	r3, [r7, #0]
 80064ae:	b2da      	uxtb	r2, r3
 80064b0:	490c      	ldr	r1, [pc, #48]	@ (80064e4 <__NVIC_SetPriority+0x4c>)
 80064b2:	f997 3007 	ldrsb.w	r3, [r7, #7]
 80064b6:	0112      	lsls	r2, r2, #4
 80064b8:	b2d2      	uxtb	r2, r2
 80064ba:	440b      	add	r3, r1
 80064bc:	f883 2300 	strb.w	r2, [r3, #768]	@ 0x300
  }
  else
  {
    SCB->SHP[(((uint32_t)IRQn) & 0xFUL)-4UL] = (uint8_t)((priority << (8U - __NVIC_PRIO_BITS)) & (uint32_t)0xFFUL);
  }
}
 80064c0:	e00a      	b.n	80064d8 <__NVIC_SetPriority+0x40>
    SCB->SHP[(((uint32_t)IRQn) & 0xFUL)-4UL] = (uint8_t)((priority << (8U - __NVIC_PRIO_BITS)) & (uint32_t)0xFFUL);
 80064c2:	683b      	ldr	r3, [r7, #0]
 80064c4:	b2da      	uxtb	r2, r3
 80064c6:	4908      	ldr	r1, [pc, #32]	@ (80064e8 <__NVIC_SetPriority+0x50>)
 80064c8:	79fb      	ldrb	r3, [r7, #7]
 80064ca:	f003 030f 	and.w	r3, r3, #15
 80064ce:	3b04      	subs	r3, #4
 80064d0:	0112      	lsls	r2, r2, #4
 80064d2:	b2d2      	uxtb	r2, r2
 80064d4:	440b      	add	r3, r1
 80064d6:	761a      	strb	r2, [r3, #24]
}
 80064d8:	bf00      	nop
 80064da:	370c      	adds	r7, #12
 80064dc:	46bd      	mov	sp, r7
 80064de:	bc80      	pop	{r7}
 80064e0:	4770      	bx	lr
 80064e2:	bf00      	nop
 80064e4:	e000e100 	.word	0xe000e100
 80064e8:	e000ed00 	.word	0xe000ed00

080064ec <NVIC_EncodePriority>:
  \param [in]   PreemptPriority  Preemptive priority value (starting from 0).
  \param [in]       SubPriority  Subpriority value (starting from 0).
  \return                        Encoded priority. Value can be used in the function \ref NVIC_SetPriority().
 */
__STATIC_INLINE uint32_t NVIC_EncodePriority (uint32_t PriorityGroup, uint32_t PreemptPriority, uint32_t SubPriority)
{
 80064ec:	b480      	push	{r7}
 80064ee:	b089      	sub	sp, #36	@ 0x24
 80064f0:	af00      	add	r7, sp, #0
 80064f2:	60f8      	str	r0, [r7, #12]
 80064f4:	60b9      	str	r1, [r7, #8]
 80064f6:	607a      	str	r2, [r7, #4]
  uint32_t PriorityGroupTmp = (PriorityGroup & (uint32_t)0x07UL);   /* only values 0..7 are used          */
 80064f8:	68fb      	ldr	r3, [r7, #12]
 80064fa:	f003 0307 	and.w	r3, r3, #7
 80064fe:	61fb      	str	r3, [r7, #28]
  uint32_t PreemptPriorityBits;
  uint32_t SubPriorityBits;

  PreemptPriorityBits = ((7UL - PriorityGroupTmp) > (uint32_t)(__NVIC_PRIO_BITS)) ? (uint32_t)(__NVIC_PRIO_BITS) : (uint32_t)(7UL - PriorityGroupTmp);
 8006500:	69fb      	ldr	r3, [r7, #28]
 8006502:	f1c3 0307 	rsb	r3, r3, #7
 8006506:	2b04      	cmp	r3, #4
 8006508:	bf28      	it	cs
 800650a:	2304      	movcs	r3, #4
 800650c:	61bb      	str	r3, [r7, #24]
  SubPriorityBits     = ((PriorityGroupTmp + (uint32_t)(__NVIC_PRIO_BITS)) < (uint32_t)7UL) ? (uint32_t)0UL : (uint32_t)((PriorityGroupTmp - 7UL) + (uint32_t)(__NVIC_PRIO_BITS));
 800650e:	69fb      	ldr	r3, [r7, #28]
 8006510:	3304      	adds	r3, #4
 8006512:	2b06      	cmp	r3, #6
 8006514:	d902      	bls.n	800651c <NVIC_EncodePriority+0x30>
 8006516:	69fb      	ldr	r3, [r7, #28]
 8006518:	3b03      	subs	r3, #3
 800651a:	e000      	b.n	800651e <NVIC_EncodePriority+0x32>
 800651c:	2300      	movs	r3, #0
 800651e:	617b      	str	r3, [r7, #20]

  return (
           ((PreemptPriority & (uint32_t)((1UL << (PreemptPriorityBits)) - 1UL)) << SubPriorityBits) |
 8006520:	f04f 32ff 	mov.w	r2, #4294967295
 8006524:	69bb      	ldr	r3, [r7, #24]
 8006526:	fa02 f303 	lsl.w	r3, r2, r3
 800652a:	43da      	mvns	r2, r3
 800652c:	68bb      	ldr	r3, [r7, #8]
 800652e:	401a      	ands	r2, r3
 8006530:	697b      	ldr	r3, [r7, #20]
 8006532:	409a      	lsls	r2, r3
           ((SubPriority     & (uint32_t)((1UL << (SubPriorityBits    )) - 1UL)))
 8006534:	f04f 31ff 	mov.w	r1, #4294967295
 8006538:	697b      	ldr	r3, [r7, #20]
 800653a:	fa01 f303 	lsl.w	r3, r1, r3
 800653e:	43d9      	mvns	r1, r3
 8006540:	687b      	ldr	r3, [r7, #4]
 8006542:	400b      	ands	r3, r1
           ((PreemptPriority & (uint32_t)((1UL << (PreemptPriorityBits)) - 1UL)) << SubPriorityBits) |
 8006544:	4313      	orrs	r3, r2
         );
}
 8006546:	4618      	mov	r0, r3
 8006548:	3724      	adds	r7, #36	@ 0x24
 800654a:	46bd      	mov	sp, r7
 800654c:	bc80      	pop	{r7}
 800654e:	4770      	bx	lr

08006550 <SysTick_Config>:
  \note    When the variable <b>__Vendor_SysTickConfig</b> is set to 1, then the
           function <b>SysTick_Config</b> is not included. In this case, the file <b><i>device</i>.h</b>
           must contain a vendor-specific implementation of this function.
 */
__STATIC_INLINE uint32_t SysTick_Config(uint32_t ticks)
{
 8006550:	b580      	push	{r7, lr}
 8006552:	b082      	sub	sp, #8
 8006554:	af00      	add	r7, sp, #0
 8006556:	6078      	str	r0, [r7, #4]
  if ((ticks - 1UL) > SysTick_LOAD_RELOAD_Msk)
 8006558:	687b      	ldr	r3, [r7, #4]
 800655a:	3b01      	subs	r3, #1
 800655c:	f1b3 7f80 	cmp.w	r3, #16777216	@ 0x1000000
 8006560:	d301      	bcc.n	8006566 <SysTick_Config+0x16>
  {
    return (1UL);                                                   /* Reload value impossible */
 8006562:	2301      	movs	r3, #1
 8006564:	e00f      	b.n	8006586 <SysTick_Config+0x36>
  }

  SysTick->LOAD  = (uint32_t)(ticks - 1UL);                         /* set reload register */
 8006566:	4a0a      	ldr	r2, [pc, #40]	@ (8006590 <SysTick_Config+0x40>)
 8006568:	687b      	ldr	r3, [r7, #4]
 800656a:	3b01      	subs	r3, #1
 800656c:	6053      	str	r3, [r2, #4]
  NVIC_SetPriority (SysTick_IRQn, (1UL << __NVIC_PRIO_BITS) - 1UL); /* set Priority for Systick Interrupt */
 800656e:	210f      	movs	r1, #15
 8006570:	f04f 30ff 	mov.w	r0, #4294967295
 8006574:	f7ff ff90 	bl	8006498 <__NVIC_SetPriority>
  SysTick->VAL   = 0UL;                                             /* Load the SysTick Counter Value */
 8006578:	4b05      	ldr	r3, [pc, #20]	@ (8006590 <SysTick_Config+0x40>)
 800657a:	2200      	movs	r2, #0
 800657c:	609a      	str	r2, [r3, #8]
  SysTick->CTRL  = SysTick_CTRL_CLKSOURCE_Msk |
 800657e:	4b04      	ldr	r3, [pc, #16]	@ (8006590 <SysTick_Config+0x40>)
 8006580:	2207      	movs	r2, #7
 8006582:	601a      	str	r2, [r3, #0]
                   SysTick_CTRL_TICKINT_Msk   |
                   SysTick_CTRL_ENABLE_Msk;                         /* Enable SysTick IRQ and SysTick Timer */
  return (0UL);                                                     /* Function successful */
 8006584:	2300      	movs	r3, #0
}
 8006586:	4618      	mov	r0, r3
 8006588:	3708      	adds	r7, #8
 800658a:	46bd      	mov	sp, r7
 800658c:	bd80      	pop	{r7, pc}
 800658e:	bf00      	nop
 8006590:	e000e010 	.word	0xe000e010

08006594 <HAL_NVIC_SetPriorityGrouping>:
  * @note   When the NVIC_PriorityGroup_0 is selected, IRQ preemption is no more possible. 
  *         The pending IRQ priority will be managed only by the subpriority. 
  * @retval None
  */
void HAL_NVIC_SetPriorityGrouping(uint32_t PriorityGroup)
{
 8006594:	b580      	push	{r7, lr}
 8006596:	b082      	sub	sp, #8
 8006598:	af00      	add	r7, sp, #0
 800659a:	6078      	str	r0, [r7, #4]
  /* Check the parameters */
  assert_param(IS_NVIC_PRIORITY_GROUP(PriorityGroup));
  
  /* Set the PRIGROUP[10:8] bits according to the PriorityGroup parameter value */
  NVIC_SetPriorityGrouping(PriorityGroup);
 800659c:	6878      	ldr	r0, [r7, #4]
 800659e:	f7ff ff2d 	bl	80063fc <__NVIC_SetPriorityGrouping>
}
 80065a2:	bf00      	nop
 80065a4:	3708      	adds	r7, #8
 80065a6:	46bd      	mov	sp, r7
 80065a8:	bd80      	pop	{r7, pc}

080065aa <HAL_NVIC_SetPriority>:
  *         This parameter can be a value between 0 and 15
  *         A lower priority value indicates a higher priority.          
  * @retval None
  */
void HAL_NVIC_SetPriority(IRQn_Type IRQn, uint32_t PreemptPriority, uint32_t SubPriority)
{ 
 80065aa:	b580      	push	{r7, lr}
 80065ac:	b086      	sub	sp, #24
 80065ae:	af00      	add	r7, sp, #0
 80065b0:	4603      	mov	r3, r0
 80065b2:	60b9      	str	r1, [r7, #8]
 80065b4:	607a      	str	r2, [r7, #4]
 80065b6:	73fb      	strb	r3, [r7, #15]
  uint32_t prioritygroup = 0x00U;
 80065b8:	2300      	movs	r3, #0
 80065ba:	617b      	str	r3, [r7, #20]
  
  /* Check the parameters */
  assert_param(IS_NVIC_SUB_PRIORITY(SubPriority));
  assert_param(IS_NVIC_PREEMPTION_PRIORITY(PreemptPriority));
  
  prioritygroup = NVIC_GetPriorityGrouping();
 80065bc:	f7ff ff42 	bl	8006444 <__NVIC_GetPriorityGrouping>
 80065c0:	6178      	str	r0, [r7, #20]
  
  NVIC_SetPriority(IRQn, NVIC_EncodePriority(prioritygroup, PreemptPriority, SubPriority));
 80065c2:	687a      	ldr	r2, [r7, #4]
 80065c4:	68b9      	ldr	r1, [r7, #8]
 80065c6:	6978      	ldr	r0, [r7, #20]
 80065c8:	f7ff ff90 	bl	80064ec <NVIC_EncodePriority>
 80065cc:	4602      	mov	r2, r0
 80065ce:	f997 300f 	ldrsb.w	r3, [r7, #15]
 80065d2:	4611      	mov	r1, r2
 80065d4:	4618      	mov	r0, r3
 80065d6:	f7ff ff5f 	bl	8006498 <__NVIC_SetPriority>
}
 80065da:	bf00      	nop
 80065dc:	3718      	adds	r7, #24
 80065de:	46bd      	mov	sp, r7
 80065e0:	bd80      	pop	{r7, pc}

080065e2 <HAL_NVIC_EnableIRQ>:
  *         This parameter can be an enumerator of IRQn_Type enumeration
  *         (For the complete STM32 Devices IRQ Channels list, please refer to the appropriate CMSIS device file (stm32f10xxx.h))
  * @retval None
  */
void HAL_NVIC_EnableIRQ(IRQn_Type IRQn)
{
 80065e2:	b580      	push	{r7, lr}
 80065e4:	b082      	sub	sp, #8
 80065e6:	af00      	add	r7, sp, #0
 80065e8:	4603      	mov	r3, r0
 80065ea:	71fb      	strb	r3, [r7, #7]
  /* Check the parameters */
  assert_param(IS_NVIC_DEVICE_IRQ(IRQn));

  /* Enable interrupt */
  NVIC_EnableIRQ(IRQn);
 80065ec:	f997 3007 	ldrsb.w	r3, [r7, #7]
 80065f0:	4618      	mov	r0, r3
 80065f2:	f7ff ff35 	bl	8006460 <__NVIC_EnableIRQ>
}
 80065f6:	bf00      	nop
 80065f8:	3708      	adds	r7, #8
 80065fa:	46bd      	mov	sp, r7
 80065fc:	bd80      	pop	{r7, pc}

080065fe <HAL_SYSTICK_Config>:
  * @param  TicksNumb: Specifies the ticks Number of ticks between two interrupts.
  * @retval status:  - 0  Function succeeded.
  *                  - 1  Function failed.
  */
uint32_t HAL_SYSTICK_Config(uint32_t TicksNumb)
{
 80065fe:	b580      	push	{r7, lr}
 8006600:	b082      	sub	sp, #8
 8006602:	af00      	add	r7, sp, #0
 8006604:	6078      	str	r0, [r7, #4]
   return SysTick_Config(TicksNumb);
 8006606:	6878      	ldr	r0, [r7, #4]
 8006608:	f7ff ffa2 	bl	8006550 <SysTick_Config>
 800660c:	4603      	mov	r3, r0
}
 800660e:	4618      	mov	r0, r3
 8006610:	3708      	adds	r7, #8
 8006612:	46bd      	mov	sp, r7
 8006614:	bd80      	pop	{r7, pc}
	...

08006618 <HAL_GPIO_Init>:
  * @param  GPIO_Init: pointer to a GPIO_InitTypeDef structure that contains
  *         the configuration information for the specified GPIO peripheral.
  * @retval None
  */
void HAL_GPIO_Init(GPIO_TypeDef  *GPIOx, GPIO_InitTypeDef *GPIO_Init)
{
 8006618:	b480      	push	{r7}
 800661a:	b08b      	sub	sp, #44	@ 0x2c
 800661c:	af00      	add	r7, sp, #0
 800661e:	6078      	str	r0, [r7, #4]
 8006620:	6039      	str	r1, [r7, #0]
  uint32_t position = 0x00u;
 8006622:	2300      	movs	r3, #0
 8006624:	627b      	str	r3, [r7, #36]	@ 0x24
  uint32_t ioposition;
  uint32_t iocurrent;
  uint32_t temp;
  uint32_t config = 0x00u;
 8006626:	2300      	movs	r3, #0
 8006628:	623b      	str	r3, [r7, #32]
  assert_param(IS_GPIO_ALL_INSTANCE(GPIOx));
  assert_param(IS_GPIO_PIN(GPIO_Init->Pin));
  assert_param(IS_GPIO_MODE(GPIO_Init->Mode));

  /* Configure the port pins */
  while (((GPIO_Init->Pin) >> position) != 0x00u)
 800662a:	e169      	b.n	8006900 <HAL_GPIO_Init+0x2e8>
  {
    /* Get the IO position */
    ioposition = (0x01uL << position);
 800662c:	2201      	movs	r2, #1
 800662e:	6a7b      	ldr	r3, [r7, #36]	@ 0x24
 8006630:	fa02 f303 	lsl.w	r3, r2, r3
 8006634:	61fb      	str	r3, [r7, #28]

    /* Get the current IO position */
    iocurrent = (uint32_t)(GPIO_Init->Pin) & ioposition;
 8006636:	683b      	ldr	r3, [r7, #0]
 8006638:	681b      	ldr	r3, [r3, #0]
 800663a:	69fa      	ldr	r2, [r7, #28]
 800663c:	4013      	ands	r3, r2
 800663e:	61bb      	str	r3, [r7, #24]

    if (iocurrent == ioposition)
 8006640:	69ba      	ldr	r2, [r7, #24]
 8006642:	69fb      	ldr	r3, [r7, #28]
 8006644:	429a      	cmp	r2, r3
 8006646:	f040 8158 	bne.w	80068fa <HAL_GPIO_Init+0x2e2>
    {
      /* Check the Alternate function parameters */
      assert_param(IS_GPIO_AF_INSTANCE(GPIOx));

      /* Based on the required mode, filling config variable with MODEy[1:0] and CNFy[3:2] corresponding bits */
      switch (GPIO_Init->Mode)
 800664a:	683b      	ldr	r3, [r7, #0]
 800664c:	685b      	ldr	r3, [r3, #4]
 800664e:	4a9a      	ldr	r2, [pc, #616]	@ (80068b8 <HAL_GPIO_Init+0x2a0>)
 8006650:	4293      	cmp	r3, r2
 8006652:	d05e      	beq.n	8006712 <HAL_GPIO_Init+0xfa>
 8006654:	4a98      	ldr	r2, [pc, #608]	@ (80068b8 <HAL_GPIO_Init+0x2a0>)
 8006656:	4293      	cmp	r3, r2
 8006658:	d875      	bhi.n	8006746 <HAL_GPIO_Init+0x12e>
 800665a:	4a98      	ldr	r2, [pc, #608]	@ (80068bc <HAL_GPIO_Init+0x2a4>)
 800665c:	4293      	cmp	r3, r2
 800665e:	d058      	beq.n	8006712 <HAL_GPIO_Init+0xfa>
 8006660:	4a96      	ldr	r2, [pc, #600]	@ (80068bc <HAL_GPIO_Init+0x2a4>)
 8006662:	4293      	cmp	r3, r2
 8006664:	d86f      	bhi.n	8006746 <HAL_GPIO_Init+0x12e>
 8006666:	4a96      	ldr	r2, [pc, #600]	@ (80068c0 <HAL_GPIO_Init+0x2a8>)
 8006668:	4293      	cmp	r3, r2
 800666a:	d052      	beq.n	8006712 <HAL_GPIO_Init+0xfa>
 800666c:	4a94      	ldr	r2, [pc, #592]	@ (80068c0 <HAL_GPIO_Init+0x2a8>)
 800666e:	4293      	cmp	r3, r2
 8006670:	d869      	bhi.n	8006746 <HAL_GPIO_Init+0x12e>
 8006672:	4a94      	ldr	r2, [pc, #592]	@ (80068c4 <HAL_GPIO_Init+0x2ac>)
 8006674:	4293      	cmp	r3, r2
 8006676:	d04c      	beq.n	8006712 <HAL_GPIO_Init+0xfa>
 8006678:	4a92      	ldr	r2, [pc, #584]	@ (80068c4 <HAL_GPIO_Init+0x2ac>)
 800667a:	4293      	cmp	r3, r2
 800667c:	d863      	bhi.n	8006746 <HAL_GPIO_Init+0x12e>
 800667e:	4a92      	ldr	r2, [pc, #584]	@ (80068c8 <HAL_GPIO_Init+0x2b0>)
 8006680:	4293      	cmp	r3, r2
 8006682:	d046      	beq.n	8006712 <HAL_GPIO_Init+0xfa>
 8006684:	4a90      	ldr	r2, [pc, #576]	@ (80068c8 <HAL_GPIO_Init+0x2b0>)
 8006686:	4293      	cmp	r3, r2
 8006688:	d85d      	bhi.n	8006746 <HAL_GPIO_Init+0x12e>
 800668a:	2b12      	cmp	r3, #18
 800668c:	d82a      	bhi.n	80066e4 <HAL_GPIO_Init+0xcc>
 800668e:	2b12      	cmp	r3, #18
 8006690:	d859      	bhi.n	8006746 <HAL_GPIO_Init+0x12e>
 8006692:	a201      	add	r2, pc, #4	@ (adr r2, 8006698 <HAL_GPIO_Init+0x80>)
 8006694:	f852 f023 	ldr.w	pc, [r2, r3, lsl #2]
 8006698:	08006713 	.word	0x08006713
 800669c:	080066ed 	.word	0x080066ed
 80066a0:	080066ff 	.word	0x080066ff
 80066a4:	08006741 	.word	0x08006741
 80066a8:	08006747 	.word	0x08006747
 80066ac:	08006747 	.word	0x08006747
 80066b0:	08006747 	.word	0x08006747
 80066b4:	08006747 	.word	0x08006747
 80066b8:	08006747 	.word	0x08006747
 80066bc:	08006747 	.word	0x08006747
 80066c0:	08006747 	.word	0x08006747
 80066c4:	08006747 	.word	0x08006747
 80066c8:	08006747 	.word	0x08006747
 80066cc:	08006747 	.word	0x08006747
 80066d0:	08006747 	.word	0x08006747
 80066d4:	08006747 	.word	0x08006747
 80066d8:	08006747 	.word	0x08006747
 80066dc:	080066f5 	.word	0x080066f5
 80066e0:	08006709 	.word	0x08006709
 80066e4:	4a79      	ldr	r2, [pc, #484]	@ (80068cc <HAL_GPIO_Init+0x2b4>)
 80066e6:	4293      	cmp	r3, r2
 80066e8:	d013      	beq.n	8006712 <HAL_GPIO_Init+0xfa>
          config = GPIO_CR_MODE_INPUT + GPIO_CR_CNF_ANALOG;
          break;

        /* Parameters are checked with assert_param */
        default:
          break;
 80066ea:	e02c      	b.n	8006746 <HAL_GPIO_Init+0x12e>
          config = GPIO_Init->Speed + GPIO_CR_CNF_GP_OUTPUT_PP;
 80066ec:	683b      	ldr	r3, [r7, #0]
 80066ee:	68db      	ldr	r3, [r3, #12]
 80066f0:	623b      	str	r3, [r7, #32]
          break;
 80066f2:	e029      	b.n	8006748 <HAL_GPIO_Init+0x130>
          config = GPIO_Init->Speed + GPIO_CR_CNF_GP_OUTPUT_OD;
 80066f4:	683b      	ldr	r3, [r7, #0]
 80066f6:	68db      	ldr	r3, [r3, #12]
 80066f8:	3304      	adds	r3, #4
 80066fa:	623b      	str	r3, [r7, #32]
          break;
 80066fc:	e024      	b.n	8006748 <HAL_GPIO_Init+0x130>
          config = GPIO_Init->Speed + GPIO_CR_CNF_AF_OUTPUT_PP;
 80066fe:	683b      	ldr	r3, [r7, #0]
 8006700:	68db      	ldr	r3, [r3, #12]
 8006702:	3308      	adds	r3, #8
 8006704:	623b      	str	r3, [r7, #32]
          break;
 8006706:	e01f      	b.n	8006748 <HAL_GPIO_Init+0x130>
          config = GPIO_Init->Speed + GPIO_CR_CNF_AF_OUTPUT_OD;
 8006708:	683b      	ldr	r3, [r7, #0]
 800670a:	68db      	ldr	r3, [r3, #12]
 800670c:	330c      	adds	r3, #12
 800670e:	623b      	str	r3, [r7, #32]
          break;
 8006710:	e01a      	b.n	8006748 <HAL_GPIO_Init+0x130>
          if (GPIO_Init->Pull == GPIO_NOPULL)
 8006712:	683b      	ldr	r3, [r7, #0]
 8006714:	689b      	ldr	r3, [r3, #8]
 8006716:	2b00      	cmp	r3, #0
 8006718:	d102      	bne.n	8006720 <HAL_GPIO_Init+0x108>
            config = GPIO_CR_MODE_INPUT + GPIO_CR_CNF_INPUT_FLOATING;
 800671a:	2304      	movs	r3, #4
 800671c:	623b      	str	r3, [r7, #32]
          break;
 800671e:	e013      	b.n	8006748 <HAL_GPIO_Init+0x130>
          else if (GPIO_Init->Pull == GPIO_PULLUP)
 8006720:	683b      	ldr	r3, [r7, #0]
 8006722:	689b      	ldr	r3, [r3, #8]
 8006724:	2b01      	cmp	r3, #1
 8006726:	d105      	bne.n	8006734 <HAL_GPIO_Init+0x11c>
            config = GPIO_CR_MODE_INPUT + GPIO_CR_CNF_INPUT_PU_PD;
 8006728:	2308      	movs	r3, #8
 800672a:	623b      	str	r3, [r7, #32]
            GPIOx->BSRR = ioposition;
 800672c:	687b      	ldr	r3, [r7, #4]
 800672e:	69fa      	ldr	r2, [r7, #28]
 8006730:	611a      	str	r2, [r3, #16]
          break;
 8006732:	e009      	b.n	8006748 <HAL_GPIO_Init+0x130>
            config = GPIO_CR_MODE_INPUT + GPIO_CR_CNF_INPUT_PU_PD;
 8006734:	2308      	movs	r3, #8
 8006736:	623b      	str	r3, [r7, #32]
            GPIOx->BRR = ioposition;
 8006738:	687b      	ldr	r3, [r7, #4]
 800673a:	69fa      	ldr	r2, [r7, #28]
 800673c:	615a      	str	r2, [r3, #20]
          break;
 800673e:	e003      	b.n	8006748 <HAL_GPIO_Init+0x130>
          config = GPIO_CR_MODE_INPUT + GPIO_CR_CNF_ANALOG;
 8006740:	2300      	movs	r3, #0
 8006742:	623b      	str	r3, [r7, #32]
          break;
 8006744:	e000      	b.n	8006748 <HAL_GPIO_Init+0x130>
          break;
 8006746:	bf00      	nop
      }

      /* Check if the current bit belongs to first half or last half of the pin count number
       in order to address CRH or CRL register*/
      configregister = (iocurrent < GPIO_PIN_8) ? &GPIOx->CRL     : &GPIOx->CRH;
 8006748:	69bb      	ldr	r3, [r7, #24]
 800674a:	2bff      	cmp	r3, #255	@ 0xff
 800674c:	d801      	bhi.n	8006752 <HAL_GPIO_Init+0x13a>
 800674e:	687b      	ldr	r3, [r7, #4]
 8006750:	e001      	b.n	8006756 <HAL_GPIO_Init+0x13e>
 8006752:	687b      	ldr	r3, [r7, #4]
 8006754:	3304      	adds	r3, #4
 8006756:	617b      	str	r3, [r7, #20]
      registeroffset = (iocurrent < GPIO_PIN_8) ? (position << 2u) : ((position - 8u) << 2u);
 8006758:	69bb      	ldr	r3, [r7, #24]
 800675a:	2bff      	cmp	r3, #255	@ 0xff
 800675c:	d802      	bhi.n	8006764 <HAL_GPIO_Init+0x14c>
 800675e:	6a7b      	ldr	r3, [r7, #36]	@ 0x24
 8006760:	009b      	lsls	r3, r3, #2
 8006762:	e002      	b.n	800676a <HAL_GPIO_Init+0x152>
 8006764:	6a7b      	ldr	r3, [r7, #36]	@ 0x24
 8006766:	3b08      	subs	r3, #8
 8006768:	009b      	lsls	r3, r3, #2
 800676a:	613b      	str	r3, [r7, #16]

      /* Apply the new configuration of the pin to the register */
      MODIFY_REG((*configregister), ((GPIO_CRL_MODE0 | GPIO_CRL_CNF0) << registeroffset), (config << registeroffset));
 800676c:	697b      	ldr	r3, [r7, #20]
 800676e:	681a      	ldr	r2, [r3, #0]
 8006770:	210f      	movs	r1, #15
 8006772:	693b      	ldr	r3, [r7, #16]
 8006774:	fa01 f303 	lsl.w	r3, r1, r3
 8006778:	43db      	mvns	r3, r3
 800677a:	401a      	ands	r2, r3
 800677c:	6a39      	ldr	r1, [r7, #32]
 800677e:	693b      	ldr	r3, [r7, #16]
 8006780:	fa01 f303 	lsl.w	r3, r1, r3
 8006784:	431a      	orrs	r2, r3
 8006786:	697b      	ldr	r3, [r7, #20]
 8006788:	601a      	str	r2, [r3, #0]

      /*--------------------- EXTI Mode Configuration ------------------------*/
      /* Configure the External Interrupt or event for the current IO */
      if ((GPIO_Init->Mode & EXTI_MODE) == EXTI_MODE)
 800678a:	683b      	ldr	r3, [r7, #0]
 800678c:	685b      	ldr	r3, [r3, #4]
 800678e:	f003 5380 	and.w	r3, r3, #268435456	@ 0x10000000
 8006792:	2b00      	cmp	r3, #0
 8006794:	f000 80b1 	beq.w	80068fa <HAL_GPIO_Init+0x2e2>
      {
        /* Enable AFIO Clock */
        __HAL_RCC_AFIO_CLK_ENABLE();
 8006798:	4b4d      	ldr	r3, [pc, #308]	@ (80068d0 <HAL_GPIO_Init+0x2b8>)
 800679a:	699b      	ldr	r3, [r3, #24]
 800679c:	4a4c      	ldr	r2, [pc, #304]	@ (80068d0 <HAL_GPIO_Init+0x2b8>)
 800679e:	f043 0301 	orr.w	r3, r3, #1
 80067a2:	6193      	str	r3, [r2, #24]
 80067a4:	4b4a      	ldr	r3, [pc, #296]	@ (80068d0 <HAL_GPIO_Init+0x2b8>)
 80067a6:	699b      	ldr	r3, [r3, #24]
 80067a8:	f003 0301 	and.w	r3, r3, #1
 80067ac:	60bb      	str	r3, [r7, #8]
 80067ae:	68bb      	ldr	r3, [r7, #8]
        temp = AFIO->EXTICR[position >> 2u];
 80067b0:	4a48      	ldr	r2, [pc, #288]	@ (80068d4 <HAL_GPIO_Init+0x2bc>)
 80067b2:	6a7b      	ldr	r3, [r7, #36]	@ 0x24
 80067b4:	089b      	lsrs	r3, r3, #2
 80067b6:	3302      	adds	r3, #2
 80067b8:	f852 3023 	ldr.w	r3, [r2, r3, lsl #2]
 80067bc:	60fb      	str	r3, [r7, #12]
        CLEAR_BIT(temp, (0x0Fu) << (4u * (position & 0x03u)));
 80067be:	6a7b      	ldr	r3, [r7, #36]	@ 0x24
 80067c0:	f003 0303 	and.w	r3, r3, #3
 80067c4:	009b      	lsls	r3, r3, #2
 80067c6:	220f      	movs	r2, #15
 80067c8:	fa02 f303 	lsl.w	r3, r2, r3
 80067cc:	43db      	mvns	r3, r3
 80067ce:	68fa      	ldr	r2, [r7, #12]
 80067d0:	4013      	ands	r3, r2
 80067d2:	60fb      	str	r3, [r7, #12]
        SET_BIT(temp, (GPIO_GET_INDEX(GPIOx)) << (4u * (position & 0x03u)));
 80067d4:	687b      	ldr	r3, [r7, #4]
 80067d6:	4a40      	ldr	r2, [pc, #256]	@ (80068d8 <HAL_GPIO_Init+0x2c0>)
 80067d8:	4293      	cmp	r3, r2
 80067da:	d013      	beq.n	8006804 <HAL_GPIO_Init+0x1ec>
 80067dc:	687b      	ldr	r3, [r7, #4]
 80067de:	4a3f      	ldr	r2, [pc, #252]	@ (80068dc <HAL_GPIO_Init+0x2c4>)
 80067e0:	4293      	cmp	r3, r2
 80067e2:	d00d      	beq.n	8006800 <HAL_GPIO_Init+0x1e8>
 80067e4:	687b      	ldr	r3, [r7, #4]
 80067e6:	4a3e      	ldr	r2, [pc, #248]	@ (80068e0 <HAL_GPIO_Init+0x2c8>)
 80067e8:	4293      	cmp	r3, r2
 80067ea:	d007      	beq.n	80067fc <HAL_GPIO_Init+0x1e4>
 80067ec:	687b      	ldr	r3, [r7, #4]
 80067ee:	4a3d      	ldr	r2, [pc, #244]	@ (80068e4 <HAL_GPIO_Init+0x2cc>)
 80067f0:	4293      	cmp	r3, r2
 80067f2:	d101      	bne.n	80067f8 <HAL_GPIO_Init+0x1e0>
 80067f4:	2303      	movs	r3, #3
 80067f6:	e006      	b.n	8006806 <HAL_GPIO_Init+0x1ee>
 80067f8:	2304      	movs	r3, #4
 80067fa:	e004      	b.n	8006806 <HAL_GPIO_Init+0x1ee>
 80067fc:	2302      	movs	r3, #2
 80067fe:	e002      	b.n	8006806 <HAL_GPIO_Init+0x1ee>
 8006800:	2301      	movs	r3, #1
 8006802:	e000      	b.n	8006806 <HAL_GPIO_Init+0x1ee>
 8006804:	2300      	movs	r3, #0
 8006806:	6a7a      	ldr	r2, [r7, #36]	@ 0x24
 8006808:	f002 0203 	and.w	r2, r2, #3
 800680c:	0092      	lsls	r2, r2, #2
 800680e:	4093      	lsls	r3, r2
 8006810:	68fa      	ldr	r2, [r7, #12]
 8006812:	4313      	orrs	r3, r2
 8006814:	60fb      	str	r3, [r7, #12]
        AFIO->EXTICR[position >> 2u] = temp;
 8006816:	492f      	ldr	r1, [pc, #188]	@ (80068d4 <HAL_GPIO_Init+0x2bc>)
 8006818:	6a7b      	ldr	r3, [r7, #36]	@ 0x24
 800681a:	089b      	lsrs	r3, r3, #2
 800681c:	3302      	adds	r3, #2
 800681e:	68fa      	ldr	r2, [r7, #12]
 8006820:	f841 2023 	str.w	r2, [r1, r3, lsl #2]


        /* Enable or disable the rising trigger */
        if ((GPIO_Init->Mode & RISING_EDGE) == RISING_EDGE)
 8006824:	683b      	ldr	r3, [r7, #0]
 8006826:	685b      	ldr	r3, [r3, #4]
 8006828:	f403 1380 	and.w	r3, r3, #1048576	@ 0x100000
 800682c:	2b00      	cmp	r3, #0
 800682e:	d006      	beq.n	800683e <HAL_GPIO_Init+0x226>
        {
          SET_BIT(EXTI->RTSR, iocurrent);
 8006830:	4b2d      	ldr	r3, [pc, #180]	@ (80068e8 <HAL_GPIO_Init+0x2d0>)
 8006832:	689a      	ldr	r2, [r3, #8]
 8006834:	492c      	ldr	r1, [pc, #176]	@ (80068e8 <HAL_GPIO_Init+0x2d0>)
 8006836:	69bb      	ldr	r3, [r7, #24]
 8006838:	4313      	orrs	r3, r2
 800683a:	608b      	str	r3, [r1, #8]
 800683c:	e006      	b.n	800684c <HAL_GPIO_Init+0x234>
        }
        else
        {
          CLEAR_BIT(EXTI->RTSR, iocurrent);
 800683e:	4b2a      	ldr	r3, [pc, #168]	@ (80068e8 <HAL_GPIO_Init+0x2d0>)
 8006840:	689a      	ldr	r2, [r3, #8]
 8006842:	69bb      	ldr	r3, [r7, #24]
 8006844:	43db      	mvns	r3, r3
 8006846:	4928      	ldr	r1, [pc, #160]	@ (80068e8 <HAL_GPIO_Init+0x2d0>)
 8006848:	4013      	ands	r3, r2
 800684a:	608b      	str	r3, [r1, #8]
        }

        /* Enable or disable the falling trigger */
        if ((GPIO_Init->Mode & FALLING_EDGE) == FALLING_EDGE)
 800684c:	683b      	ldr	r3, [r7, #0]
 800684e:	685b      	ldr	r3, [r3, #4]
 8006850:	f403 1300 	and.w	r3, r3, #2097152	@ 0x200000
 8006854:	2b00      	cmp	r3, #0
 8006856:	d006      	beq.n	8006866 <HAL_GPIO_Init+0x24e>
        {
          SET_BIT(EXTI->FTSR, iocurrent);
 8006858:	4b23      	ldr	r3, [pc, #140]	@ (80068e8 <HAL_GPIO_Init+0x2d0>)
 800685a:	68da      	ldr	r2, [r3, #12]
 800685c:	4922      	ldr	r1, [pc, #136]	@ (80068e8 <HAL_GPIO_Init+0x2d0>)
 800685e:	69bb      	ldr	r3, [r7, #24]
 8006860:	4313      	orrs	r3, r2
 8006862:	60cb      	str	r3, [r1, #12]
 8006864:	e006      	b.n	8006874 <HAL_GPIO_Init+0x25c>
        }
        else
        {
          CLEAR_BIT(EXTI->FTSR, iocurrent);
 8006866:	4b20      	ldr	r3, [pc, #128]	@ (80068e8 <HAL_GPIO_Init+0x2d0>)
 8006868:	68da      	ldr	r2, [r3, #12]
 800686a:	69bb      	ldr	r3, [r7, #24]
 800686c:	43db      	mvns	r3, r3
 800686e:	491e      	ldr	r1, [pc, #120]	@ (80068e8 <HAL_GPIO_Init+0x2d0>)
 8006870:	4013      	ands	r3, r2
 8006872:	60cb      	str	r3, [r1, #12]
        }

        /* Configure the event mask */
        if ((GPIO_Init->Mode & GPIO_MODE_EVT) == GPIO_MODE_EVT)
 8006874:	683b      	ldr	r3, [r7, #0]
 8006876:	685b      	ldr	r3, [r3, #4]
 8006878:	f403 3300 	and.w	r3, r3, #131072	@ 0x20000
 800687c:	2b00      	cmp	r3, #0
 800687e:	d006      	beq.n	800688e <HAL_GPIO_Init+0x276>
        {
          SET_BIT(EXTI->EMR, iocurrent);
 8006880:	4b19      	ldr	r3, [pc, #100]	@ (80068e8 <HAL_GPIO_Init+0x2d0>)
 8006882:	685a      	ldr	r2, [r3, #4]
 8006884:	4918      	ldr	r1, [pc, #96]	@ (80068e8 <HAL_GPIO_Init+0x2d0>)
 8006886:	69bb      	ldr	r3, [r7, #24]
 8006888:	4313      	orrs	r3, r2
 800688a:	604b      	str	r3, [r1, #4]
 800688c:	e006      	b.n	800689c <HAL_GPIO_Init+0x284>
        }
        else
        {
          CLEAR_BIT(EXTI->EMR, iocurrent);
 800688e:	4b16      	ldr	r3, [pc, #88]	@ (80068e8 <HAL_GPIO_Init+0x2d0>)
 8006890:	685a      	ldr	r2, [r3, #4]
 8006892:	69bb      	ldr	r3, [r7, #24]
 8006894:	43db      	mvns	r3, r3
 8006896:	4914      	ldr	r1, [pc, #80]	@ (80068e8 <HAL_GPIO_Init+0x2d0>)
 8006898:	4013      	ands	r3, r2
 800689a:	604b      	str	r3, [r1, #4]
        }

        /* Configure the interrupt mask */
        if ((GPIO_Init->Mode & GPIO_MODE_IT) == GPIO_MODE_IT)
 800689c:	683b      	ldr	r3, [r7, #0]
 800689e:	685b      	ldr	r3, [r3, #4]
 80068a0:	f403 3380 	and.w	r3, r3, #65536	@ 0x10000
 80068a4:	2b00      	cmp	r3, #0
 80068a6:	d021      	beq.n	80068ec <HAL_GPIO_Init+0x2d4>
        {
          SET_BIT(EXTI->IMR, iocurrent);
 80068a8:	4b0f      	ldr	r3, [pc, #60]	@ (80068e8 <HAL_GPIO_Init+0x2d0>)
 80068aa:	681a      	ldr	r2, [r3, #0]
 80068ac:	490e      	ldr	r1, [pc, #56]	@ (80068e8 <HAL_GPIO_Init+0x2d0>)
 80068ae:	69bb      	ldr	r3, [r7, #24]
 80068b0:	4313      	orrs	r3, r2
 80068b2:	600b      	str	r3, [r1, #0]
 80068b4:	e021      	b.n	80068fa <HAL_GPIO_Init+0x2e2>
 80068b6:	bf00      	nop
 80068b8:	10320000 	.word	0x10320000
 80068bc:	10310000 	.word	0x10310000
 80068c0:	10220000 	.word	0x10220000
 80068c4:	10210000 	.word	0x10210000
 80068c8:	10120000 	.word	0x10120000
 80068cc:	10110000 	.word	0x10110000
 80068d0:	40021000 	.word	0x40021000
 80068d4:	40010000 	.word	0x40010000
 80068d8:	40010800 	.word	0x40010800
 80068dc:	40010c00 	.word	0x40010c00
 80068e0:	40011000 	.word	0x40011000
 80068e4:	40011400 	.word	0x40011400
 80068e8:	40010400 	.word	0x40010400
        }
        else
        {
          CLEAR_BIT(EXTI->IMR, iocurrent);
 80068ec:	4b0b      	ldr	r3, [pc, #44]	@ (800691c <HAL_GPIO_Init+0x304>)
 80068ee:	681a      	ldr	r2, [r3, #0]
 80068f0:	69bb      	ldr	r3, [r7, #24]
 80068f2:	43db      	mvns	r3, r3
 80068f4:	4909      	ldr	r1, [pc, #36]	@ (800691c <HAL_GPIO_Init+0x304>)
 80068f6:	4013      	ands	r3, r2
 80068f8:	600b      	str	r3, [r1, #0]
        }
      }
    }

	position++;
 80068fa:	6a7b      	ldr	r3, [r7, #36]	@ 0x24
 80068fc:	3301      	adds	r3, #1
 80068fe:	627b      	str	r3, [r7, #36]	@ 0x24
  while (((GPIO_Init->Pin) >> position) != 0x00u)
 8006900:	683b      	ldr	r3, [r7, #0]
 8006902:	681a      	ldr	r2, [r3, #0]
 8006904:	6a7b      	ldr	r3, [r7, #36]	@ 0x24
 8006906:	fa22 f303 	lsr.w	r3, r2, r3
 800690a:	2b00      	cmp	r3, #0
 800690c:	f47f ae8e 	bne.w	800662c <HAL_GPIO_Init+0x14>
  }
}
 8006910:	bf00      	nop
 8006912:	bf00      	nop
 8006914:	372c      	adds	r7, #44	@ 0x2c
 8006916:	46bd      	mov	sp, r7
 8006918:	bc80      	pop	{r7}
 800691a:	4770      	bx	lr
 800691c:	40010400 	.word	0x40010400

08006920 <HAL_GPIO_DeInit>:
  * @param  GPIO_Pin: specifies the port bit to be written.
  *         This parameter can be one of GPIO_PIN_x where x can be (0..15).
  * @retval None
  */
void HAL_GPIO_DeInit(GPIO_TypeDef  *GPIOx, uint32_t GPIO_Pin)
{
 8006920:	b480      	push	{r7}
 8006922:	b089      	sub	sp, #36	@ 0x24
 8006924:	af00      	add	r7, sp, #0
 8006926:	6078      	str	r0, [r7, #4]
 8006928:	6039      	str	r1, [r7, #0]
  uint32_t position = 0x00u;
 800692a:	2300      	movs	r3, #0
 800692c:	61fb      	str	r3, [r7, #28]
  /* Check the parameters */
  assert_param(IS_GPIO_ALL_INSTANCE(GPIOx));
  assert_param(IS_GPIO_PIN(GPIO_Pin));

  /* Configure the port pins */
  while ((GPIO_Pin >> position) != 0u)
 800692e:	e09a      	b.n	8006a66 <HAL_GPIO_DeInit+0x146>
  {
    /* Get current io position */
    iocurrent = (GPIO_Pin) & (1uL << position);
 8006930:	2201      	movs	r2, #1
 8006932:	69fb      	ldr	r3, [r7, #28]
 8006934:	fa02 f303 	lsl.w	r3, r2, r3
 8006938:	683a      	ldr	r2, [r7, #0]
 800693a:	4013      	ands	r3, r2
 800693c:	61bb      	str	r3, [r7, #24]

    if (iocurrent)
 800693e:	69bb      	ldr	r3, [r7, #24]
 8006940:	2b00      	cmp	r3, #0
 8006942:	f000 808d 	beq.w	8006a60 <HAL_GPIO_DeInit+0x140>
    {
      /*------------------------- EXTI Mode Configuration --------------------*/
      /* Clear the External Interrupt or Event for the current IO */

      tmp = AFIO->EXTICR[position >> 2u];
 8006946:	4a4e      	ldr	r2, [pc, #312]	@ (8006a80 <HAL_GPIO_DeInit+0x160>)
 8006948:	69fb      	ldr	r3, [r7, #28]
 800694a:	089b      	lsrs	r3, r3, #2
 800694c:	3302      	adds	r3, #2
 800694e:	f852 3023 	ldr.w	r3, [r2, r3, lsl #2]
 8006952:	617b      	str	r3, [r7, #20]
      tmp &= 0x0FuL << (4u * (position & 0x03u));
 8006954:	69fb      	ldr	r3, [r7, #28]
 8006956:	f003 0303 	and.w	r3, r3, #3
 800695a:	009b      	lsls	r3, r3, #2
 800695c:	220f      	movs	r2, #15
 800695e:	fa02 f303 	lsl.w	r3, r2, r3
 8006962:	697a      	ldr	r2, [r7, #20]
 8006964:	4013      	ands	r3, r2
 8006966:	617b      	str	r3, [r7, #20]
      if (tmp == (GPIO_GET_INDEX(GPIOx) << (4u * (position & 0x03u))))
 8006968:	687b      	ldr	r3, [r7, #4]
 800696a:	4a46      	ldr	r2, [pc, #280]	@ (8006a84 <HAL_GPIO_DeInit+0x164>)
 800696c:	4293      	cmp	r3, r2
 800696e:	d013      	beq.n	8006998 <HAL_GPIO_DeInit+0x78>
 8006970:	687b      	ldr	r3, [r7, #4]
 8006972:	4a45      	ldr	r2, [pc, #276]	@ (8006a88 <HAL_GPIO_DeInit+0x168>)
 8006974:	4293      	cmp	r3, r2
 8006976:	d00d      	beq.n	8006994 <HAL_GPIO_DeInit+0x74>
 8006978:	687b      	ldr	r3, [r7, #4]
 800697a:	4a44      	ldr	r2, [pc, #272]	@ (8006a8c <HAL_GPIO_DeInit+0x16c>)
 800697c:	4293      	cmp	r3, r2
 800697e:	d007      	beq.n	8006990 <HAL_GPIO_DeInit+0x70>
 8006980:	687b      	ldr	r3, [r7, #4]
 8006982:	4a43      	ldr	r2, [pc, #268]	@ (8006a90 <HAL_GPIO_DeInit+0x170>)
 8006984:	4293      	cmp	r3, r2
 8006986:	d101      	bne.n	800698c <HAL_GPIO_DeInit+0x6c>
 8006988:	2303      	movs	r3, #3
 800698a:	e006      	b.n	800699a <HAL_GPIO_DeInit+0x7a>
 800698c:	2304      	movs	r3, #4
 800698e:	e004      	b.n	800699a <HAL_GPIO_DeInit+0x7a>
 8006990:	2302      	movs	r3, #2
 8006992:	e002      	b.n	800699a <HAL_GPIO_DeInit+0x7a>
 8006994:	2301      	movs	r3, #1
 8006996:	e000      	b.n	800699a <HAL_GPIO_DeInit+0x7a>
 8006998:	2300      	movs	r3, #0
 800699a:	69fa      	ldr	r2, [r7, #28]
 800699c:	f002 0203 	and.w	r2, r2, #3
 80069a0:	0092      	lsls	r2, r2, #2
 80069a2:	4093      	lsls	r3, r2
 80069a4:	697a      	ldr	r2, [r7, #20]
 80069a6:	429a      	cmp	r2, r3
 80069a8:	d132      	bne.n	8006a10 <HAL_GPIO_DeInit+0xf0>
      {
        /* Clear EXTI line configuration */
        CLEAR_BIT(EXTI->IMR, (uint32_t)iocurrent);
 80069aa:	4b3a      	ldr	r3, [pc, #232]	@ (8006a94 <HAL_GPIO_DeInit+0x174>)
 80069ac:	681a      	ldr	r2, [r3, #0]
 80069ae:	69bb      	ldr	r3, [r7, #24]
 80069b0:	43db      	mvns	r3, r3
 80069b2:	4938      	ldr	r1, [pc, #224]	@ (8006a94 <HAL_GPIO_DeInit+0x174>)
 80069b4:	4013      	ands	r3, r2
 80069b6:	600b      	str	r3, [r1, #0]
        CLEAR_BIT(EXTI->EMR, (uint32_t)iocurrent);
 80069b8:	4b36      	ldr	r3, [pc, #216]	@ (8006a94 <HAL_GPIO_DeInit+0x174>)
 80069ba:	685a      	ldr	r2, [r3, #4]
 80069bc:	69bb      	ldr	r3, [r7, #24]
 80069be:	43db      	mvns	r3, r3
 80069c0:	4934      	ldr	r1, [pc, #208]	@ (8006a94 <HAL_GPIO_DeInit+0x174>)
 80069c2:	4013      	ands	r3, r2
 80069c4:	604b      	str	r3, [r1, #4]

        /* Clear Rising Falling edge configuration */
        CLEAR_BIT(EXTI->FTSR, (uint32_t)iocurrent);
 80069c6:	4b33      	ldr	r3, [pc, #204]	@ (8006a94 <HAL_GPIO_DeInit+0x174>)
 80069c8:	68da      	ldr	r2, [r3, #12]
 80069ca:	69bb      	ldr	r3, [r7, #24]
 80069cc:	43db      	mvns	r3, r3
 80069ce:	4931      	ldr	r1, [pc, #196]	@ (8006a94 <HAL_GPIO_DeInit+0x174>)
 80069d0:	4013      	ands	r3, r2
 80069d2:	60cb      	str	r3, [r1, #12]
        CLEAR_BIT(EXTI->RTSR, (uint32_t)iocurrent);
 80069d4:	4b2f      	ldr	r3, [pc, #188]	@ (8006a94 <HAL_GPIO_DeInit+0x174>)
 80069d6:	689a      	ldr	r2, [r3, #8]
 80069d8:	69bb      	ldr	r3, [r7, #24]
 80069da:	43db      	mvns	r3, r3
 80069dc:	492d      	ldr	r1, [pc, #180]	@ (8006a94 <HAL_GPIO_DeInit+0x174>)
 80069de:	4013      	ands	r3, r2
 80069e0:	608b      	str	r3, [r1, #8]
        
        tmp = 0x0FuL << (4u * (position & 0x03u));
 80069e2:	69fb      	ldr	r3, [r7, #28]
 80069e4:	f003 0303 	and.w	r3, r3, #3
 80069e8:	009b      	lsls	r3, r3, #2
 80069ea:	220f      	movs	r2, #15
 80069ec:	fa02 f303 	lsl.w	r3, r2, r3
 80069f0:	617b      	str	r3, [r7, #20]
        CLEAR_BIT(AFIO->EXTICR[position >> 2u], tmp);
 80069f2:	4a23      	ldr	r2, [pc, #140]	@ (8006a80 <HAL_GPIO_DeInit+0x160>)
 80069f4:	69fb      	ldr	r3, [r7, #28]
 80069f6:	089b      	lsrs	r3, r3, #2
 80069f8:	3302      	adds	r3, #2
 80069fa:	f852 1023 	ldr.w	r1, [r2, r3, lsl #2]
 80069fe:	697b      	ldr	r3, [r7, #20]
 8006a00:	43da      	mvns	r2, r3
 8006a02:	481f      	ldr	r0, [pc, #124]	@ (8006a80 <HAL_GPIO_DeInit+0x160>)
 8006a04:	69fb      	ldr	r3, [r7, #28]
 8006a06:	089b      	lsrs	r3, r3, #2
 8006a08:	400a      	ands	r2, r1
 8006a0a:	3302      	adds	r3, #2
 8006a0c:	f840 2023 	str.w	r2, [r0, r3, lsl #2]
      }
      /*------------------------- GPIO Mode Configuration --------------------*/
      /* Check if the current bit belongs to first half or last half of the pin count number
       in order to address CRH or CRL register */
      configregister = (iocurrent < GPIO_PIN_8) ? &GPIOx->CRL     : &GPIOx->CRH;
 8006a10:	69bb      	ldr	r3, [r7, #24]
 8006a12:	2bff      	cmp	r3, #255	@ 0xff
 8006a14:	d801      	bhi.n	8006a1a <HAL_GPIO_DeInit+0xfa>
 8006a16:	687b      	ldr	r3, [r7, #4]
 8006a18:	e001      	b.n	8006a1e <HAL_GPIO_DeInit+0xfe>
 8006a1a:	687b      	ldr	r3, [r7, #4]
 8006a1c:	3304      	adds	r3, #4
 8006a1e:	613b      	str	r3, [r7, #16]
      registeroffset = (iocurrent < GPIO_PIN_8) ? (position << 2u) : ((position - 8u) << 2u);
 8006a20:	69bb      	ldr	r3, [r7, #24]
 8006a22:	2bff      	cmp	r3, #255	@ 0xff
 8006a24:	d802      	bhi.n	8006a2c <HAL_GPIO_DeInit+0x10c>
 8006a26:	69fb      	ldr	r3, [r7, #28]
 8006a28:	009b      	lsls	r3, r3, #2
 8006a2a:	e002      	b.n	8006a32 <HAL_GPIO_DeInit+0x112>
 8006a2c:	69fb      	ldr	r3, [r7, #28]
 8006a2e:	3b08      	subs	r3, #8
 8006a30:	009b      	lsls	r3, r3, #2
 8006a32:	60fb      	str	r3, [r7, #12]

      /* CRL/CRH default value is floating input(0x04) shifted to correct position */
      MODIFY_REG(*configregister, ((GPIO_CRL_MODE0 | GPIO_CRL_CNF0) << registeroffset), GPIO_CRL_CNF0_0 << registeroffset);
 8006a34:	693b      	ldr	r3, [r7, #16]
 8006a36:	681a      	ldr	r2, [r3, #0]
 8006a38:	210f      	movs	r1, #15
 8006a3a:	68fb      	ldr	r3, [r7, #12]
 8006a3c:	fa01 f303 	lsl.w	r3, r1, r3
 8006a40:	43db      	mvns	r3, r3
 8006a42:	401a      	ands	r2, r3
 8006a44:	2104      	movs	r1, #4
 8006a46:	68fb      	ldr	r3, [r7, #12]
 8006a48:	fa01 f303 	lsl.w	r3, r1, r3
 8006a4c:	431a      	orrs	r2, r3
 8006a4e:	693b      	ldr	r3, [r7, #16]
 8006a50:	601a      	str	r2, [r3, #0]

      /* ODR default value is 0 */
      CLEAR_BIT(GPIOx->ODR, iocurrent);
 8006a52:	687b      	ldr	r3, [r7, #4]
 8006a54:	68da      	ldr	r2, [r3, #12]
 8006a56:	69bb      	ldr	r3, [r7, #24]
 8006a58:	43db      	mvns	r3, r3
 8006a5a:	401a      	ands	r2, r3
 8006a5c:	687b      	ldr	r3, [r7, #4]
 8006a5e:	60da      	str	r2, [r3, #12]
    }

    position++;
 8006a60:	69fb      	ldr	r3, [r7, #28]
 8006a62:	3301      	adds	r3, #1
 8006a64:	61fb      	str	r3, [r7, #28]
  while ((GPIO_Pin >> position) != 0u)
 8006a66:	683a      	ldr	r2, [r7, #0]
 8006a68:	69fb      	ldr	r3, [r7, #28]
 8006a6a:	fa22 f303 	lsr.w	r3, r2, r3
 8006a6e:	2b00      	cmp	r3, #0
 8006a70:	f47f af5e 	bne.w	8006930 <HAL_GPIO_DeInit+0x10>
  }
}
 8006a74:	bf00      	nop
 8006a76:	bf00      	nop
 8006a78:	3724      	adds	r7, #36	@ 0x24
 8006a7a:	46bd      	mov	sp, r7
 8006a7c:	bc80      	pop	{r7}
 8006a7e:	4770      	bx	lr
 8006a80:	40010000 	.word	0x40010000
 8006a84:	40010800 	.word	0x40010800
 8006a88:	40010c00 	.word	0x40010c00
 8006a8c:	40011000 	.word	0x40011000
 8006a90:	40011400 	.word	0x40011400
 8006a94:	40010400 	.word	0x40010400

08006a98 <HAL_GPIO_WritePin>:
  *            @arg GPIO_PIN_RESET: to clear the port pin
  *            @arg GPIO_PIN_SET: to set the port pin
  * @retval None
  */
void HAL_GPIO_WritePin(GPIO_TypeDef *GPIOx, uint16_t GPIO_Pin, GPIO_PinState PinState)
{
 8006a98:	b480      	push	{r7}
 8006a9a:	b083      	sub	sp, #12
 8006a9c:	af00      	add	r7, sp, #0
 8006a9e:	6078      	str	r0, [r7, #4]
 8006aa0:	460b      	mov	r3, r1
 8006aa2:	807b      	strh	r3, [r7, #2]
 8006aa4:	4613      	mov	r3, r2
 8006aa6:	707b      	strb	r3, [r7, #1]
  /* Check the parameters */
  assert_param(IS_GPIO_PIN(GPIO_Pin));
  assert_param(IS_GPIO_PIN_ACTION(PinState));

  if (PinState != GPIO_PIN_RESET)
 8006aa8:	787b      	ldrb	r3, [r7, #1]
 8006aaa:	2b00      	cmp	r3, #0
 8006aac:	d003      	beq.n	8006ab6 <HAL_GPIO_WritePin+0x1e>
  {
    GPIOx->BSRR = GPIO_Pin;
 8006aae:	887a      	ldrh	r2, [r7, #2]
 8006ab0:	687b      	ldr	r3, [r7, #4]
 8006ab2:	611a      	str	r2, [r3, #16]
  }
  else
  {
    GPIOx->BSRR = (uint32_t)GPIO_Pin << 16u;
  }
}
 8006ab4:	e003      	b.n	8006abe <HAL_GPIO_WritePin+0x26>
    GPIOx->BSRR = (uint32_t)GPIO_Pin << 16u;
 8006ab6:	887b      	ldrh	r3, [r7, #2]
 8006ab8:	041a      	lsls	r2, r3, #16
 8006aba:	687b      	ldr	r3, [r7, #4]
 8006abc:	611a      	str	r2, [r3, #16]
}
 8006abe:	bf00      	nop
 8006ac0:	370c      	adds	r7, #12
 8006ac2:	46bd      	mov	sp, r7
 8006ac4:	bc80      	pop	{r7}
 8006ac6:	4770      	bx	lr

08006ac8 <HAL_GPIO_TogglePin>:
  * @param  GPIOx: where x can be (A..G depending on device used) to select the GPIO peripheral
  * @param  GPIO_Pin: Specifies the pins to be toggled.
  * @retval None
  */
void HAL_GPIO_TogglePin(GPIO_TypeDef *GPIOx, uint16_t GPIO_Pin)
{
 8006ac8:	b480      	push	{r7}
 8006aca:	b085      	sub	sp, #20
 8006acc:	af00      	add	r7, sp, #0
 8006ace:	6078      	str	r0, [r7, #4]
 8006ad0:	460b      	mov	r3, r1
 8006ad2:	807b      	strh	r3, [r7, #2]

  /* Check the parameters */
  assert_param(IS_GPIO_PIN(GPIO_Pin));

  /* get current Output Data Register value */
  odr = GPIOx->ODR;
 8006ad4:	687b      	ldr	r3, [r7, #4]
 8006ad6:	68db      	ldr	r3, [r3, #12]
 8006ad8:	60fb      	str	r3, [r7, #12]

  /* Set selected pins that were at low level, and reset ones that were high */
  GPIOx->BSRR = ((odr & GPIO_Pin) << GPIO_NUMBER) | (~odr & GPIO_Pin);
 8006ada:	887a      	ldrh	r2, [r7, #2]
 8006adc:	68fb      	ldr	r3, [r7, #12]
 8006ade:	4013      	ands	r3, r2
 8006ae0:	041a      	lsls	r2, r3, #16
 8006ae2:	68fb      	ldr	r3, [r7, #12]
 8006ae4:	43d9      	mvns	r1, r3
 8006ae6:	887b      	ldrh	r3, [r7, #2]
 8006ae8:	400b      	ands	r3, r1
 8006aea:	431a      	orrs	r2, r3
 8006aec:	687b      	ldr	r3, [r7, #4]
 8006aee:	611a      	str	r2, [r3, #16]
}
 8006af0:	bf00      	nop
 8006af2:	3714      	adds	r7, #20
 8006af4:	46bd      	mov	sp, r7
 8006af6:	bc80      	pop	{r7}
 8006af8:	4770      	bx	lr

08006afa <HAL_PCD_Init>:
  *         parameters in the PCD_InitTypeDef and initialize the associated handle.
  * @param  hpcd PCD handle
  * @retval HAL status
  */
HAL_StatusTypeDef HAL_PCD_Init(PCD_HandleTypeDef *hpcd)
{
 8006afa:	b580      	push	{r7, lr}
 8006afc:	b084      	sub	sp, #16
 8006afe:	af00      	add	r7, sp, #0
 8006b00:	6078      	str	r0, [r7, #4]
  uint8_t i;

  /* Check the PCD handle allocation */
  if (hpcd == NULL)
 8006b02:	687b      	ldr	r3, [r7, #4]
 8006b04:	2b00      	cmp	r3, #0
 8006b06:	d101      	bne.n	8006b0c <HAL_PCD_Init+0x12>
  {
    return HAL_ERROR;
 8006b08:	2301      	movs	r3, #1
 8006b0a:	e0e8      	b.n	8006cde <HAL_PCD_Init+0x1e4>
  }

  /* Check the parameters */
  assert_param(IS_PCD_ALL_INSTANCE(hpcd->Instance));

  if (hpcd->State == HAL_PCD_STATE_RESET)
 8006b0c:	687b      	ldr	r3, [r7, #4]
 8006b0e:	f893 3291 	ldrb.w	r3, [r3, #657]	@ 0x291
 8006b12:	b2db      	uxtb	r3, r3
 8006b14:	2b00      	cmp	r3, #0
 8006b16:	d106      	bne.n	8006b26 <HAL_PCD_Init+0x2c>
  {
    /* Allocate lock resource and initialize it */
    hpcd->Lock = HAL_UNLOCKED;
 8006b18:	687b      	ldr	r3, [r7, #4]
 8006b1a:	2200      	movs	r2, #0
 8006b1c:	f883 2290 	strb.w	r2, [r3, #656]	@ 0x290

    /* Init the low level hardware */
    hpcd->MspInitCallback(hpcd);
#else
    /* Init the low level hardware : GPIO, CLOCK, NVIC... */
    HAL_PCD_MspInit(hpcd);
 8006b20:	6878      	ldr	r0, [r7, #4]
 8006b22:	f7f9 fca5 	bl	8000470 <HAL_PCD_MspInit>
#endif /* (USE_HAL_PCD_REGISTER_CALLBACKS) */
  }

  hpcd->State = HAL_PCD_STATE_BUSY;
 8006b26:	687b      	ldr	r3, [r7, #4]
 8006b28:	2203      	movs	r2, #3
 8006b2a:	f883 2291 	strb.w	r2, [r3, #657]	@ 0x291

  /* Disable DMA mode for FS instance */
  hpcd->Init.dma_enable = 0U;
 8006b2e:	687b      	ldr	r3, [r7, #4]
 8006b30:	2200      	movs	r2, #0
 8006b32:	715a      	strb	r2, [r3, #5]

  /* Disable the Interrupts */
  __HAL_PCD_DISABLE(hpcd);
 8006b34:	687b      	ldr	r3, [r7, #4]
 8006b36:	681b      	ldr	r3, [r3, #0]
 8006b38:	4618      	mov	r0, r3
 8006b3a:	f000 fd78 	bl	800762e <USB_DisableGlobalInt>

  /*Init the Core (common init.) */
  if (USB_CoreInit(hpcd->Instance, hpcd->Init) != HAL_OK)
 8006b3e:	687b      	ldr	r3, [r7, #4]
 8006b40:	6818      	ldr	r0, [r3, #0]
 8006b42:	687b      	ldr	r3, [r7, #4]
 8006b44:	3304      	adds	r3, #4
 8006b46:	cb0e      	ldmia	r3, {r1, r2, r3}
 8006b48:	f000 fd64 	bl	8007614 <USB_CoreInit>
 8006b4c:	4603      	mov	r3, r0
 8006b4e:	2b00      	cmp	r3, #0
 8006b50:	d005      	beq.n	8006b5e <HAL_PCD_Init+0x64>
  {
    hpcd->State = HAL_PCD_STATE_ERROR;
 8006b52:	687b      	ldr	r3, [r7, #4]
 8006b54:	2202      	movs	r2, #2
 8006b56:	f883 2291 	strb.w	r2, [r3, #657]	@ 0x291
    return HAL_ERROR;
 8006b5a:	2301      	movs	r3, #1
 8006b5c:	e0bf      	b.n	8006cde <HAL_PCD_Init+0x1e4>
  }

  /* Force Device Mode */
  if (USB_SetCurrentMode(hpcd->Instance, USB_DEVICE_MODE) != HAL_OK)
 8006b5e:	687b      	ldr	r3, [r7, #4]
 8006b60:	681b      	ldr	r3, [r3, #0]
 8006b62:	2100      	movs	r1, #0
 8006b64:	4618      	mov	r0, r3
 8006b66:	f000 fd7c 	bl	8007662 <USB_SetCurrentMode>
 8006b6a:	4603      	mov	r3, r0
 8006b6c:	2b00      	cmp	r3, #0
 8006b6e:	d005      	beq.n	8006b7c <HAL_PCD_Init+0x82>
  {
    hpcd->State = HAL_PCD_STATE_ERROR;
 8006b70:	687b      	ldr	r3, [r7, #4]
 8006b72:	2202      	movs	r2, #2
 8006b74:	f883 2291 	strb.w	r2, [r3, #657]	@ 0x291
    return HAL_ERROR;
 8006b78:	2301      	movs	r3, #1
 8006b7a:	e0b0      	b.n	8006cde <HAL_PCD_Init+0x1e4>
  }

  /* Init endpoints structures */
  for (i = 0U; i < hpcd->Init.dev_endpoints; i++)
 8006b7c:	2300      	movs	r3, #0
 8006b7e:	73fb      	strb	r3, [r7, #15]
 8006b80:	e03e      	b.n	8006c00 <HAL_PCD_Init+0x106>
  {
    /* Init ep structure */
    hpcd->IN_ep[i].is_in = 1U;
 8006b82:	7bfa      	ldrb	r2, [r7, #15]
 8006b84:	6879      	ldr	r1, [r7, #4]
 8006b86:	4613      	mov	r3, r2
 8006b88:	009b      	lsls	r3, r3, #2
 8006b8a:	4413      	add	r3, r2
 8006b8c:	00db      	lsls	r3, r3, #3
 8006b8e:	440b      	add	r3, r1
 8006b90:	3311      	adds	r3, #17
 8006b92:	2201      	movs	r2, #1
 8006b94:	701a      	strb	r2, [r3, #0]
    hpcd->IN_ep[i].num = i;
 8006b96:	7bfa      	ldrb	r2, [r7, #15]
 8006b98:	6879      	ldr	r1, [r7, #4]
 8006b9a:	4613      	mov	r3, r2
 8006b9c:	009b      	lsls	r3, r3, #2
 8006b9e:	4413      	add	r3, r2
 8006ba0:	00db      	lsls	r3, r3, #3
 8006ba2:	440b      	add	r3, r1
 8006ba4:	3310      	adds	r3, #16
 8006ba6:	7bfa      	ldrb	r2, [r7, #15]
 8006ba8:	701a      	strb	r2, [r3, #0]
#if defined (USB_OTG_FS)
    hpcd->IN_ep[i].tx_fifo_num = i;
#endif /* defined (USB_OTG_FS) */
    /* Control until ep is activated */
    hpcd->IN_ep[i].type = EP_TYPE_CTRL;
 8006baa:	7bfa      	ldrb	r2, [r7, #15]
 8006bac:	6879      	ldr	r1, [r7, #4]
 8006bae:	4613      	mov	r3, r2
 8006bb0:	009b      	lsls	r3, r3, #2
 8006bb2:	4413      	add	r3, r2
 8006bb4:	00db      	lsls	r3, r3, #3
 8006bb6:	440b      	add	r3, r1
 8006bb8:	3313      	adds	r3, #19
 8006bba:	2200      	movs	r2, #0
 8006bbc:	701a      	strb	r2, [r3, #0]
    hpcd->IN_ep[i].maxpacket = 0U;
 8006bbe:	7bfa      	ldrb	r2, [r7, #15]
 8006bc0:	6879      	ldr	r1, [r7, #4]
 8006bc2:	4613      	mov	r3, r2
 8006bc4:	009b      	lsls	r3, r3, #2
 8006bc6:	4413      	add	r3, r2
 8006bc8:	00db      	lsls	r3, r3, #3
 8006bca:	440b      	add	r3, r1
 8006bcc:	3320      	adds	r3, #32
 8006bce:	2200      	movs	r2, #0
 8006bd0:	601a      	str	r2, [r3, #0]
    hpcd->IN_ep[i].xfer_buff = 0U;
 8006bd2:	7bfa      	ldrb	r2, [r7, #15]
 8006bd4:	6879      	ldr	r1, [r7, #4]
 8006bd6:	4613      	mov	r3, r2
 8006bd8:	009b      	lsls	r3, r3, #2
 8006bda:	4413      	add	r3, r2
 8006bdc:	00db      	lsls	r3, r3, #3
 8006bde:	440b      	add	r3, r1
 8006be0:	3324      	adds	r3, #36	@ 0x24
 8006be2:	2200      	movs	r2, #0
 8006be4:	601a      	str	r2, [r3, #0]
    hpcd->IN_ep[i].xfer_len = 0U;
 8006be6:	7bfb      	ldrb	r3, [r7, #15]
 8006be8:	6879      	ldr	r1, [r7, #4]
 8006bea:	1c5a      	adds	r2, r3, #1
 8006bec:	4613      	mov	r3, r2
 8006bee:	009b      	lsls	r3, r3, #2
 8006bf0:	4413      	add	r3, r2
 8006bf2:	00db      	lsls	r3, r3, #3
 8006bf4:	440b      	add	r3, r1
 8006bf6:	2200      	movs	r2, #0
 8006bf8:	601a      	str	r2, [r3, #0]
  for (i = 0U; i < hpcd->Init.dev_endpoints; i++)
 8006bfa:	7bfb      	ldrb	r3, [r7, #15]
 8006bfc:	3301      	adds	r3, #1
 8006bfe:	73fb      	strb	r3, [r7, #15]
 8006c00:	687b      	ldr	r3, [r7, #4]
 8006c02:	791b      	ldrb	r3, [r3, #4]
 8006c04:	7bfa      	ldrb	r2, [r7, #15]
 8006c06:	429a      	cmp	r2, r3
 8006c08:	d3bb      	bcc.n	8006b82 <HAL_PCD_Init+0x88>
  }

  for (i = 0U; i < hpcd->Init.dev_endpoints; i++)
 8006c0a:	2300      	movs	r3, #0
 8006c0c:	73fb      	strb	r3, [r7, #15]
 8006c0e:	e044      	b.n	8006c9a <HAL_PCD_Init+0x1a0>
  {
    hpcd->OUT_ep[i].is_in = 0U;
 8006c10:	7bfa      	ldrb	r2, [r7, #15]
 8006c12:	6879      	ldr	r1, [r7, #4]
 8006c14:	4613      	mov	r3, r2
 8006c16:	009b      	lsls	r3, r3, #2
 8006c18:	4413      	add	r3, r2
 8006c1a:	00db      	lsls	r3, r3, #3
 8006c1c:	440b      	add	r3, r1
 8006c1e:	f203 1351 	addw	r3, r3, #337	@ 0x151
 8006c22:	2200      	movs	r2, #0
 8006c24:	701a      	strb	r2, [r3, #0]
    hpcd->OUT_ep[i].num = i;
 8006c26:	7bfa      	ldrb	r2, [r7, #15]
 8006c28:	6879      	ldr	r1, [r7, #4]
 8006c2a:	4613      	mov	r3, r2
 8006c2c:	009b      	lsls	r3, r3, #2
 8006c2e:	4413      	add	r3, r2
 8006c30:	00db      	lsls	r3, r3, #3
 8006c32:	440b      	add	r3, r1
 8006c34:	f503 73a8 	add.w	r3, r3, #336	@ 0x150
 8006c38:	7bfa      	ldrb	r2, [r7, #15]
 8006c3a:	701a      	strb	r2, [r3, #0]
    /* Control until ep is activated */
    hpcd->OUT_ep[i].type = EP_TYPE_CTRL;
 8006c3c:	7bfa      	ldrb	r2, [r7, #15]
 8006c3e:	6879      	ldr	r1, [r7, #4]
 8006c40:	4613      	mov	r3, r2
 8006c42:	009b      	lsls	r3, r3, #2
 8006c44:	4413      	add	r3, r2
 8006c46:	00db      	lsls	r3, r3, #3
 8006c48:	440b      	add	r3, r1
 8006c4a:	f203 1353 	addw	r3, r3, #339	@ 0x153
 8006c4e:	2200      	movs	r2, #0
 8006c50:	701a      	strb	r2, [r3, #0]
    hpcd->OUT_ep[i].maxpacket = 0U;
 8006c52:	7bfa      	ldrb	r2, [r7, #15]
 8006c54:	6879      	ldr	r1, [r7, #4]
 8006c56:	4613      	mov	r3, r2
 8006c58:	009b      	lsls	r3, r3, #2
 8006c5a:	4413      	add	r3, r2
 8006c5c:	00db      	lsls	r3, r3, #3
 8006c5e:	440b      	add	r3, r1
 8006c60:	f503 73b0 	add.w	r3, r3, #352	@ 0x160
 8006c64:	2200      	movs	r2, #0
 8006c66:	601a      	str	r2, [r3, #0]
    hpcd->OUT_ep[i].xfer_buff = 0U;
 8006c68:	7bfa      	ldrb	r2, [r7, #15]
 8006c6a:	6879      	ldr	r1, [r7, #4]
 8006c6c:	4613      	mov	r3, r2
 8006c6e:	009b      	lsls	r3, r3, #2
 8006c70:	4413      	add	r3, r2
 8006c72:	00db      	lsls	r3, r3, #3
 8006c74:	440b      	add	r3, r1
 8006c76:	f503 73b2 	add.w	r3, r3, #356	@ 0x164
 8006c7a:	2200      	movs	r2, #0
 8006c7c:	601a      	str	r2, [r3, #0]
    hpcd->OUT_ep[i].xfer_len = 0U;
 8006c7e:	7bfa      	ldrb	r2, [r7, #15]
 8006c80:	6879      	ldr	r1, [r7, #4]
 8006c82:	4613      	mov	r3, r2
 8006c84:	009b      	lsls	r3, r3, #2
 8006c86:	4413      	add	r3, r2
 8006c88:	00db      	lsls	r3, r3, #3
 8006c8a:	440b      	add	r3, r1
 8006c8c:	f503 73b4 	add.w	r3, r3, #360	@ 0x168
 8006c90:	2200      	movs	r2, #0
 8006c92:	601a      	str	r2, [r3, #0]
  for (i = 0U; i < hpcd->Init.dev_endpoints; i++)
 8006c94:	7bfb      	ldrb	r3, [r7, #15]
 8006c96:	3301      	adds	r3, #1
 8006c98:	73fb      	strb	r3, [r7, #15]
 8006c9a:	687b      	ldr	r3, [r7, #4]
 8006c9c:	791b      	ldrb	r3, [r3, #4]
 8006c9e:	7bfa      	ldrb	r2, [r7, #15]
 8006ca0:	429a      	cmp	r2, r3
 8006ca2:	d3b5      	bcc.n	8006c10 <HAL_PCD_Init+0x116>
  }

  /* Init Device */
  if (USB_DevInit(hpcd->Instance, hpcd->Init) != HAL_OK)
 8006ca4:	687b      	ldr	r3, [r7, #4]
 8006ca6:	6818      	ldr	r0, [r3, #0]
 8006ca8:	687b      	ldr	r3, [r7, #4]
 8006caa:	3304      	adds	r3, #4
 8006cac:	cb0e      	ldmia	r3, {r1, r2, r3}
 8006cae:	f000 fce4 	bl	800767a <USB_DevInit>
 8006cb2:	4603      	mov	r3, r0
 8006cb4:	2b00      	cmp	r3, #0
 8006cb6:	d005      	beq.n	8006cc4 <HAL_PCD_Init+0x1ca>
  {
    hpcd->State = HAL_PCD_STATE_ERROR;
 8006cb8:	687b      	ldr	r3, [r7, #4]
 8006cba:	2202      	movs	r2, #2
 8006cbc:	f883 2291 	strb.w	r2, [r3, #657]	@ 0x291
    return HAL_ERROR;
 8006cc0:	2301      	movs	r3, #1
 8006cc2:	e00c      	b.n	8006cde <HAL_PCD_Init+0x1e4>
  }

  hpcd->USB_Address = 0U;
 8006cc4:	687b      	ldr	r3, [r7, #4]
 8006cc6:	2200      	movs	r2, #0
 8006cc8:	735a      	strb	r2, [r3, #13]
  hpcd->State = HAL_PCD_STATE_READY;
 8006cca:	687b      	ldr	r3, [r7, #4]
 8006ccc:	2201      	movs	r2, #1
 8006cce:	f883 2291 	strb.w	r2, [r3, #657]	@ 0x291
  (void)USB_DevDisconnect(hpcd->Instance);
 8006cd2:	687b      	ldr	r3, [r7, #4]
 8006cd4:	681b      	ldr	r3, [r3, #0]
 8006cd6:	4618      	mov	r0, r3
 8006cd8:	f000 fcec 	bl	80076b4 <USB_DevDisconnect>

  return HAL_OK;
 8006cdc:	2300      	movs	r3, #0
}
 8006cde:	4618      	mov	r0, r3
 8006ce0:	3710      	adds	r7, #16
 8006ce2:	46bd      	mov	sp, r7
 8006ce4:	bd80      	pop	{r7, pc}
	...

08006ce8 <HAL_RCC_OscConfig>:
  *         supported by this macro. User should request a transition to HSE Off
  *         first and then HSE On or HSE Bypass.
  * @retval HAL status
  */
HAL_StatusTypeDef HAL_RCC_OscConfig(RCC_OscInitTypeDef  *RCC_OscInitStruct)
{
 8006ce8:	b580      	push	{r7, lr}
 8006cea:	b086      	sub	sp, #24
 8006cec:	af00      	add	r7, sp, #0
 8006cee:	6078      	str	r0, [r7, #4]
  uint32_t tickstart;
  uint32_t pll_config;

  /* Check Null pointer */
  if (RCC_OscInitStruct == NULL)
 8006cf0:	687b      	ldr	r3, [r7, #4]
 8006cf2:	2b00      	cmp	r3, #0
 8006cf4:	d101      	bne.n	8006cfa <HAL_RCC_OscConfig+0x12>
  {
    return HAL_ERROR;
 8006cf6:	2301      	movs	r3, #1
 8006cf8:	e272      	b.n	80071e0 <HAL_RCC_OscConfig+0x4f8>

  /* Check the parameters */
  assert_param(IS_RCC_OSCILLATORTYPE(RCC_OscInitStruct->OscillatorType));

  /*------------------------------- HSE Configuration ------------------------*/
  if (((RCC_OscInitStruct->OscillatorType) & RCC_OSCILLATORTYPE_HSE) == RCC_OSCILLATORTYPE_HSE)
 8006cfa:	687b      	ldr	r3, [r7, #4]
 8006cfc:	681b      	ldr	r3, [r3, #0]
 8006cfe:	f003 0301 	and.w	r3, r3, #1
 8006d02:	2b00      	cmp	r3, #0
 8006d04:	f000 8087 	beq.w	8006e16 <HAL_RCC_OscConfig+0x12e>
  {
    /* Check the parameters */
    assert_param(IS_RCC_HSE(RCC_OscInitStruct->HSEState));

    /* When the HSE is used as system clock or clock source for PLL in these cases it is not allowed to be disabled */
    if ((__HAL_RCC_GET_SYSCLK_SOURCE() == RCC_SYSCLKSOURCE_STATUS_HSE)
 8006d08:	4b92      	ldr	r3, [pc, #584]	@ (8006f54 <HAL_RCC_OscConfig+0x26c>)
 8006d0a:	685b      	ldr	r3, [r3, #4]
 8006d0c:	f003 030c 	and.w	r3, r3, #12
 8006d10:	2b04      	cmp	r3, #4
 8006d12:	d00c      	beq.n	8006d2e <HAL_RCC_OscConfig+0x46>
        || ((__HAL_RCC_GET_SYSCLK_SOURCE() == RCC_SYSCLKSOURCE_STATUS_PLLCLK) && (__HAL_RCC_GET_PLL_OSCSOURCE() == RCC_PLLSOURCE_HSE)))
 8006d14:	4b8f      	ldr	r3, [pc, #572]	@ (8006f54 <HAL_RCC_OscConfig+0x26c>)
 8006d16:	685b      	ldr	r3, [r3, #4]
 8006d18:	f003 030c 	and.w	r3, r3, #12
 8006d1c:	2b08      	cmp	r3, #8
 8006d1e:	d112      	bne.n	8006d46 <HAL_RCC_OscConfig+0x5e>
 8006d20:	4b8c      	ldr	r3, [pc, #560]	@ (8006f54 <HAL_RCC_OscConfig+0x26c>)
 8006d22:	685b      	ldr	r3, [r3, #4]
 8006d24:	f403 3380 	and.w	r3, r3, #65536	@ 0x10000
 8006d28:	f5b3 3f80 	cmp.w	r3, #65536	@ 0x10000
 8006d2c:	d10b      	bne.n	8006d46 <HAL_RCC_OscConfig+0x5e>
    {
      if ((__HAL_RCC_GET_FLAG(RCC_FLAG_HSERDY) != RESET) && (RCC_OscInitStruct->HSEState == RCC_HSE_OFF))
 8006d2e:	4b89      	ldr	r3, [pc, #548]	@ (8006f54 <HAL_RCC_OscConfig+0x26c>)
 8006d30:	681b      	ldr	r3, [r3, #0]
 8006d32:	f403 3300 	and.w	r3, r3, #131072	@ 0x20000
 8006d36:	2b00      	cmp	r3, #0
 8006d38:	d06c      	beq.n	8006e14 <HAL_RCC_OscConfig+0x12c>
 8006d3a:	687b      	ldr	r3, [r7, #4]
 8006d3c:	685b      	ldr	r3, [r3, #4]
 8006d3e:	2b00      	cmp	r3, #0
 8006d40:	d168      	bne.n	8006e14 <HAL_RCC_OscConfig+0x12c>
      {
        return HAL_ERROR;
 8006d42:	2301      	movs	r3, #1
 8006d44:	e24c      	b.n	80071e0 <HAL_RCC_OscConfig+0x4f8>
      }
    }
    else
    {
      /* Set the new HSE configuration ---------------------------------------*/
      __HAL_RCC_HSE_CONFIG(RCC_OscInitStruct->HSEState);
 8006d46:	687b      	ldr	r3, [r7, #4]
 8006d48:	685b      	ldr	r3, [r3, #4]
 8006d4a:	f5b3 3f80 	cmp.w	r3, #65536	@ 0x10000
 8006d4e:	d106      	bne.n	8006d5e <HAL_RCC_OscConfig+0x76>
 8006d50:	4b80      	ldr	r3, [pc, #512]	@ (8006f54 <HAL_RCC_OscConfig+0x26c>)
 8006d52:	681b      	ldr	r3, [r3, #0]
 8006d54:	4a7f      	ldr	r2, [pc, #508]	@ (8006f54 <HAL_RCC_OscConfig+0x26c>)
 8006d56:	f443 3380 	orr.w	r3, r3, #65536	@ 0x10000
 8006d5a:	6013      	str	r3, [r2, #0]
 8006d5c:	e02e      	b.n	8006dbc <HAL_RCC_OscConfig+0xd4>
 8006d5e:	687b      	ldr	r3, [r7, #4]
 8006d60:	685b      	ldr	r3, [r3, #4]
 8006d62:	2b00      	cmp	r3, #0
 8006d64:	d10c      	bne.n	8006d80 <HAL_RCC_OscConfig+0x98>
 8006d66:	4b7b      	ldr	r3, [pc, #492]	@ (8006f54 <HAL_RCC_OscConfig+0x26c>)
 8006d68:	681b      	ldr	r3, [r3, #0]
 8006d6a:	4a7a      	ldr	r2, [pc, #488]	@ (8006f54 <HAL_RCC_OscConfig+0x26c>)
 8006d6c:	f423 3380 	bic.w	r3, r3, #65536	@ 0x10000
 8006d70:	6013      	str	r3, [r2, #0]
 8006d72:	4b78      	ldr	r3, [pc, #480]	@ (8006f54 <HAL_RCC_OscConfig+0x26c>)
 8006d74:	681b      	ldr	r3, [r3, #0]
 8006d76:	4a77      	ldr	r2, [pc, #476]	@ (8006f54 <HAL_RCC_OscConfig+0x26c>)
 8006d78:	f423 2380 	bic.w	r3, r3, #262144	@ 0x40000
 8006d7c:	6013      	str	r3, [r2, #0]
 8006d7e:	e01d      	b.n	8006dbc <HAL_RCC_OscConfig+0xd4>
 8006d80:	687b      	ldr	r3, [r7, #4]
 8006d82:	685b      	ldr	r3, [r3, #4]
 8006d84:	f5b3 2fa0 	cmp.w	r3, #327680	@ 0x50000
 8006d88:	d10c      	bne.n	8006da4 <HAL_RCC_OscConfig+0xbc>
 8006d8a:	4b72      	ldr	r3, [pc, #456]	@ (8006f54 <HAL_RCC_OscConfig+0x26c>)
 8006d8c:	681b      	ldr	r3, [r3, #0]
 8006d8e:	4a71      	ldr	r2, [pc, #452]	@ (8006f54 <HAL_RCC_OscConfig+0x26c>)
 8006d90:	f443 2380 	orr.w	r3, r3, #262144	@ 0x40000
 8006d94:	6013      	str	r3, [r2, #0]
 8006d96:	4b6f      	ldr	r3, [pc, #444]	@ (8006f54 <HAL_RCC_OscConfig+0x26c>)
 8006d98:	681b      	ldr	r3, [r3, #0]
 8006d9a:	4a6e      	ldr	r2, [pc, #440]	@ (8006f54 <HAL_RCC_OscConfig+0x26c>)
 8006d9c:	f443 3380 	orr.w	r3, r3, #65536	@ 0x10000
 8006da0:	6013      	str	r3, [r2, #0]
 8006da2:	e00b      	b.n	8006dbc <HAL_RCC_OscConfig+0xd4>
 8006da4:	4b6b      	ldr	r3, [pc, #428]	@ (8006f54 <HAL_RCC_OscConfig+0x26c>)
 8006da6:	681b      	ldr	r3, [r3, #0]
 8006da8:	4a6a      	ldr	r2, [pc, #424]	@ (8006f54 <HAL_RCC_OscConfig+0x26c>)
 8006daa:	f423 3380 	bic.w	r3, r3, #65536	@ 0x10000
 8006dae:	6013      	str	r3, [r2, #0]
 8006db0:	4b68      	ldr	r3, [pc, #416]	@ (8006f54 <HAL_RCC_OscConfig+0x26c>)
 8006db2:	681b      	ldr	r3, [r3, #0]
 8006db4:	4a67      	ldr	r2, [pc, #412]	@ (8006f54 <HAL_RCC_OscConfig+0x26c>)
 8006db6:	f423 2380 	bic.w	r3, r3, #262144	@ 0x40000
 8006dba:	6013      	str	r3, [r2, #0]


      /* Check the HSE State */
      if (RCC_OscInitStruct->HSEState != RCC_HSE_OFF)
 8006dbc:	687b      	ldr	r3, [r7, #4]
 8006dbe:	685b      	ldr	r3, [r3, #4]
 8006dc0:	2b00      	cmp	r3, #0
 8006dc2:	d013      	beq.n	8006dec <HAL_RCC_OscConfig+0x104>
      {
        /* Get Start Tick */
        tickstart = HAL_GetTick();
 8006dc4:	f7ff faec 	bl	80063a0 <HAL_GetTick>
 8006dc8:	6138      	str	r0, [r7, #16]

        /* Wait till HSE is ready */
        while (__HAL_RCC_GET_FLAG(RCC_FLAG_HSERDY) == RESET)
 8006dca:	e008      	b.n	8006dde <HAL_RCC_OscConfig+0xf6>
        {
          if ((HAL_GetTick() - tickstart) > HSE_TIMEOUT_VALUE)
 8006dcc:	f7ff fae8 	bl	80063a0 <HAL_GetTick>
 8006dd0:	4602      	mov	r2, r0
 8006dd2:	693b      	ldr	r3, [r7, #16]
 8006dd4:	1ad3      	subs	r3, r2, r3
 8006dd6:	2b64      	cmp	r3, #100	@ 0x64
 8006dd8:	d901      	bls.n	8006dde <HAL_RCC_OscConfig+0xf6>
          {
            return HAL_TIMEOUT;
 8006dda:	2303      	movs	r3, #3
 8006ddc:	e200      	b.n	80071e0 <HAL_RCC_OscConfig+0x4f8>
        while (__HAL_RCC_GET_FLAG(RCC_FLAG_HSERDY) == RESET)
 8006dde:	4b5d      	ldr	r3, [pc, #372]	@ (8006f54 <HAL_RCC_OscConfig+0x26c>)
 8006de0:	681b      	ldr	r3, [r3, #0]
 8006de2:	f403 3300 	and.w	r3, r3, #131072	@ 0x20000
 8006de6:	2b00      	cmp	r3, #0
 8006de8:	d0f0      	beq.n	8006dcc <HAL_RCC_OscConfig+0xe4>
 8006dea:	e014      	b.n	8006e16 <HAL_RCC_OscConfig+0x12e>
        }
      }
      else
      {
        /* Get Start Tick */
        tickstart = HAL_GetTick();
 8006dec:	f7ff fad8 	bl	80063a0 <HAL_GetTick>
 8006df0:	6138      	str	r0, [r7, #16]

        /* Wait till HSE is disabled */
        while (__HAL_RCC_GET_FLAG(RCC_FLAG_HSERDY) != RESET)
 8006df2:	e008      	b.n	8006e06 <HAL_RCC_OscConfig+0x11e>
        {
          if ((HAL_GetTick() - tickstart) > HSE_TIMEOUT_VALUE)
 8006df4:	f7ff fad4 	bl	80063a0 <HAL_GetTick>
 8006df8:	4602      	mov	r2, r0
 8006dfa:	693b      	ldr	r3, [r7, #16]
 8006dfc:	1ad3      	subs	r3, r2, r3
 8006dfe:	2b64      	cmp	r3, #100	@ 0x64
 8006e00:	d901      	bls.n	8006e06 <HAL_RCC_OscConfig+0x11e>
          {
            return HAL_TIMEOUT;
 8006e02:	2303      	movs	r3, #3
 8006e04:	e1ec      	b.n	80071e0 <HAL_RCC_OscConfig+0x4f8>
        while (__HAL_RCC_GET_FLAG(RCC_FLAG_HSERDY) != RESET)
 8006e06:	4b53      	ldr	r3, [pc, #332]	@ (8006f54 <HAL_RCC_OscConfig+0x26c>)
 8006e08:	681b      	ldr	r3, [r3, #0]
 8006e0a:	f403 3300 	and.w	r3, r3, #131072	@ 0x20000
 8006e0e:	2b00      	cmp	r3, #0
 8006e10:	d1f0      	bne.n	8006df4 <HAL_RCC_OscConfig+0x10c>
 8006e12:	e000      	b.n	8006e16 <HAL_RCC_OscConfig+0x12e>
      if ((__HAL_RCC_GET_FLAG(RCC_FLAG_HSERDY) != RESET) && (RCC_OscInitStruct->HSEState == RCC_HSE_OFF))
 8006e14:	bf00      	nop
        }
      }
    }
  }
  /*----------------------------- HSI Configuration --------------------------*/
  if (((RCC_OscInitStruct->OscillatorType) & RCC_OSCILLATORTYPE_HSI) == RCC_OSCILLATORTYPE_HSI)
 8006e16:	687b      	ldr	r3, [r7, #4]
 8006e18:	681b      	ldr	r3, [r3, #0]
 8006e1a:	f003 0302 	and.w	r3, r3, #2
 8006e1e:	2b00      	cmp	r3, #0
 8006e20:	d063      	beq.n	8006eea <HAL_RCC_OscConfig+0x202>
    /* Check the parameters */
    assert_param(IS_RCC_HSI(RCC_OscInitStruct->HSIState));
    assert_param(IS_RCC_CALIBRATION_VALUE(RCC_OscInitStruct->HSICalibrationValue));

    /* Check if HSI is used as system clock or as PLL source when PLL is selected as system clock */
    if ((__HAL_RCC_GET_SYSCLK_SOURCE() == RCC_SYSCLKSOURCE_STATUS_HSI)
 8006e22:	4b4c      	ldr	r3, [pc, #304]	@ (8006f54 <HAL_RCC_OscConfig+0x26c>)
 8006e24:	685b      	ldr	r3, [r3, #4]
 8006e26:	f003 030c 	and.w	r3, r3, #12
 8006e2a:	2b00      	cmp	r3, #0
 8006e2c:	d00b      	beq.n	8006e46 <HAL_RCC_OscConfig+0x15e>
        || ((__HAL_RCC_GET_SYSCLK_SOURCE() == RCC_SYSCLKSOURCE_STATUS_PLLCLK) && (__HAL_RCC_GET_PLL_OSCSOURCE() == RCC_PLLSOURCE_HSI_DIV2)))
 8006e2e:	4b49      	ldr	r3, [pc, #292]	@ (8006f54 <HAL_RCC_OscConfig+0x26c>)
 8006e30:	685b      	ldr	r3, [r3, #4]
 8006e32:	f003 030c 	and.w	r3, r3, #12
 8006e36:	2b08      	cmp	r3, #8
 8006e38:	d11c      	bne.n	8006e74 <HAL_RCC_OscConfig+0x18c>
 8006e3a:	4b46      	ldr	r3, [pc, #280]	@ (8006f54 <HAL_RCC_OscConfig+0x26c>)
 8006e3c:	685b      	ldr	r3, [r3, #4]
 8006e3e:	f403 3380 	and.w	r3, r3, #65536	@ 0x10000
 8006e42:	2b00      	cmp	r3, #0
 8006e44:	d116      	bne.n	8006e74 <HAL_RCC_OscConfig+0x18c>
    {
      /* When HSI is used as system clock it will not disabled */
      if ((__HAL_RCC_GET_FLAG(RCC_FLAG_HSIRDY) != RESET) && (RCC_OscInitStruct->HSIState != RCC_HSI_ON))
 8006e46:	4b43      	ldr	r3, [pc, #268]	@ (8006f54 <HAL_RCC_OscConfig+0x26c>)
 8006e48:	681b      	ldr	r3, [r3, #0]
 8006e4a:	f003 0302 	and.w	r3, r3, #2
 8006e4e:	2b00      	cmp	r3, #0
 8006e50:	d005      	beq.n	8006e5e <HAL_RCC_OscConfig+0x176>
 8006e52:	687b      	ldr	r3, [r7, #4]
 8006e54:	691b      	ldr	r3, [r3, #16]
 8006e56:	2b01      	cmp	r3, #1
 8006e58:	d001      	beq.n	8006e5e <HAL_RCC_OscConfig+0x176>
      {
        return HAL_ERROR;
 8006e5a:	2301      	movs	r3, #1
 8006e5c:	e1c0      	b.n	80071e0 <HAL_RCC_OscConfig+0x4f8>
      }
      /* Otherwise, just the calibration is allowed */
      else
      {
        /* Adjusts the Internal High Speed oscillator (HSI) calibration value.*/
        __HAL_RCC_HSI_CALIBRATIONVALUE_ADJUST(RCC_OscInitStruct->HSICalibrationValue);
 8006e5e:	4b3d      	ldr	r3, [pc, #244]	@ (8006f54 <HAL_RCC_OscConfig+0x26c>)
 8006e60:	681b      	ldr	r3, [r3, #0]
 8006e62:	f023 02f8 	bic.w	r2, r3, #248	@ 0xf8
 8006e66:	687b      	ldr	r3, [r7, #4]
 8006e68:	695b      	ldr	r3, [r3, #20]
 8006e6a:	00db      	lsls	r3, r3, #3
 8006e6c:	4939      	ldr	r1, [pc, #228]	@ (8006f54 <HAL_RCC_OscConfig+0x26c>)
 8006e6e:	4313      	orrs	r3, r2
 8006e70:	600b      	str	r3, [r1, #0]
      if ((__HAL_RCC_GET_FLAG(RCC_FLAG_HSIRDY) != RESET) && (RCC_OscInitStruct->HSIState != RCC_HSI_ON))
 8006e72:	e03a      	b.n	8006eea <HAL_RCC_OscConfig+0x202>
      }
    }
    else
    {
      /* Check the HSI State */
      if (RCC_OscInitStruct->HSIState != RCC_HSI_OFF)
 8006e74:	687b      	ldr	r3, [r7, #4]
 8006e76:	691b      	ldr	r3, [r3, #16]
 8006e78:	2b00      	cmp	r3, #0
 8006e7a:	d020      	beq.n	8006ebe <HAL_RCC_OscConfig+0x1d6>
      {
        /* Enable the Internal High Speed oscillator (HSI). */
        __HAL_RCC_HSI_ENABLE();
 8006e7c:	4b36      	ldr	r3, [pc, #216]	@ (8006f58 <HAL_RCC_OscConfig+0x270>)
 8006e7e:	2201      	movs	r2, #1
 8006e80:	601a      	str	r2, [r3, #0]

        /* Get Start Tick */
        tickstart = HAL_GetTick();
 8006e82:	f7ff fa8d 	bl	80063a0 <HAL_GetTick>
 8006e86:	6138      	str	r0, [r7, #16]

        /* Wait till HSI is ready */
        while (__HAL_RCC_GET_FLAG(RCC_FLAG_HSIRDY) == RESET)
 8006e88:	e008      	b.n	8006e9c <HAL_RCC_OscConfig+0x1b4>
        {
          if ((HAL_GetTick() - tickstart) > HSI_TIMEOUT_VALUE)
 8006e8a:	f7ff fa89 	bl	80063a0 <HAL_GetTick>
 8006e8e:	4602      	mov	r2, r0
 8006e90:	693b      	ldr	r3, [r7, #16]
 8006e92:	1ad3      	subs	r3, r2, r3
 8006e94:	2b02      	cmp	r3, #2
 8006e96:	d901      	bls.n	8006e9c <HAL_RCC_OscConfig+0x1b4>
          {
            return HAL_TIMEOUT;
 8006e98:	2303      	movs	r3, #3
 8006e9a:	e1a1      	b.n	80071e0 <HAL_RCC_OscConfig+0x4f8>
        while (__HAL_RCC_GET_FLAG(RCC_FLAG_HSIRDY) == RESET)
 8006e9c:	4b2d      	ldr	r3, [pc, #180]	@ (8006f54 <HAL_RCC_OscConfig+0x26c>)
 8006e9e:	681b      	ldr	r3, [r3, #0]
 8006ea0:	f003 0302 	and.w	r3, r3, #2
 8006ea4:	2b00      	cmp	r3, #0
 8006ea6:	d0f0      	beq.n	8006e8a <HAL_RCC_OscConfig+0x1a2>
          }
        }

        /* Adjusts the Internal High Speed oscillator (HSI) calibration value.*/
        __HAL_RCC_HSI_CALIBRATIONVALUE_ADJUST(RCC_OscInitStruct->HSICalibrationValue);
 8006ea8:	4b2a      	ldr	r3, [pc, #168]	@ (8006f54 <HAL_RCC_OscConfig+0x26c>)
 8006eaa:	681b      	ldr	r3, [r3, #0]
 8006eac:	f023 02f8 	bic.w	r2, r3, #248	@ 0xf8
 8006eb0:	687b      	ldr	r3, [r7, #4]
 8006eb2:	695b      	ldr	r3, [r3, #20]
 8006eb4:	00db      	lsls	r3, r3, #3
 8006eb6:	4927      	ldr	r1, [pc, #156]	@ (8006f54 <HAL_RCC_OscConfig+0x26c>)
 8006eb8:	4313      	orrs	r3, r2
 8006eba:	600b      	str	r3, [r1, #0]
 8006ebc:	e015      	b.n	8006eea <HAL_RCC_OscConfig+0x202>
      }
      else
      {
        /* Disable the Internal High Speed oscillator (HSI). */
        __HAL_RCC_HSI_DISABLE();
 8006ebe:	4b26      	ldr	r3, [pc, #152]	@ (8006f58 <HAL_RCC_OscConfig+0x270>)
 8006ec0:	2200      	movs	r2, #0
 8006ec2:	601a      	str	r2, [r3, #0]

        /* Get Start Tick */
        tickstart = HAL_GetTick();
 8006ec4:	f7ff fa6c 	bl	80063a0 <HAL_GetTick>
 8006ec8:	6138      	str	r0, [r7, #16]

        /* Wait till HSI is disabled */
        while (__HAL_RCC_GET_FLAG(RCC_FLAG_HSIRDY) != RESET)
 8006eca:	e008      	b.n	8006ede <HAL_RCC_OscConfig+0x1f6>
        {
          if ((HAL_GetTick() - tickstart) > HSI_TIMEOUT_VALUE)
 8006ecc:	f7ff fa68 	bl	80063a0 <HAL_GetTick>
 8006ed0:	4602      	mov	r2, r0
 8006ed2:	693b      	ldr	r3, [r7, #16]
 8006ed4:	1ad3      	subs	r3, r2, r3
 8006ed6:	2b02      	cmp	r3, #2
 8006ed8:	d901      	bls.n	8006ede <HAL_RCC_OscConfig+0x1f6>
          {
            return HAL_TIMEOUT;
 8006eda:	2303      	movs	r3, #3
 8006edc:	e180      	b.n	80071e0 <HAL_RCC_OscConfig+0x4f8>
        while (__HAL_RCC_GET_FLAG(RCC_FLAG_HSIRDY) != RESET)
 8006ede:	4b1d      	ldr	r3, [pc, #116]	@ (8006f54 <HAL_RCC_OscConfig+0x26c>)
 8006ee0:	681b      	ldr	r3, [r3, #0]
 8006ee2:	f003 0302 	and.w	r3, r3, #2
 8006ee6:	2b00      	cmp	r3, #0
 8006ee8:	d1f0      	bne.n	8006ecc <HAL_RCC_OscConfig+0x1e4>
        }
      }
    }
  }
  /*------------------------------ LSI Configuration -------------------------*/
  if (((RCC_OscInitStruct->OscillatorType) & RCC_OSCILLATORTYPE_LSI) == RCC_OSCILLATORTYPE_LSI)
 8006eea:	687b      	ldr	r3, [r7, #4]
 8006eec:	681b      	ldr	r3, [r3, #0]
 8006eee:	f003 0308 	and.w	r3, r3, #8
 8006ef2:	2b00      	cmp	r3, #0
 8006ef4:	d03a      	beq.n	8006f6c <HAL_RCC_OscConfig+0x284>
  {
    /* Check the parameters */
    assert_param(IS_RCC_LSI(RCC_OscInitStruct->LSIState));

    /* Check the LSI State */
    if (RCC_OscInitStruct->LSIState != RCC_LSI_OFF)
 8006ef6:	687b      	ldr	r3, [r7, #4]
 8006ef8:	699b      	ldr	r3, [r3, #24]
 8006efa:	2b00      	cmp	r3, #0
 8006efc:	d019      	beq.n	8006f32 <HAL_RCC_OscConfig+0x24a>
    {
      /* Enable the Internal Low Speed oscillator (LSI). */
      __HAL_RCC_LSI_ENABLE();
 8006efe:	4b17      	ldr	r3, [pc, #92]	@ (8006f5c <HAL_RCC_OscConfig+0x274>)
 8006f00:	2201      	movs	r2, #1
 8006f02:	601a      	str	r2, [r3, #0]

      /* Get Start Tick */
      tickstart = HAL_GetTick();
 8006f04:	f7ff fa4c 	bl	80063a0 <HAL_GetTick>
 8006f08:	6138      	str	r0, [r7, #16]

      /* Wait till LSI is ready */
      while (__HAL_RCC_GET_FLAG(RCC_FLAG_LSIRDY) == RESET)
 8006f0a:	e008      	b.n	8006f1e <HAL_RCC_OscConfig+0x236>
      {
        if ((HAL_GetTick() - tickstart) > LSI_TIMEOUT_VALUE)
 8006f0c:	f7ff fa48 	bl	80063a0 <HAL_GetTick>
 8006f10:	4602      	mov	r2, r0
 8006f12:	693b      	ldr	r3, [r7, #16]
 8006f14:	1ad3      	subs	r3, r2, r3
 8006f16:	2b02      	cmp	r3, #2
 8006f18:	d901      	bls.n	8006f1e <HAL_RCC_OscConfig+0x236>
        {
          return HAL_TIMEOUT;
 8006f1a:	2303      	movs	r3, #3
 8006f1c:	e160      	b.n	80071e0 <HAL_RCC_OscConfig+0x4f8>
      while (__HAL_RCC_GET_FLAG(RCC_FLAG_LSIRDY) == RESET)
 8006f1e:	4b0d      	ldr	r3, [pc, #52]	@ (8006f54 <HAL_RCC_OscConfig+0x26c>)
 8006f20:	6a5b      	ldr	r3, [r3, #36]	@ 0x24
 8006f22:	f003 0302 	and.w	r3, r3, #2
 8006f26:	2b00      	cmp	r3, #0
 8006f28:	d0f0      	beq.n	8006f0c <HAL_RCC_OscConfig+0x224>
        }
      }
      /*  To have a fully stabilized clock in the specified range, a software delay of 1ms
          should be added.*/
      RCC_Delay(1);
 8006f2a:	2001      	movs	r0, #1
 8006f2c:	f000 fa9e 	bl	800746c <RCC_Delay>
 8006f30:	e01c      	b.n	8006f6c <HAL_RCC_OscConfig+0x284>
    }
    else
    {
      /* Disable the Internal Low Speed oscillator (LSI). */
      __HAL_RCC_LSI_DISABLE();
 8006f32:	4b0a      	ldr	r3, [pc, #40]	@ (8006f5c <HAL_RCC_OscConfig+0x274>)
 8006f34:	2200      	movs	r2, #0
 8006f36:	601a      	str	r2, [r3, #0]

      /* Get Start Tick */
      tickstart = HAL_GetTick();
 8006f38:	f7ff fa32 	bl	80063a0 <HAL_GetTick>
 8006f3c:	6138      	str	r0, [r7, #16]

      /* Wait till LSI is disabled */
      while (__HAL_RCC_GET_FLAG(RCC_FLAG_LSIRDY) != RESET)
 8006f3e:	e00f      	b.n	8006f60 <HAL_RCC_OscConfig+0x278>
      {
        if ((HAL_GetTick() - tickstart) > LSI_TIMEOUT_VALUE)
 8006f40:	f7ff fa2e 	bl	80063a0 <HAL_GetTick>
 8006f44:	4602      	mov	r2, r0
 8006f46:	693b      	ldr	r3, [r7, #16]
 8006f48:	1ad3      	subs	r3, r2, r3
 8006f4a:	2b02      	cmp	r3, #2
 8006f4c:	d908      	bls.n	8006f60 <HAL_RCC_OscConfig+0x278>
        {
          return HAL_TIMEOUT;
 8006f4e:	2303      	movs	r3, #3
 8006f50:	e146      	b.n	80071e0 <HAL_RCC_OscConfig+0x4f8>
 8006f52:	bf00      	nop
 8006f54:	40021000 	.word	0x40021000
 8006f58:	42420000 	.word	0x42420000
 8006f5c:	42420480 	.word	0x42420480
      while (__HAL_RCC_GET_FLAG(RCC_FLAG_LSIRDY) != RESET)
 8006f60:	4b92      	ldr	r3, [pc, #584]	@ (80071ac <HAL_RCC_OscConfig+0x4c4>)
 8006f62:	6a5b      	ldr	r3, [r3, #36]	@ 0x24
 8006f64:	f003 0302 	and.w	r3, r3, #2
 8006f68:	2b00      	cmp	r3, #0
 8006f6a:	d1e9      	bne.n	8006f40 <HAL_RCC_OscConfig+0x258>
        }
      }
    }
  }
  /*------------------------------ LSE Configuration -------------------------*/
  if (((RCC_OscInitStruct->OscillatorType) & RCC_OSCILLATORTYPE_LSE) == RCC_OSCILLATORTYPE_LSE)
 8006f6c:	687b      	ldr	r3, [r7, #4]
 8006f6e:	681b      	ldr	r3, [r3, #0]
 8006f70:	f003 0304 	and.w	r3, r3, #4
 8006f74:	2b00      	cmp	r3, #0
 8006f76:	f000 80a6 	beq.w	80070c6 <HAL_RCC_OscConfig+0x3de>
  {
    FlagStatus       pwrclkchanged = RESET;
 8006f7a:	2300      	movs	r3, #0
 8006f7c:	75fb      	strb	r3, [r7, #23]
    /* Check the parameters */
    assert_param(IS_RCC_LSE(RCC_OscInitStruct->LSEState));

    /* Update LSE configuration in Backup Domain control register    */
    /* Requires to enable write access to Backup Domain of necessary */
    if (__HAL_RCC_PWR_IS_CLK_DISABLED())
 8006f7e:	4b8b      	ldr	r3, [pc, #556]	@ (80071ac <HAL_RCC_OscConfig+0x4c4>)
 8006f80:	69db      	ldr	r3, [r3, #28]
 8006f82:	f003 5380 	and.w	r3, r3, #268435456	@ 0x10000000
 8006f86:	2b00      	cmp	r3, #0
 8006f88:	d10d      	bne.n	8006fa6 <HAL_RCC_OscConfig+0x2be>
    {
      __HAL_RCC_PWR_CLK_ENABLE();
 8006f8a:	4b88      	ldr	r3, [pc, #544]	@ (80071ac <HAL_RCC_OscConfig+0x4c4>)
 8006f8c:	69db      	ldr	r3, [r3, #28]
 8006f8e:	4a87      	ldr	r2, [pc, #540]	@ (80071ac <HAL_RCC_OscConfig+0x4c4>)
 8006f90:	f043 5380 	orr.w	r3, r3, #268435456	@ 0x10000000
 8006f94:	61d3      	str	r3, [r2, #28]
 8006f96:	4b85      	ldr	r3, [pc, #532]	@ (80071ac <HAL_RCC_OscConfig+0x4c4>)
 8006f98:	69db      	ldr	r3, [r3, #28]
 8006f9a:	f003 5380 	and.w	r3, r3, #268435456	@ 0x10000000
 8006f9e:	60bb      	str	r3, [r7, #8]
 8006fa0:	68bb      	ldr	r3, [r7, #8]
      pwrclkchanged = SET;
 8006fa2:	2301      	movs	r3, #1
 8006fa4:	75fb      	strb	r3, [r7, #23]
    }

    if (HAL_IS_BIT_CLR(PWR->CR, PWR_CR_DBP))
 8006fa6:	4b82      	ldr	r3, [pc, #520]	@ (80071b0 <HAL_RCC_OscConfig+0x4c8>)
 8006fa8:	681b      	ldr	r3, [r3, #0]
 8006faa:	f403 7380 	and.w	r3, r3, #256	@ 0x100
 8006fae:	2b00      	cmp	r3, #0
 8006fb0:	d118      	bne.n	8006fe4 <HAL_RCC_OscConfig+0x2fc>
    {
      /* Enable write access to Backup domain */
      SET_BIT(PWR->CR, PWR_CR_DBP);
 8006fb2:	4b7f      	ldr	r3, [pc, #508]	@ (80071b0 <HAL_RCC_OscConfig+0x4c8>)
 8006fb4:	681b      	ldr	r3, [r3, #0]
 8006fb6:	4a7e      	ldr	r2, [pc, #504]	@ (80071b0 <HAL_RCC_OscConfig+0x4c8>)
 8006fb8:	f443 7380 	orr.w	r3, r3, #256	@ 0x100
 8006fbc:	6013      	str	r3, [r2, #0]

      /* Wait for Backup domain Write protection disable */
      tickstart = HAL_GetTick();
 8006fbe:	f7ff f9ef 	bl	80063a0 <HAL_GetTick>
 8006fc2:	6138      	str	r0, [r7, #16]

      while (HAL_IS_BIT_CLR(PWR->CR, PWR_CR_DBP))
 8006fc4:	e008      	b.n	8006fd8 <HAL_RCC_OscConfig+0x2f0>
      {
        if ((HAL_GetTick() - tickstart) > RCC_DBP_TIMEOUT_VALUE)
 8006fc6:	f7ff f9eb 	bl	80063a0 <HAL_GetTick>
 8006fca:	4602      	mov	r2, r0
 8006fcc:	693b      	ldr	r3, [r7, #16]
 8006fce:	1ad3      	subs	r3, r2, r3
 8006fd0:	2b64      	cmp	r3, #100	@ 0x64
 8006fd2:	d901      	bls.n	8006fd8 <HAL_RCC_OscConfig+0x2f0>
        {
          return HAL_TIMEOUT;
 8006fd4:	2303      	movs	r3, #3
 8006fd6:	e103      	b.n	80071e0 <HAL_RCC_OscConfig+0x4f8>
      while (HAL_IS_BIT_CLR(PWR->CR, PWR_CR_DBP))
 8006fd8:	4b75      	ldr	r3, [pc, #468]	@ (80071b0 <HAL_RCC_OscConfig+0x4c8>)
 8006fda:	681b      	ldr	r3, [r3, #0]
 8006fdc:	f403 7380 	and.w	r3, r3, #256	@ 0x100
 8006fe0:	2b00      	cmp	r3, #0
 8006fe2:	d0f0      	beq.n	8006fc6 <HAL_RCC_OscConfig+0x2de>
        }
      }
    }

    /* Set the new LSE configuration -----------------------------------------*/
    __HAL_RCC_LSE_CONFIG(RCC_OscInitStruct->LSEState);
 8006fe4:	687b      	ldr	r3, [r7, #4]
 8006fe6:	68db      	ldr	r3, [r3, #12]
 8006fe8:	2b01      	cmp	r3, #1
 8006fea:	d106      	bne.n	8006ffa <HAL_RCC_OscConfig+0x312>
 8006fec:	4b6f      	ldr	r3, [pc, #444]	@ (80071ac <HAL_RCC_OscConfig+0x4c4>)
 8006fee:	6a1b      	ldr	r3, [r3, #32]
 8006ff0:	4a6e      	ldr	r2, [pc, #440]	@ (80071ac <HAL_RCC_OscConfig+0x4c4>)
 8006ff2:	f043 0301 	orr.w	r3, r3, #1
 8006ff6:	6213      	str	r3, [r2, #32]
 8006ff8:	e02d      	b.n	8007056 <HAL_RCC_OscConfig+0x36e>
 8006ffa:	687b      	ldr	r3, [r7, #4]
 8006ffc:	68db      	ldr	r3, [r3, #12]
 8006ffe:	2b00      	cmp	r3, #0
 8007000:	d10c      	bne.n	800701c <HAL_RCC_OscConfig+0x334>
 8007002:	4b6a      	ldr	r3, [pc, #424]	@ (80071ac <HAL_RCC_OscConfig+0x4c4>)
 8007004:	6a1b      	ldr	r3, [r3, #32]
 8007006:	4a69      	ldr	r2, [pc, #420]	@ (80071ac <HAL_RCC_OscConfig+0x4c4>)
 8007008:	f023 0301 	bic.w	r3, r3, #1
 800700c:	6213      	str	r3, [r2, #32]
 800700e:	4b67      	ldr	r3, [pc, #412]	@ (80071ac <HAL_RCC_OscConfig+0x4c4>)
 8007010:	6a1b      	ldr	r3, [r3, #32]
 8007012:	4a66      	ldr	r2, [pc, #408]	@ (80071ac <HAL_RCC_OscConfig+0x4c4>)
 8007014:	f023 0304 	bic.w	r3, r3, #4
 8007018:	6213      	str	r3, [r2, #32]
 800701a:	e01c      	b.n	8007056 <HAL_RCC_OscConfig+0x36e>
 800701c:	687b      	ldr	r3, [r7, #4]
 800701e:	68db      	ldr	r3, [r3, #12]
 8007020:	2b05      	cmp	r3, #5
 8007022:	d10c      	bne.n	800703e <HAL_RCC_OscConfig+0x356>
 8007024:	4b61      	ldr	r3, [pc, #388]	@ (80071ac <HAL_RCC_OscConfig+0x4c4>)
 8007026:	6a1b      	ldr	r3, [r3, #32]
 8007028:	4a60      	ldr	r2, [pc, #384]	@ (80071ac <HAL_RCC_OscConfig+0x4c4>)
 800702a:	f043 0304 	orr.w	r3, r3, #4
 800702e:	6213      	str	r3, [r2, #32]
 8007030:	4b5e      	ldr	r3, [pc, #376]	@ (80071ac <HAL_RCC_OscConfig+0x4c4>)
 8007032:	6a1b      	ldr	r3, [r3, #32]
 8007034:	4a5d      	ldr	r2, [pc, #372]	@ (80071ac <HAL_RCC_OscConfig+0x4c4>)
 8007036:	f043 0301 	orr.w	r3, r3, #1
 800703a:	6213      	str	r3, [r2, #32]
 800703c:	e00b      	b.n	8007056 <HAL_RCC_OscConfig+0x36e>
 800703e:	4b5b      	ldr	r3, [pc, #364]	@ (80071ac <HAL_RCC_OscConfig+0x4c4>)
 8007040:	6a1b      	ldr	r3, [r3, #32]
 8007042:	4a5a      	ldr	r2, [pc, #360]	@ (80071ac <HAL_RCC_OscConfig+0x4c4>)
 8007044:	f023 0301 	bic.w	r3, r3, #1
 8007048:	6213      	str	r3, [r2, #32]
 800704a:	4b58      	ldr	r3, [pc, #352]	@ (80071ac <HAL_RCC_OscConfig+0x4c4>)
 800704c:	6a1b      	ldr	r3, [r3, #32]
 800704e:	4a57      	ldr	r2, [pc, #348]	@ (80071ac <HAL_RCC_OscConfig+0x4c4>)
 8007050:	f023 0304 	bic.w	r3, r3, #4
 8007054:	6213      	str	r3, [r2, #32]
    /* Check the LSE State */
    if (RCC_OscInitStruct->LSEState != RCC_LSE_OFF)
 8007056:	687b      	ldr	r3, [r7, #4]
 8007058:	68db      	ldr	r3, [r3, #12]
 800705a:	2b00      	cmp	r3, #0
 800705c:	d015      	beq.n	800708a <HAL_RCC_OscConfig+0x3a2>
    {
      /* Get Start Tick */
      tickstart = HAL_GetTick();
 800705e:	f7ff f99f 	bl	80063a0 <HAL_GetTick>
 8007062:	6138      	str	r0, [r7, #16]

      /* Wait till LSE is ready */
      while (__HAL_RCC_GET_FLAG(RCC_FLAG_LSERDY) == RESET)
 8007064:	e00a      	b.n	800707c <HAL_RCC_OscConfig+0x394>
      {
        if ((HAL_GetTick() - tickstart) > RCC_LSE_TIMEOUT_VALUE)
 8007066:	f7ff f99b 	bl	80063a0 <HAL_GetTick>
 800706a:	4602      	mov	r2, r0
 800706c:	693b      	ldr	r3, [r7, #16]
 800706e:	1ad3      	subs	r3, r2, r3
 8007070:	f241 3288 	movw	r2, #5000	@ 0x1388
 8007074:	4293      	cmp	r3, r2
 8007076:	d901      	bls.n	800707c <HAL_RCC_OscConfig+0x394>
        {
          return HAL_TIMEOUT;
 8007078:	2303      	movs	r3, #3
 800707a:	e0b1      	b.n	80071e0 <HAL_RCC_OscConfig+0x4f8>
      while (__HAL_RCC_GET_FLAG(RCC_FLAG_LSERDY) == RESET)
 800707c:	4b4b      	ldr	r3, [pc, #300]	@ (80071ac <HAL_RCC_OscConfig+0x4c4>)
 800707e:	6a1b      	ldr	r3, [r3, #32]
 8007080:	f003 0302 	and.w	r3, r3, #2
 8007084:	2b00      	cmp	r3, #0
 8007086:	d0ee      	beq.n	8007066 <HAL_RCC_OscConfig+0x37e>
 8007088:	e014      	b.n	80070b4 <HAL_RCC_OscConfig+0x3cc>
      }
    }
    else
    {
      /* Get Start Tick */
      tickstart = HAL_GetTick();
 800708a:	f7ff f989 	bl	80063a0 <HAL_GetTick>
 800708e:	6138      	str	r0, [r7, #16]

      /* Wait till LSE is disabled */
      while (__HAL_RCC_GET_FLAG(RCC_FLAG_LSERDY) != RESET)
 8007090:	e00a      	b.n	80070a8 <HAL_RCC_OscConfig+0x3c0>
      {
        if ((HAL_GetTick() - tickstart) > RCC_LSE_TIMEOUT_VALUE)
 8007092:	f7ff f985 	bl	80063a0 <HAL_GetTick>
 8007096:	4602      	mov	r2, r0
 8007098:	693b      	ldr	r3, [r7, #16]
 800709a:	1ad3      	subs	r3, r2, r3
 800709c:	f241 3288 	movw	r2, #5000	@ 0x1388
 80070a0:	4293      	cmp	r3, r2
 80070a2:	d901      	bls.n	80070a8 <HAL_RCC_OscConfig+0x3c0>
        {
          return HAL_TIMEOUT;
 80070a4:	2303      	movs	r3, #3
 80070a6:	e09b      	b.n	80071e0 <HAL_RCC_OscConfig+0x4f8>
      while (__HAL_RCC_GET_FLAG(RCC_FLAG_LSERDY) != RESET)
 80070a8:	4b40      	ldr	r3, [pc, #256]	@ (80071ac <HAL_RCC_OscConfig+0x4c4>)
 80070aa:	6a1b      	ldr	r3, [r3, #32]
 80070ac:	f003 0302 	and.w	r3, r3, #2
 80070b0:	2b00      	cmp	r3, #0
 80070b2:	d1ee      	bne.n	8007092 <HAL_RCC_OscConfig+0x3aa>
        }
      }
    }

    /* Require to disable power clock if necessary */
    if (pwrclkchanged == SET)
 80070b4:	7dfb      	ldrb	r3, [r7, #23]
 80070b6:	2b01      	cmp	r3, #1
 80070b8:	d105      	bne.n	80070c6 <HAL_RCC_OscConfig+0x3de>
    {
      __HAL_RCC_PWR_CLK_DISABLE();
 80070ba:	4b3c      	ldr	r3, [pc, #240]	@ (80071ac <HAL_RCC_OscConfig+0x4c4>)
 80070bc:	69db      	ldr	r3, [r3, #28]
 80070be:	4a3b      	ldr	r2, [pc, #236]	@ (80071ac <HAL_RCC_OscConfig+0x4c4>)
 80070c0:	f023 5380 	bic.w	r3, r3, #268435456	@ 0x10000000
 80070c4:	61d3      	str	r3, [r2, #28]

#endif /* RCC_CR_PLL2ON */
  /*-------------------------------- PLL Configuration -----------------------*/
  /* Check the parameters */
  assert_param(IS_RCC_PLL(RCC_OscInitStruct->PLL.PLLState));
  if ((RCC_OscInitStruct->PLL.PLLState) != RCC_PLL_NONE)
 80070c6:	687b      	ldr	r3, [r7, #4]
 80070c8:	69db      	ldr	r3, [r3, #28]
 80070ca:	2b00      	cmp	r3, #0
 80070cc:	f000 8087 	beq.w	80071de <HAL_RCC_OscConfig+0x4f6>
  {
    /* Check if the PLL is used as system clock or not */
    if (__HAL_RCC_GET_SYSCLK_SOURCE() != RCC_SYSCLKSOURCE_STATUS_PLLCLK)
 80070d0:	4b36      	ldr	r3, [pc, #216]	@ (80071ac <HAL_RCC_OscConfig+0x4c4>)
 80070d2:	685b      	ldr	r3, [r3, #4]
 80070d4:	f003 030c 	and.w	r3, r3, #12
 80070d8:	2b08      	cmp	r3, #8
 80070da:	d061      	beq.n	80071a0 <HAL_RCC_OscConfig+0x4b8>
    {
      if ((RCC_OscInitStruct->PLL.PLLState) == RCC_PLL_ON)
 80070dc:	687b      	ldr	r3, [r7, #4]
 80070de:	69db      	ldr	r3, [r3, #28]
 80070e0:	2b02      	cmp	r3, #2
 80070e2:	d146      	bne.n	8007172 <HAL_RCC_OscConfig+0x48a>
        /* Check the parameters */
        assert_param(IS_RCC_PLLSOURCE(RCC_OscInitStruct->PLL.PLLSource));
        assert_param(IS_RCC_PLL_MUL(RCC_OscInitStruct->PLL.PLLMUL));

        /* Disable the main PLL. */
        __HAL_RCC_PLL_DISABLE();
 80070e4:	4b33      	ldr	r3, [pc, #204]	@ (80071b4 <HAL_RCC_OscConfig+0x4cc>)
 80070e6:	2200      	movs	r2, #0
 80070e8:	601a      	str	r2, [r3, #0]

        /* Get Start Tick */
        tickstart = HAL_GetTick();
 80070ea:	f7ff f959 	bl	80063a0 <HAL_GetTick>
 80070ee:	6138      	str	r0, [r7, #16]

        /* Wait till PLL is disabled */
        while (__HAL_RCC_GET_FLAG(RCC_FLAG_PLLRDY)  != RESET)
 80070f0:	e008      	b.n	8007104 <HAL_RCC_OscConfig+0x41c>
        {
          if ((HAL_GetTick() - tickstart) > PLL_TIMEOUT_VALUE)
 80070f2:	f7ff f955 	bl	80063a0 <HAL_GetTick>
 80070f6:	4602      	mov	r2, r0
 80070f8:	693b      	ldr	r3, [r7, #16]
 80070fa:	1ad3      	subs	r3, r2, r3
 80070fc:	2b02      	cmp	r3, #2
 80070fe:	d901      	bls.n	8007104 <HAL_RCC_OscConfig+0x41c>
          {
            return HAL_TIMEOUT;
 8007100:	2303      	movs	r3, #3
 8007102:	e06d      	b.n	80071e0 <HAL_RCC_OscConfig+0x4f8>
        while (__HAL_RCC_GET_FLAG(RCC_FLAG_PLLRDY)  != RESET)
 8007104:	4b29      	ldr	r3, [pc, #164]	@ (80071ac <HAL_RCC_OscConfig+0x4c4>)
 8007106:	681b      	ldr	r3, [r3, #0]
 8007108:	f003 7300 	and.w	r3, r3, #33554432	@ 0x2000000
 800710c:	2b00      	cmp	r3, #0
 800710e:	d1f0      	bne.n	80070f2 <HAL_RCC_OscConfig+0x40a>
          }
        }

        /* Configure the HSE prediv factor --------------------------------*/
        /* It can be written only when the PLL is disabled. Not used in PLL source is different than HSE */
        if (RCC_OscInitStruct->PLL.PLLSource == RCC_PLLSOURCE_HSE)
 8007110:	687b      	ldr	r3, [r7, #4]
 8007112:	6a1b      	ldr	r3, [r3, #32]
 8007114:	f5b3 3f80 	cmp.w	r3, #65536	@ 0x10000
 8007118:	d108      	bne.n	800712c <HAL_RCC_OscConfig+0x444>
          /* Set PREDIV1 source */
          SET_BIT(RCC->CFGR2, RCC_OscInitStruct->Prediv1Source);
#endif /* RCC_CFGR2_PREDIV1SRC */

          /* Set PREDIV1 Value */
          __HAL_RCC_HSE_PREDIV_CONFIG(RCC_OscInitStruct->HSEPredivValue);
 800711a:	4b24      	ldr	r3, [pc, #144]	@ (80071ac <HAL_RCC_OscConfig+0x4c4>)
 800711c:	685b      	ldr	r3, [r3, #4]
 800711e:	f423 3200 	bic.w	r2, r3, #131072	@ 0x20000
 8007122:	687b      	ldr	r3, [r7, #4]
 8007124:	689b      	ldr	r3, [r3, #8]
 8007126:	4921      	ldr	r1, [pc, #132]	@ (80071ac <HAL_RCC_OscConfig+0x4c4>)
 8007128:	4313      	orrs	r3, r2
 800712a:	604b      	str	r3, [r1, #4]
        }

        /* Configure the main PLL clock source and multiplication factors. */
        __HAL_RCC_PLL_CONFIG(RCC_OscInitStruct->PLL.PLLSource,
 800712c:	4b1f      	ldr	r3, [pc, #124]	@ (80071ac <HAL_RCC_OscConfig+0x4c4>)
 800712e:	685b      	ldr	r3, [r3, #4]
 8007130:	f423 1274 	bic.w	r2, r3, #3997696	@ 0x3d0000
 8007134:	687b      	ldr	r3, [r7, #4]
 8007136:	6a19      	ldr	r1, [r3, #32]
 8007138:	687b      	ldr	r3, [r7, #4]
 800713a:	6a5b      	ldr	r3, [r3, #36]	@ 0x24
 800713c:	430b      	orrs	r3, r1
 800713e:	491b      	ldr	r1, [pc, #108]	@ (80071ac <HAL_RCC_OscConfig+0x4c4>)
 8007140:	4313      	orrs	r3, r2
 8007142:	604b      	str	r3, [r1, #4]
                             RCC_OscInitStruct->PLL.PLLMUL);
        /* Enable the main PLL. */
        __HAL_RCC_PLL_ENABLE();
 8007144:	4b1b      	ldr	r3, [pc, #108]	@ (80071b4 <HAL_RCC_OscConfig+0x4cc>)
 8007146:	2201      	movs	r2, #1
 8007148:	601a      	str	r2, [r3, #0]

        /* Get Start Tick */
        tickstart = HAL_GetTick();
 800714a:	f7ff f929 	bl	80063a0 <HAL_GetTick>
 800714e:	6138      	str	r0, [r7, #16]

        /* Wait till PLL is ready */
        while (__HAL_RCC_GET_FLAG(RCC_FLAG_PLLRDY)  == RESET)
 8007150:	e008      	b.n	8007164 <HAL_RCC_OscConfig+0x47c>
        {
          if ((HAL_GetTick() - tickstart) > PLL_TIMEOUT_VALUE)
 8007152:	f7ff f925 	bl	80063a0 <HAL_GetTick>
 8007156:	4602      	mov	r2, r0
 8007158:	693b      	ldr	r3, [r7, #16]
 800715a:	1ad3      	subs	r3, r2, r3
 800715c:	2b02      	cmp	r3, #2
 800715e:	d901      	bls.n	8007164 <HAL_RCC_OscConfig+0x47c>
          {
            return HAL_TIMEOUT;
 8007160:	2303      	movs	r3, #3
 8007162:	e03d      	b.n	80071e0 <HAL_RCC_OscConfig+0x4f8>
        while (__HAL_RCC_GET_FLAG(RCC_FLAG_PLLRDY)  == RESET)
 8007164:	4b11      	ldr	r3, [pc, #68]	@ (80071ac <HAL_RCC_OscConfig+0x4c4>)
 8007166:	681b      	ldr	r3, [r3, #0]
 8007168:	f003 7300 	and.w	r3, r3, #33554432	@ 0x2000000
 800716c:	2b00      	cmp	r3, #0
 800716e:	d0f0      	beq.n	8007152 <HAL_RCC_OscConfig+0x46a>
 8007170:	e035      	b.n	80071de <HAL_RCC_OscConfig+0x4f6>
        }
      }
      else
      {
        /* Disable the main PLL. */
        __HAL_RCC_PLL_DISABLE();
 8007172:	4b10      	ldr	r3, [pc, #64]	@ (80071b4 <HAL_RCC_OscConfig+0x4cc>)
 8007174:	2200      	movs	r2, #0
 8007176:	601a      	str	r2, [r3, #0]

        /* Get Start Tick */
        tickstart = HAL_GetTick();
 8007178:	f7ff f912 	bl	80063a0 <HAL_GetTick>
 800717c:	6138      	str	r0, [r7, #16]

        /* Wait till PLL is disabled */
        while (__HAL_RCC_GET_FLAG(RCC_FLAG_PLLRDY)  != RESET)
 800717e:	e008      	b.n	8007192 <HAL_RCC_OscConfig+0x4aa>
        {
          if ((HAL_GetTick() - tickstart) > PLL_TIMEOUT_VALUE)
 8007180:	f7ff f90e 	bl	80063a0 <HAL_GetTick>
 8007184:	4602      	mov	r2, r0
 8007186:	693b      	ldr	r3, [r7, #16]
 8007188:	1ad3      	subs	r3, r2, r3
 800718a:	2b02      	cmp	r3, #2
 800718c:	d901      	bls.n	8007192 <HAL_RCC_OscConfig+0x4aa>
          {
            return HAL_TIMEOUT;
 800718e:	2303      	movs	r3, #3
 8007190:	e026      	b.n	80071e0 <HAL_RCC_OscConfig+0x4f8>
        while (__HAL_RCC_GET_FLAG(RCC_FLAG_PLLRDY)  != RESET)
 8007192:	4b06      	ldr	r3, [pc, #24]	@ (80071ac <HAL_RCC_OscConfig+0x4c4>)
 8007194:	681b      	ldr	r3, [r3, #0]
 8007196:	f003 7300 	and.w	r3, r3, #33554432	@ 0x2000000
 800719a:	2b00      	cmp	r3, #0
 800719c:	d1f0      	bne.n	8007180 <HAL_RCC_OscConfig+0x498>
 800719e:	e01e      	b.n	80071de <HAL_RCC_OscConfig+0x4f6>
      }
    }
    else
    {
      /* Check if there is a request to disable the PLL used as System clock source */
      if ((RCC_OscInitStruct->PLL.PLLState) == RCC_PLL_OFF)
 80071a0:	687b      	ldr	r3, [r7, #4]
 80071a2:	69db      	ldr	r3, [r3, #28]
 80071a4:	2b01      	cmp	r3, #1
 80071a6:	d107      	bne.n	80071b8 <HAL_RCC_OscConfig+0x4d0>
      {
        return HAL_ERROR;
 80071a8:	2301      	movs	r3, #1
 80071aa:	e019      	b.n	80071e0 <HAL_RCC_OscConfig+0x4f8>
 80071ac:	40021000 	.word	0x40021000
 80071b0:	40007000 	.word	0x40007000
 80071b4:	42420060 	.word	0x42420060
      }
      else
      {
        /* Do not return HAL_ERROR if request repeats the current configuration */
        pll_config = RCC->CFGR;
 80071b8:	4b0b      	ldr	r3, [pc, #44]	@ (80071e8 <HAL_RCC_OscConfig+0x500>)
 80071ba:	685b      	ldr	r3, [r3, #4]
 80071bc:	60fb      	str	r3, [r7, #12]
        if ((READ_BIT(pll_config, RCC_CFGR_PLLSRC) != RCC_OscInitStruct->PLL.PLLSource) ||
 80071be:	68fb      	ldr	r3, [r7, #12]
 80071c0:	f403 3280 	and.w	r2, r3, #65536	@ 0x10000
 80071c4:	687b      	ldr	r3, [r7, #4]
 80071c6:	6a1b      	ldr	r3, [r3, #32]
 80071c8:	429a      	cmp	r2, r3
 80071ca:	d106      	bne.n	80071da <HAL_RCC_OscConfig+0x4f2>
            (READ_BIT(pll_config, RCC_CFGR_PLLMULL) != RCC_OscInitStruct->PLL.PLLMUL))
 80071cc:	68fb      	ldr	r3, [r7, #12]
 80071ce:	f403 1270 	and.w	r2, r3, #3932160	@ 0x3c0000
 80071d2:	687b      	ldr	r3, [r7, #4]
 80071d4:	6a5b      	ldr	r3, [r3, #36]	@ 0x24
        if ((READ_BIT(pll_config, RCC_CFGR_PLLSRC) != RCC_OscInitStruct->PLL.PLLSource) ||
 80071d6:	429a      	cmp	r2, r3
 80071d8:	d001      	beq.n	80071de <HAL_RCC_OscConfig+0x4f6>
        {
          return HAL_ERROR;
 80071da:	2301      	movs	r3, #1
 80071dc:	e000      	b.n	80071e0 <HAL_RCC_OscConfig+0x4f8>
        }
      }
    }
  }

  return HAL_OK;
 80071de:	2300      	movs	r3, #0
}
 80071e0:	4618      	mov	r0, r3
 80071e2:	3718      	adds	r7, #24
 80071e4:	46bd      	mov	sp, r7
 80071e6:	bd80      	pop	{r7, pc}
 80071e8:	40021000 	.word	0x40021000

080071ec <HAL_RCC_ClockConfig>:
  *         You can use @ref HAL_RCC_GetClockConfig() function to know which clock is
  *         currently used as system clock source.
  * @retval HAL status
  */
HAL_StatusTypeDef HAL_RCC_ClockConfig(RCC_ClkInitTypeDef  *RCC_ClkInitStruct, uint32_t FLatency)
{
 80071ec:	b580      	push	{r7, lr}
 80071ee:	b084      	sub	sp, #16
 80071f0:	af00      	add	r7, sp, #0
 80071f2:	6078      	str	r0, [r7, #4]
 80071f4:	6039      	str	r1, [r7, #0]
  uint32_t tickstart;

  /* Check Null pointer */
  if (RCC_ClkInitStruct == NULL)
 80071f6:	687b      	ldr	r3, [r7, #4]
 80071f8:	2b00      	cmp	r3, #0
 80071fa:	d101      	bne.n	8007200 <HAL_RCC_ClockConfig+0x14>
  {
    return HAL_ERROR;
 80071fc:	2301      	movs	r3, #1
 80071fe:	e0d0      	b.n	80073a2 <HAL_RCC_ClockConfig+0x1b6>
  must be correctly programmed according to the frequency of the CPU clock
    (HCLK) of the device. */

#if defined(FLASH_ACR_LATENCY)
  /* Increasing the number of wait states because of higher CPU frequency */
  if (FLatency > __HAL_FLASH_GET_LATENCY())
 8007200:	4b6a      	ldr	r3, [pc, #424]	@ (80073ac <HAL_RCC_ClockConfig+0x1c0>)
 8007202:	681b      	ldr	r3, [r3, #0]
 8007204:	f003 0307 	and.w	r3, r3, #7
 8007208:	683a      	ldr	r2, [r7, #0]
 800720a:	429a      	cmp	r2, r3
 800720c:	d910      	bls.n	8007230 <HAL_RCC_ClockConfig+0x44>
  {
    /* Program the new number of wait states to the LATENCY bits in the FLASH_ACR register */
    __HAL_FLASH_SET_LATENCY(FLatency);
 800720e:	4b67      	ldr	r3, [pc, #412]	@ (80073ac <HAL_RCC_ClockConfig+0x1c0>)
 8007210:	681b      	ldr	r3, [r3, #0]
 8007212:	f023 0207 	bic.w	r2, r3, #7
 8007216:	4965      	ldr	r1, [pc, #404]	@ (80073ac <HAL_RCC_ClockConfig+0x1c0>)
 8007218:	683b      	ldr	r3, [r7, #0]
 800721a:	4313      	orrs	r3, r2
 800721c:	600b      	str	r3, [r1, #0]

    /* Check that the new number of wait states is taken into account to access the Flash
    memory by reading the FLASH_ACR register */
    if (__HAL_FLASH_GET_LATENCY() != FLatency)
 800721e:	4b63      	ldr	r3, [pc, #396]	@ (80073ac <HAL_RCC_ClockConfig+0x1c0>)
 8007220:	681b      	ldr	r3, [r3, #0]
 8007222:	f003 0307 	and.w	r3, r3, #7
 8007226:	683a      	ldr	r2, [r7, #0]
 8007228:	429a      	cmp	r2, r3
 800722a:	d001      	beq.n	8007230 <HAL_RCC_ClockConfig+0x44>
  {
    return HAL_ERROR;
 800722c:	2301      	movs	r3, #1
 800722e:	e0b8      	b.n	80073a2 <HAL_RCC_ClockConfig+0x1b6>
  }
}

#endif /* FLASH_ACR_LATENCY */
/*-------------------------- HCLK Configuration --------------------------*/
if (((RCC_ClkInitStruct->ClockType) & RCC_CLOCKTYPE_HCLK) == RCC_CLOCKTYPE_HCLK)
 8007230:	687b      	ldr	r3, [r7, #4]
 8007232:	681b      	ldr	r3, [r3, #0]
 8007234:	f003 0302 	and.w	r3, r3, #2
 8007238:	2b00      	cmp	r3, #0
 800723a:	d020      	beq.n	800727e <HAL_RCC_ClockConfig+0x92>
  {
    /* Set the highest APBx dividers in order to ensure that we do not go through
    a non-spec phase whatever we decrease or increase HCLK. */
    if (((RCC_ClkInitStruct->ClockType) & RCC_CLOCKTYPE_PCLK1) == RCC_CLOCKTYPE_PCLK1)
 800723c:	687b      	ldr	r3, [r7, #4]
 800723e:	681b      	ldr	r3, [r3, #0]
 8007240:	f003 0304 	and.w	r3, r3, #4
 8007244:	2b00      	cmp	r3, #0
 8007246:	d005      	beq.n	8007254 <HAL_RCC_ClockConfig+0x68>
    {
      MODIFY_REG(RCC->CFGR, RCC_CFGR_PPRE1, RCC_HCLK_DIV16);
 8007248:	4b59      	ldr	r3, [pc, #356]	@ (80073b0 <HAL_RCC_ClockConfig+0x1c4>)
 800724a:	685b      	ldr	r3, [r3, #4]
 800724c:	4a58      	ldr	r2, [pc, #352]	@ (80073b0 <HAL_RCC_ClockConfig+0x1c4>)
 800724e:	f443 63e0 	orr.w	r3, r3, #1792	@ 0x700
 8007252:	6053      	str	r3, [r2, #4]
    }

    if (((RCC_ClkInitStruct->ClockType) & RCC_CLOCKTYPE_PCLK2) == RCC_CLOCKTYPE_PCLK2)
 8007254:	687b      	ldr	r3, [r7, #4]
 8007256:	681b      	ldr	r3, [r3, #0]
 8007258:	f003 0308 	and.w	r3, r3, #8
 800725c:	2b00      	cmp	r3, #0
 800725e:	d005      	beq.n	800726c <HAL_RCC_ClockConfig+0x80>
    {
      MODIFY_REG(RCC->CFGR, RCC_CFGR_PPRE2, (RCC_HCLK_DIV16 << 3));
 8007260:	4b53      	ldr	r3, [pc, #332]	@ (80073b0 <HAL_RCC_ClockConfig+0x1c4>)
 8007262:	685b      	ldr	r3, [r3, #4]
 8007264:	4a52      	ldr	r2, [pc, #328]	@ (80073b0 <HAL_RCC_ClockConfig+0x1c4>)
 8007266:	f443 5360 	orr.w	r3, r3, #14336	@ 0x3800
 800726a:	6053      	str	r3, [r2, #4]
    }

    /* Set the new HCLK clock divider */
    assert_param(IS_RCC_HCLK(RCC_ClkInitStruct->AHBCLKDivider));
    MODIFY_REG(RCC->CFGR, RCC_CFGR_HPRE, RCC_ClkInitStruct->AHBCLKDivider);
 800726c:	4b50      	ldr	r3, [pc, #320]	@ (80073b0 <HAL_RCC_ClockConfig+0x1c4>)
 800726e:	685b      	ldr	r3, [r3, #4]
 8007270:	f023 02f0 	bic.w	r2, r3, #240	@ 0xf0
 8007274:	687b      	ldr	r3, [r7, #4]
 8007276:	689b      	ldr	r3, [r3, #8]
 8007278:	494d      	ldr	r1, [pc, #308]	@ (80073b0 <HAL_RCC_ClockConfig+0x1c4>)
 800727a:	4313      	orrs	r3, r2
 800727c:	604b      	str	r3, [r1, #4]
  }

  /*------------------------- SYSCLK Configuration ---------------------------*/
  if (((RCC_ClkInitStruct->ClockType) & RCC_CLOCKTYPE_SYSCLK) == RCC_CLOCKTYPE_SYSCLK)
 800727e:	687b      	ldr	r3, [r7, #4]
 8007280:	681b      	ldr	r3, [r3, #0]
 8007282:	f003 0301 	and.w	r3, r3, #1
 8007286:	2b00      	cmp	r3, #0
 8007288:	d040      	beq.n	800730c <HAL_RCC_ClockConfig+0x120>
  {
    assert_param(IS_RCC_SYSCLKSOURCE(RCC_ClkInitStruct->SYSCLKSource));

    /* HSE is selected as System Clock Source */
    if (RCC_ClkInitStruct->SYSCLKSource == RCC_SYSCLKSOURCE_HSE)
 800728a:	687b      	ldr	r3, [r7, #4]
 800728c:	685b      	ldr	r3, [r3, #4]
 800728e:	2b01      	cmp	r3, #1
 8007290:	d107      	bne.n	80072a2 <HAL_RCC_ClockConfig+0xb6>
    {
      /* Check the HSE ready flag */
      if (__HAL_RCC_GET_FLAG(RCC_FLAG_HSERDY) == RESET)
 8007292:	4b47      	ldr	r3, [pc, #284]	@ (80073b0 <HAL_RCC_ClockConfig+0x1c4>)
 8007294:	681b      	ldr	r3, [r3, #0]
 8007296:	f403 3300 	and.w	r3, r3, #131072	@ 0x20000
 800729a:	2b00      	cmp	r3, #0
 800729c:	d115      	bne.n	80072ca <HAL_RCC_ClockConfig+0xde>
      {
        return HAL_ERROR;
 800729e:	2301      	movs	r3, #1
 80072a0:	e07f      	b.n	80073a2 <HAL_RCC_ClockConfig+0x1b6>
      }
    }
    /* PLL is selected as System Clock Source */
    else if (RCC_ClkInitStruct->SYSCLKSource == RCC_SYSCLKSOURCE_PLLCLK)
 80072a2:	687b      	ldr	r3, [r7, #4]
 80072a4:	685b      	ldr	r3, [r3, #4]
 80072a6:	2b02      	cmp	r3, #2
 80072a8:	d107      	bne.n	80072ba <HAL_RCC_ClockConfig+0xce>
    {
      /* Check the PLL ready flag */
      if (__HAL_RCC_GET_FLAG(RCC_FLAG_PLLRDY) == RESET)
 80072aa:	4b41      	ldr	r3, [pc, #260]	@ (80073b0 <HAL_RCC_ClockConfig+0x1c4>)
 80072ac:	681b      	ldr	r3, [r3, #0]
 80072ae:	f003 7300 	and.w	r3, r3, #33554432	@ 0x2000000
 80072b2:	2b00      	cmp	r3, #0
 80072b4:	d109      	bne.n	80072ca <HAL_RCC_ClockConfig+0xde>
      {
        return HAL_ERROR;
 80072b6:	2301      	movs	r3, #1
 80072b8:	e073      	b.n	80073a2 <HAL_RCC_ClockConfig+0x1b6>
    }
    /* HSI is selected as System Clock Source */
    else
    {
      /* Check the HSI ready flag */
      if (__HAL_RCC_GET_FLAG(RCC_FLAG_HSIRDY) == RESET)
 80072ba:	4b3d      	ldr	r3, [pc, #244]	@ (80073b0 <HAL_RCC_ClockConfig+0x1c4>)
 80072bc:	681b      	ldr	r3, [r3, #0]
 80072be:	f003 0302 	and.w	r3, r3, #2
 80072c2:	2b00      	cmp	r3, #0
 80072c4:	d101      	bne.n	80072ca <HAL_RCC_ClockConfig+0xde>
      {
        return HAL_ERROR;
 80072c6:	2301      	movs	r3, #1
 80072c8:	e06b      	b.n	80073a2 <HAL_RCC_ClockConfig+0x1b6>
      }
    }
    __HAL_RCC_SYSCLK_CONFIG(RCC_ClkInitStruct->SYSCLKSource);
 80072ca:	4b39      	ldr	r3, [pc, #228]	@ (80073b0 <HAL_RCC_ClockConfig+0x1c4>)
 80072cc:	685b      	ldr	r3, [r3, #4]
 80072ce:	f023 0203 	bic.w	r2, r3, #3
 80072d2:	687b      	ldr	r3, [r7, #4]
 80072d4:	685b      	ldr	r3, [r3, #4]
 80072d6:	4936      	ldr	r1, [pc, #216]	@ (80073b0 <HAL_RCC_ClockConfig+0x1c4>)
 80072d8:	4313      	orrs	r3, r2
 80072da:	604b      	str	r3, [r1, #4]

    /* Get Start Tick */
    tickstart = HAL_GetTick();
 80072dc:	f7ff f860 	bl	80063a0 <HAL_GetTick>
 80072e0:	60f8      	str	r0, [r7, #12]

    while (__HAL_RCC_GET_SYSCLK_SOURCE() != (RCC_ClkInitStruct->SYSCLKSource << RCC_CFGR_SWS_Pos))
 80072e2:	e00a      	b.n	80072fa <HAL_RCC_ClockConfig+0x10e>
    {
      if ((HAL_GetTick() - tickstart) > CLOCKSWITCH_TIMEOUT_VALUE)
 80072e4:	f7ff f85c 	bl	80063a0 <HAL_GetTick>
 80072e8:	4602      	mov	r2, r0
 80072ea:	68fb      	ldr	r3, [r7, #12]
 80072ec:	1ad3      	subs	r3, r2, r3
 80072ee:	f241 3288 	movw	r2, #5000	@ 0x1388
 80072f2:	4293      	cmp	r3, r2
 80072f4:	d901      	bls.n	80072fa <HAL_RCC_ClockConfig+0x10e>
      {
        return HAL_TIMEOUT;
 80072f6:	2303      	movs	r3, #3
 80072f8:	e053      	b.n	80073a2 <HAL_RCC_ClockConfig+0x1b6>
    while (__HAL_RCC_GET_SYSCLK_SOURCE() != (RCC_ClkInitStruct->SYSCLKSource << RCC_CFGR_SWS_Pos))
 80072fa:	4b2d      	ldr	r3, [pc, #180]	@ (80073b0 <HAL_RCC_ClockConfig+0x1c4>)
 80072fc:	685b      	ldr	r3, [r3, #4]
 80072fe:	f003 020c 	and.w	r2, r3, #12
 8007302:	687b      	ldr	r3, [r7, #4]
 8007304:	685b      	ldr	r3, [r3, #4]
 8007306:	009b      	lsls	r3, r3, #2
 8007308:	429a      	cmp	r2, r3
 800730a:	d1eb      	bne.n	80072e4 <HAL_RCC_ClockConfig+0xf8>
    }
  }

#if defined(FLASH_ACR_LATENCY)
  /* Decreasing the number of wait states because of lower CPU frequency */
  if (FLatency < __HAL_FLASH_GET_LATENCY())
 800730c:	4b27      	ldr	r3, [pc, #156]	@ (80073ac <HAL_RCC_ClockConfig+0x1c0>)
 800730e:	681b      	ldr	r3, [r3, #0]
 8007310:	f003 0307 	and.w	r3, r3, #7
 8007314:	683a      	ldr	r2, [r7, #0]
 8007316:	429a      	cmp	r2, r3
 8007318:	d210      	bcs.n	800733c <HAL_RCC_ClockConfig+0x150>
  {
    /* Program the new number of wait states to the LATENCY bits in the FLASH_ACR register */
    __HAL_FLASH_SET_LATENCY(FLatency);
 800731a:	4b24      	ldr	r3, [pc, #144]	@ (80073ac <HAL_RCC_ClockConfig+0x1c0>)
 800731c:	681b      	ldr	r3, [r3, #0]
 800731e:	f023 0207 	bic.w	r2, r3, #7
 8007322:	4922      	ldr	r1, [pc, #136]	@ (80073ac <HAL_RCC_ClockConfig+0x1c0>)
 8007324:	683b      	ldr	r3, [r7, #0]
 8007326:	4313      	orrs	r3, r2
 8007328:	600b      	str	r3, [r1, #0]

    /* Check that the new number of wait states is taken into account to access the Flash
    memory by reading the FLASH_ACR register */
    if (__HAL_FLASH_GET_LATENCY() != FLatency)
 800732a:	4b20      	ldr	r3, [pc, #128]	@ (80073ac <HAL_RCC_ClockConfig+0x1c0>)
 800732c:	681b      	ldr	r3, [r3, #0]
 800732e:	f003 0307 	and.w	r3, r3, #7
 8007332:	683a      	ldr	r2, [r7, #0]
 8007334:	429a      	cmp	r2, r3
 8007336:	d001      	beq.n	800733c <HAL_RCC_ClockConfig+0x150>
  {
    return HAL_ERROR;
 8007338:	2301      	movs	r3, #1
 800733a:	e032      	b.n	80073a2 <HAL_RCC_ClockConfig+0x1b6>
  }
}
#endif /* FLASH_ACR_LATENCY */

/*-------------------------- PCLK1 Configuration ---------------------------*/
if (((RCC_ClkInitStruct->ClockType) & RCC_CLOCKTYPE_PCLK1) == RCC_CLOCKTYPE_PCLK1)
 800733c:	687b      	ldr	r3, [r7, #4]
 800733e:	681b      	ldr	r3, [r3, #0]
 8007340:	f003 0304 	and.w	r3, r3, #4
 8007344:	2b00      	cmp	r3, #0
 8007346:	d008      	beq.n	800735a <HAL_RCC_ClockConfig+0x16e>
  {
    assert_param(IS_RCC_PCLK(RCC_ClkInitStruct->APB1CLKDivider));
    MODIFY_REG(RCC->CFGR, RCC_CFGR_PPRE1, RCC_ClkInitStruct->APB1CLKDivider);
 8007348:	4b19      	ldr	r3, [pc, #100]	@ (80073b0 <HAL_RCC_ClockConfig+0x1c4>)
 800734a:	685b      	ldr	r3, [r3, #4]
 800734c:	f423 62e0 	bic.w	r2, r3, #1792	@ 0x700
 8007350:	687b      	ldr	r3, [r7, #4]
 8007352:	68db      	ldr	r3, [r3, #12]
 8007354:	4916      	ldr	r1, [pc, #88]	@ (80073b0 <HAL_RCC_ClockConfig+0x1c4>)
 8007356:	4313      	orrs	r3, r2
 8007358:	604b      	str	r3, [r1, #4]
  }

  /*-------------------------- PCLK2 Configuration ---------------------------*/
  if (((RCC_ClkInitStruct->ClockType) & RCC_CLOCKTYPE_PCLK2) == RCC_CLOCKTYPE_PCLK2)
 800735a:	687b      	ldr	r3, [r7, #4]
 800735c:	681b      	ldr	r3, [r3, #0]
 800735e:	f003 0308 	and.w	r3, r3, #8
 8007362:	2b00      	cmp	r3, #0
 8007364:	d009      	beq.n	800737a <HAL_RCC_ClockConfig+0x18e>
  {
    assert_param(IS_RCC_PCLK(RCC_ClkInitStruct->APB2CLKDivider));
    MODIFY_REG(RCC->CFGR, RCC_CFGR_PPRE2, ((RCC_ClkInitStruct->APB2CLKDivider) << 3));
 8007366:	4b12      	ldr	r3, [pc, #72]	@ (80073b0 <HAL_RCC_ClockConfig+0x1c4>)
 8007368:	685b      	ldr	r3, [r3, #4]
 800736a:	f423 5260 	bic.w	r2, r3, #14336	@ 0x3800
 800736e:	687b      	ldr	r3, [r7, #4]
 8007370:	691b      	ldr	r3, [r3, #16]
 8007372:	00db      	lsls	r3, r3, #3
 8007374:	490e      	ldr	r1, [pc, #56]	@ (80073b0 <HAL_RCC_ClockConfig+0x1c4>)
 8007376:	4313      	orrs	r3, r2
 8007378:	604b      	str	r3, [r1, #4]
  }

  /* Update the SystemCoreClock global variable */
  SystemCoreClock = HAL_RCC_GetSysClockFreq() >> AHBPrescTable[(RCC->CFGR & RCC_CFGR_HPRE) >> RCC_CFGR_HPRE_Pos];
 800737a:	f000 f821 	bl	80073c0 <HAL_RCC_GetSysClockFreq>
 800737e:	4602      	mov	r2, r0
 8007380:	4b0b      	ldr	r3, [pc, #44]	@ (80073b0 <HAL_RCC_ClockConfig+0x1c4>)
 8007382:	685b      	ldr	r3, [r3, #4]
 8007384:	091b      	lsrs	r3, r3, #4
 8007386:	f003 030f 	and.w	r3, r3, #15
 800738a:	490a      	ldr	r1, [pc, #40]	@ (80073b4 <HAL_RCC_ClockConfig+0x1c8>)
 800738c:	5ccb      	ldrb	r3, [r1, r3]
 800738e:	fa22 f303 	lsr.w	r3, r2, r3
 8007392:	4a09      	ldr	r2, [pc, #36]	@ (80073b8 <HAL_RCC_ClockConfig+0x1cc>)
 8007394:	6013      	str	r3, [r2, #0]

  /* Configure the source of time base considering new system clocks settings*/
  HAL_InitTick(uwTickPrio);
 8007396:	4b09      	ldr	r3, [pc, #36]	@ (80073bc <HAL_RCC_ClockConfig+0x1d0>)
 8007398:	681b      	ldr	r3, [r3, #0]
 800739a:	4618      	mov	r0, r3
 800739c:	f7fe ffbe 	bl	800631c <HAL_InitTick>

  return HAL_OK;
 80073a0:	2300      	movs	r3, #0
}
 80073a2:	4618      	mov	r0, r3
 80073a4:	3710      	adds	r7, #16
 80073a6:	46bd      	mov	sp, r7
 80073a8:	bd80      	pop	{r7, pc}
 80073aa:	bf00      	nop
 80073ac:	40022000 	.word	0x40022000
 80073b0:	40021000 	.word	0x40021000
 80073b4:	08007788 	.word	0x08007788
 80073b8:	20000000 	.word	0x20000000
 80073bc:	20000038 	.word	0x20000038

080073c0 <HAL_RCC_GetSysClockFreq>:
  *         right SYSCLK value. Otherwise, any configuration based on this function will be incorrect.
  *
  * @retval SYSCLK frequency
  */
uint32_t HAL_RCC_GetSysClockFreq(void)
{
 80073c0:	b480      	push	{r7}
 80073c2:	b087      	sub	sp, #28
 80073c4:	af00      	add	r7, sp, #0
#else
  static const uint8_t aPredivFactorTable[2U] = {1, 2};
#endif /*RCC_CFGR2_PREDIV1*/

#endif
  uint32_t tmpreg = 0U, prediv = 0U, pllclk = 0U, pllmul = 0U;
 80073c6:	2300      	movs	r3, #0
 80073c8:	60fb      	str	r3, [r7, #12]
 80073ca:	2300      	movs	r3, #0
 80073cc:	60bb      	str	r3, [r7, #8]
 80073ce:	2300      	movs	r3, #0
 80073d0:	617b      	str	r3, [r7, #20]
 80073d2:	2300      	movs	r3, #0
 80073d4:	607b      	str	r3, [r7, #4]
  uint32_t sysclockfreq = 0U;
 80073d6:	2300      	movs	r3, #0
 80073d8:	613b      	str	r3, [r7, #16]
#if defined(RCC_CFGR2_PREDIV1SRC)
  uint32_t prediv2 = 0U, pll2mul = 0U;
#endif /*RCC_CFGR2_PREDIV1SRC*/

  tmpreg = RCC->CFGR;
 80073da:	4b1e      	ldr	r3, [pc, #120]	@ (8007454 <HAL_RCC_GetSysClockFreq+0x94>)
 80073dc:	685b      	ldr	r3, [r3, #4]
 80073de:	60fb      	str	r3, [r7, #12]

  /* Get SYSCLK source -------------------------------------------------------*/
  switch (tmpreg & RCC_CFGR_SWS)
 80073e0:	68fb      	ldr	r3, [r7, #12]
 80073e2:	f003 030c 	and.w	r3, r3, #12
 80073e6:	2b04      	cmp	r3, #4
 80073e8:	d002      	beq.n	80073f0 <HAL_RCC_GetSysClockFreq+0x30>
 80073ea:	2b08      	cmp	r3, #8
 80073ec:	d003      	beq.n	80073f6 <HAL_RCC_GetSysClockFreq+0x36>
 80073ee:	e027      	b.n	8007440 <HAL_RCC_GetSysClockFreq+0x80>
  {
    case RCC_SYSCLKSOURCE_STATUS_HSE:  /* HSE used as system clock */
    {
      sysclockfreq = HSE_VALUE;
 80073f0:	4b19      	ldr	r3, [pc, #100]	@ (8007458 <HAL_RCC_GetSysClockFreq+0x98>)
 80073f2:	613b      	str	r3, [r7, #16]
      break;
 80073f4:	e027      	b.n	8007446 <HAL_RCC_GetSysClockFreq+0x86>
    }
    case RCC_SYSCLKSOURCE_STATUS_PLLCLK:  /* PLL used as system clock */
    {
      pllmul = aPLLMULFactorTable[(uint32_t)(tmpreg & RCC_CFGR_PLLMULL) >> RCC_CFGR_PLLMULL_Pos];
 80073f6:	68fb      	ldr	r3, [r7, #12]
 80073f8:	0c9b      	lsrs	r3, r3, #18
 80073fa:	f003 030f 	and.w	r3, r3, #15
 80073fe:	4a17      	ldr	r2, [pc, #92]	@ (800745c <HAL_RCC_GetSysClockFreq+0x9c>)
 8007400:	5cd3      	ldrb	r3, [r2, r3]
 8007402:	607b      	str	r3, [r7, #4]
      if ((tmpreg & RCC_CFGR_PLLSRC) != RCC_PLLSOURCE_HSI_DIV2)
 8007404:	68fb      	ldr	r3, [r7, #12]
 8007406:	f403 3380 	and.w	r3, r3, #65536	@ 0x10000
 800740a:	2b00      	cmp	r3, #0
 800740c:	d010      	beq.n	8007430 <HAL_RCC_GetSysClockFreq+0x70>
      {
#if defined(RCC_CFGR2_PREDIV1)
        prediv = aPredivFactorTable[(uint32_t)(RCC->CFGR2 & RCC_CFGR2_PREDIV1) >> RCC_CFGR2_PREDIV1_Pos];
#else
        prediv = aPredivFactorTable[(uint32_t)(RCC->CFGR & RCC_CFGR_PLLXTPRE) >> RCC_CFGR_PLLXTPRE_Pos];
 800740e:	4b11      	ldr	r3, [pc, #68]	@ (8007454 <HAL_RCC_GetSysClockFreq+0x94>)
 8007410:	685b      	ldr	r3, [r3, #4]
 8007412:	0c5b      	lsrs	r3, r3, #17
 8007414:	f003 0301 	and.w	r3, r3, #1
 8007418:	4a11      	ldr	r2, [pc, #68]	@ (8007460 <HAL_RCC_GetSysClockFreq+0xa0>)
 800741a:	5cd3      	ldrb	r3, [r2, r3]
 800741c:	60bb      	str	r3, [r7, #8]
        {
          pllclk = pllclk / 2;
        }
#else
        /* HSE used as PLL clock source : PLLCLK = HSE/PREDIV1 * PLLMUL */
        pllclk = (uint32_t)((HSE_VALUE  * pllmul) / prediv);
 800741e:	687b      	ldr	r3, [r7, #4]
 8007420:	4a0d      	ldr	r2, [pc, #52]	@ (8007458 <HAL_RCC_GetSysClockFreq+0x98>)
 8007422:	fb03 f202 	mul.w	r2, r3, r2
 8007426:	68bb      	ldr	r3, [r7, #8]
 8007428:	fbb2 f3f3 	udiv	r3, r2, r3
 800742c:	617b      	str	r3, [r7, #20]
 800742e:	e004      	b.n	800743a <HAL_RCC_GetSysClockFreq+0x7a>
#endif /*RCC_CFGR2_PREDIV1SRC*/
      }
      else
      {
        /* HSI used as PLL clock source : PLLCLK = HSI/2 * PLLMUL */
        pllclk = (uint32_t)((HSI_VALUE >> 1) * pllmul);
 8007430:	687b      	ldr	r3, [r7, #4]
 8007432:	4a0c      	ldr	r2, [pc, #48]	@ (8007464 <HAL_RCC_GetSysClockFreq+0xa4>)
 8007434:	fb02 f303 	mul.w	r3, r2, r3
 8007438:	617b      	str	r3, [r7, #20]
      }
      sysclockfreq = pllclk;
 800743a:	697b      	ldr	r3, [r7, #20]
 800743c:	613b      	str	r3, [r7, #16]
      break;
 800743e:	e002      	b.n	8007446 <HAL_RCC_GetSysClockFreq+0x86>
    }
    case RCC_SYSCLKSOURCE_STATUS_HSI:  /* HSI used as system clock source */
    default: /* HSI used as system clock */
    {
      sysclockfreq = HSI_VALUE;
 8007440:	4b09      	ldr	r3, [pc, #36]	@ (8007468 <HAL_RCC_GetSysClockFreq+0xa8>)
 8007442:	613b      	str	r3, [r7, #16]
      break;
 8007444:	bf00      	nop
    }
  }
  return sysclockfreq;
 8007446:	693b      	ldr	r3, [r7, #16]
}
 8007448:	4618      	mov	r0, r3
 800744a:	371c      	adds	r7, #28
 800744c:	46bd      	mov	sp, r7
 800744e:	bc80      	pop	{r7}
 8007450:	4770      	bx	lr
 8007452:	bf00      	nop
 8007454:	40021000 	.word	0x40021000
 8007458:	00f42400 	.word	0x00f42400
 800745c:	08007824 	.word	0x08007824
 8007460:	08007834 	.word	0x08007834
 8007464:	003d0900 	.word	0x003d0900
 8007468:	007a1200 	.word	0x007a1200

0800746c <RCC_Delay>:
  * @brief  This function provides delay (in milliseconds) based on CPU cycles method.
  * @param  mdelay: specifies the delay time length, in milliseconds.
  * @retval None
  */
static void RCC_Delay(uint32_t mdelay)
{
 800746c:	b480      	push	{r7}
 800746e:	b085      	sub	sp, #20
 8007470:	af00      	add	r7, sp, #0
 8007472:	6078      	str	r0, [r7, #4]
  __IO uint32_t Delay = mdelay * (SystemCoreClock / 8U / 1000U);
 8007474:	4b0a      	ldr	r3, [pc, #40]	@ (80074a0 <RCC_Delay+0x34>)
 8007476:	681b      	ldr	r3, [r3, #0]
 8007478:	4a0a      	ldr	r2, [pc, #40]	@ (80074a4 <RCC_Delay+0x38>)
 800747a:	fba2 2303 	umull	r2, r3, r2, r3
 800747e:	0a5b      	lsrs	r3, r3, #9
 8007480:	687a      	ldr	r2, [r7, #4]
 8007482:	fb02 f303 	mul.w	r3, r2, r3
 8007486:	60fb      	str	r3, [r7, #12]
  do
  {
    __NOP();
 8007488:	bf00      	nop
  }
  while (Delay --);
 800748a:	68fb      	ldr	r3, [r7, #12]
 800748c:	1e5a      	subs	r2, r3, #1
 800748e:	60fa      	str	r2, [r7, #12]
 8007490:	2b00      	cmp	r3, #0
 8007492:	d1f9      	bne.n	8007488 <RCC_Delay+0x1c>
}
 8007494:	bf00      	nop
 8007496:	bf00      	nop
 8007498:	3714      	adds	r7, #20
 800749a:	46bd      	mov	sp, r7
 800749c:	bc80      	pop	{r7}
 800749e:	4770      	bx	lr
 80074a0:	20000000 	.word	0x20000000
 80074a4:	10624dd3 	.word	0x10624dd3

080074a8 <HAL_RCCEx_PeriphCLKConfig>:
  *         manually disable it.
  *
  * @retval HAL status
  */
HAL_StatusTypeDef HAL_RCCEx_PeriphCLKConfig(RCC_PeriphCLKInitTypeDef  *PeriphClkInit)
{
 80074a8:	b580      	push	{r7, lr}
 80074aa:	b086      	sub	sp, #24
 80074ac:	af00      	add	r7, sp, #0
 80074ae:	6078      	str	r0, [r7, #4]
  uint32_t tickstart = 0U, temp_reg = 0U;
 80074b0:	2300      	movs	r3, #0
 80074b2:	613b      	str	r3, [r7, #16]
 80074b4:	2300      	movs	r3, #0
 80074b6:	60fb      	str	r3, [r7, #12]

  /* Check the parameters */
  assert_param(IS_RCC_PERIPHCLOCK(PeriphClkInit->PeriphClockSelection));

  /*------------------------------- RTC/LCD Configuration ------------------------*/
  if ((((PeriphClkInit->PeriphClockSelection) & RCC_PERIPHCLK_RTC) == RCC_PERIPHCLK_RTC))
 80074b8:	687b      	ldr	r3, [r7, #4]
 80074ba:	681b      	ldr	r3, [r3, #0]
 80074bc:	f003 0301 	and.w	r3, r3, #1
 80074c0:	2b00      	cmp	r3, #0
 80074c2:	d07d      	beq.n	80075c0 <HAL_RCCEx_PeriphCLKConfig+0x118>
  {
    FlagStatus pwrclkchanged = RESET;
 80074c4:	2300      	movs	r3, #0
 80074c6:	75fb      	strb	r3, [r7, #23]
    assert_param(IS_RCC_RTCCLKSOURCE(PeriphClkInit->RTCClockSelection));

    /* As soon as function is called to change RTC clock source, activation of the
       power domain is done. */
    /* Requires to enable write access to Backup Domain of necessary */
    if (__HAL_RCC_PWR_IS_CLK_DISABLED())
 80074c8:	4b4f      	ldr	r3, [pc, #316]	@ (8007608 <HAL_RCCEx_PeriphCLKConfig+0x160>)
 80074ca:	69db      	ldr	r3, [r3, #28]
 80074cc:	f003 5380 	and.w	r3, r3, #268435456	@ 0x10000000
 80074d0:	2b00      	cmp	r3, #0
 80074d2:	d10d      	bne.n	80074f0 <HAL_RCCEx_PeriphCLKConfig+0x48>
    {
      __HAL_RCC_PWR_CLK_ENABLE();
 80074d4:	4b4c      	ldr	r3, [pc, #304]	@ (8007608 <HAL_RCCEx_PeriphCLKConfig+0x160>)
 80074d6:	69db      	ldr	r3, [r3, #28]
 80074d8:	4a4b      	ldr	r2, [pc, #300]	@ (8007608 <HAL_RCCEx_PeriphCLKConfig+0x160>)
 80074da:	f043 5380 	orr.w	r3, r3, #268435456	@ 0x10000000
 80074de:	61d3      	str	r3, [r2, #28]
 80074e0:	4b49      	ldr	r3, [pc, #292]	@ (8007608 <HAL_RCCEx_PeriphCLKConfig+0x160>)
 80074e2:	69db      	ldr	r3, [r3, #28]
 80074e4:	f003 5380 	and.w	r3, r3, #268435456	@ 0x10000000
 80074e8:	60bb      	str	r3, [r7, #8]
 80074ea:	68bb      	ldr	r3, [r7, #8]
      pwrclkchanged = SET;
 80074ec:	2301      	movs	r3, #1
 80074ee:	75fb      	strb	r3, [r7, #23]
    }

    if (HAL_IS_BIT_CLR(PWR->CR, PWR_CR_DBP))
 80074f0:	4b46      	ldr	r3, [pc, #280]	@ (800760c <HAL_RCCEx_PeriphCLKConfig+0x164>)
 80074f2:	681b      	ldr	r3, [r3, #0]
 80074f4:	f403 7380 	and.w	r3, r3, #256	@ 0x100
 80074f8:	2b00      	cmp	r3, #0
 80074fa:	d118      	bne.n	800752e <HAL_RCCEx_PeriphCLKConfig+0x86>
    {
      /* Enable write access to Backup domain */
      SET_BIT(PWR->CR, PWR_CR_DBP);
 80074fc:	4b43      	ldr	r3, [pc, #268]	@ (800760c <HAL_RCCEx_PeriphCLKConfig+0x164>)
 80074fe:	681b      	ldr	r3, [r3, #0]
 8007500:	4a42      	ldr	r2, [pc, #264]	@ (800760c <HAL_RCCEx_PeriphCLKConfig+0x164>)
 8007502:	f443 7380 	orr.w	r3, r3, #256	@ 0x100
 8007506:	6013      	str	r3, [r2, #0]

      /* Wait for Backup domain Write protection disable */
      tickstart = HAL_GetTick();
 8007508:	f7fe ff4a 	bl	80063a0 <HAL_GetTick>
 800750c:	6138      	str	r0, [r7, #16]

      while (HAL_IS_BIT_CLR(PWR->CR, PWR_CR_DBP))
 800750e:	e008      	b.n	8007522 <HAL_RCCEx_PeriphCLKConfig+0x7a>
      {
        if ((HAL_GetTick() - tickstart) > RCC_DBP_TIMEOUT_VALUE)
 8007510:	f7fe ff46 	bl	80063a0 <HAL_GetTick>
 8007514:	4602      	mov	r2, r0
 8007516:	693b      	ldr	r3, [r7, #16]
 8007518:	1ad3      	subs	r3, r2, r3
 800751a:	2b64      	cmp	r3, #100	@ 0x64
 800751c:	d901      	bls.n	8007522 <HAL_RCCEx_PeriphCLKConfig+0x7a>
        {
          return HAL_TIMEOUT;
 800751e:	2303      	movs	r3, #3
 8007520:	e06d      	b.n	80075fe <HAL_RCCEx_PeriphCLKConfig+0x156>
      while (HAL_IS_BIT_CLR(PWR->CR, PWR_CR_DBP))
 8007522:	4b3a      	ldr	r3, [pc, #232]	@ (800760c <HAL_RCCEx_PeriphCLKConfig+0x164>)
 8007524:	681b      	ldr	r3, [r3, #0]
 8007526:	f403 7380 	and.w	r3, r3, #256	@ 0x100
 800752a:	2b00      	cmp	r3, #0
 800752c:	d0f0      	beq.n	8007510 <HAL_RCCEx_PeriphCLKConfig+0x68>
        }
      }
    }

    /* Reset the Backup domain only if the RTC Clock source selection is modified from reset value */
    temp_reg = (RCC->BDCR & RCC_BDCR_RTCSEL);
 800752e:	4b36      	ldr	r3, [pc, #216]	@ (8007608 <HAL_RCCEx_PeriphCLKConfig+0x160>)
 8007530:	6a1b      	ldr	r3, [r3, #32]
 8007532:	f403 7340 	and.w	r3, r3, #768	@ 0x300
 8007536:	60fb      	str	r3, [r7, #12]
    if ((temp_reg != 0x00000000U) && (temp_reg != (PeriphClkInit->RTCClockSelection & RCC_BDCR_RTCSEL)))
 8007538:	68fb      	ldr	r3, [r7, #12]
 800753a:	2b00      	cmp	r3, #0
 800753c:	d02e      	beq.n	800759c <HAL_RCCEx_PeriphCLKConfig+0xf4>
 800753e:	687b      	ldr	r3, [r7, #4]
 8007540:	685b      	ldr	r3, [r3, #4]
 8007542:	f403 7340 	and.w	r3, r3, #768	@ 0x300
 8007546:	68fa      	ldr	r2, [r7, #12]
 8007548:	429a      	cmp	r2, r3
 800754a:	d027      	beq.n	800759c <HAL_RCCEx_PeriphCLKConfig+0xf4>
    {
      /* Store the content of BDCR register before the reset of Backup Domain */
      temp_reg = (RCC->BDCR & ~(RCC_BDCR_RTCSEL));
 800754c:	4b2e      	ldr	r3, [pc, #184]	@ (8007608 <HAL_RCCEx_PeriphCLKConfig+0x160>)
 800754e:	6a1b      	ldr	r3, [r3, #32]
 8007550:	f423 7340 	bic.w	r3, r3, #768	@ 0x300
 8007554:	60fb      	str	r3, [r7, #12]
      /* RTC Clock selection can be changed only if the Backup Domain is reset */
      __HAL_RCC_BACKUPRESET_FORCE();
 8007556:	4b2e      	ldr	r3, [pc, #184]	@ (8007610 <HAL_RCCEx_PeriphCLKConfig+0x168>)
 8007558:	2201      	movs	r2, #1
 800755a:	601a      	str	r2, [r3, #0]
      __HAL_RCC_BACKUPRESET_RELEASE();
 800755c:	4b2c      	ldr	r3, [pc, #176]	@ (8007610 <HAL_RCCEx_PeriphCLKConfig+0x168>)
 800755e:	2200      	movs	r2, #0
 8007560:	601a      	str	r2, [r3, #0]
      /* Restore the Content of BDCR register */
      RCC->BDCR = temp_reg;
 8007562:	4a29      	ldr	r2, [pc, #164]	@ (8007608 <HAL_RCCEx_PeriphCLKConfig+0x160>)
 8007564:	68fb      	ldr	r3, [r7, #12]
 8007566:	6213      	str	r3, [r2, #32]

      /* Wait for LSERDY if LSE was enabled */
      if (HAL_IS_BIT_SET(temp_reg, RCC_BDCR_LSEON))
 8007568:	68fb      	ldr	r3, [r7, #12]
 800756a:	f003 0301 	and.w	r3, r3, #1
 800756e:	2b00      	cmp	r3, #0
 8007570:	d014      	beq.n	800759c <HAL_RCCEx_PeriphCLKConfig+0xf4>
      {
        /* Get Start Tick */
        tickstart = HAL_GetTick();
 8007572:	f7fe ff15 	bl	80063a0 <HAL_GetTick>
 8007576:	6138      	str	r0, [r7, #16]

        /* Wait till LSE is ready */
        while (__HAL_RCC_GET_FLAG(RCC_FLAG_LSERDY) == RESET)
 8007578:	e00a      	b.n	8007590 <HAL_RCCEx_PeriphCLKConfig+0xe8>
        {
          if ((HAL_GetTick() - tickstart) > RCC_LSE_TIMEOUT_VALUE)
 800757a:	f7fe ff11 	bl	80063a0 <HAL_GetTick>
 800757e:	4602      	mov	r2, r0
 8007580:	693b      	ldr	r3, [r7, #16]
 8007582:	1ad3      	subs	r3, r2, r3
 8007584:	f241 3288 	movw	r2, #5000	@ 0x1388
 8007588:	4293      	cmp	r3, r2
 800758a:	d901      	bls.n	8007590 <HAL_RCCEx_PeriphCLKConfig+0xe8>
          {
            return HAL_TIMEOUT;
 800758c:	2303      	movs	r3, #3
 800758e:	e036      	b.n	80075fe <HAL_RCCEx_PeriphCLKConfig+0x156>
        while (__HAL_RCC_GET_FLAG(RCC_FLAG_LSERDY) == RESET)
 8007590:	4b1d      	ldr	r3, [pc, #116]	@ (8007608 <HAL_RCCEx_PeriphCLKConfig+0x160>)
 8007592:	6a1b      	ldr	r3, [r3, #32]
 8007594:	f003 0302 	and.w	r3, r3, #2
 8007598:	2b00      	cmp	r3, #0
 800759a:	d0ee      	beq.n	800757a <HAL_RCCEx_PeriphCLKConfig+0xd2>
          }
        }
      }
    }
    __HAL_RCC_RTC_CONFIG(PeriphClkInit->RTCClockSelection);
 800759c:	4b1a      	ldr	r3, [pc, #104]	@ (8007608 <HAL_RCCEx_PeriphCLKConfig+0x160>)
 800759e:	6a1b      	ldr	r3, [r3, #32]
 80075a0:	f423 7240 	bic.w	r2, r3, #768	@ 0x300
 80075a4:	687b      	ldr	r3, [r7, #4]
 80075a6:	685b      	ldr	r3, [r3, #4]
 80075a8:	4917      	ldr	r1, [pc, #92]	@ (8007608 <HAL_RCCEx_PeriphCLKConfig+0x160>)
 80075aa:	4313      	orrs	r3, r2
 80075ac:	620b      	str	r3, [r1, #32]

    /* Require to disable power clock if necessary */
    if (pwrclkchanged == SET)
 80075ae:	7dfb      	ldrb	r3, [r7, #23]
 80075b0:	2b01      	cmp	r3, #1
 80075b2:	d105      	bne.n	80075c0 <HAL_RCCEx_PeriphCLKConfig+0x118>
    {
      __HAL_RCC_PWR_CLK_DISABLE();
 80075b4:	4b14      	ldr	r3, [pc, #80]	@ (8007608 <HAL_RCCEx_PeriphCLKConfig+0x160>)
 80075b6:	69db      	ldr	r3, [r3, #28]
 80075b8:	4a13      	ldr	r2, [pc, #76]	@ (8007608 <HAL_RCCEx_PeriphCLKConfig+0x160>)
 80075ba:	f023 5380 	bic.w	r3, r3, #268435456	@ 0x10000000
 80075be:	61d3      	str	r3, [r2, #28]
    }
  }

  /*------------------------------ ADC clock Configuration ------------------*/
  if (((PeriphClkInit->PeriphClockSelection) & RCC_PERIPHCLK_ADC) == RCC_PERIPHCLK_ADC)
 80075c0:	687b      	ldr	r3, [r7, #4]
 80075c2:	681b      	ldr	r3, [r3, #0]
 80075c4:	f003 0302 	and.w	r3, r3, #2
 80075c8:	2b00      	cmp	r3, #0
 80075ca:	d008      	beq.n	80075de <HAL_RCCEx_PeriphCLKConfig+0x136>
  {
    /* Check the parameters */
    assert_param(IS_RCC_ADCPLLCLK_DIV(PeriphClkInit->AdcClockSelection));

    /* Configure the ADC clock source */
    __HAL_RCC_ADC_CONFIG(PeriphClkInit->AdcClockSelection);
 80075cc:	4b0e      	ldr	r3, [pc, #56]	@ (8007608 <HAL_RCCEx_PeriphCLKConfig+0x160>)
 80075ce:	685b      	ldr	r3, [r3, #4]
 80075d0:	f423 4240 	bic.w	r2, r3, #49152	@ 0xc000
 80075d4:	687b      	ldr	r3, [r7, #4]
 80075d6:	689b      	ldr	r3, [r3, #8]
 80075d8:	490b      	ldr	r1, [pc, #44]	@ (8007608 <HAL_RCCEx_PeriphCLKConfig+0x160>)
 80075da:	4313      	orrs	r3, r2
 80075dc:	604b      	str	r3, [r1, #4]

#if defined(STM32F102x6) || defined(STM32F102xB) || defined(STM32F103x6)\
 || defined(STM32F103xB) || defined(STM32F103xE) || defined(STM32F103xG)\
 || defined(STM32F105xC) || defined(STM32F107xC)
  /*------------------------------ USB clock Configuration ------------------*/
  if (((PeriphClkInit->PeriphClockSelection) & RCC_PERIPHCLK_USB) == RCC_PERIPHCLK_USB)
 80075de:	687b      	ldr	r3, [r7, #4]
 80075e0:	681b      	ldr	r3, [r3, #0]
 80075e2:	f003 0310 	and.w	r3, r3, #16
 80075e6:	2b00      	cmp	r3, #0
 80075e8:	d008      	beq.n	80075fc <HAL_RCCEx_PeriphCLKConfig+0x154>
  {
    /* Check the parameters */
    assert_param(IS_RCC_USBPLLCLK_DIV(PeriphClkInit->UsbClockSelection));

    /* Configure the USB clock source */
    __HAL_RCC_USB_CONFIG(PeriphClkInit->UsbClockSelection);
 80075ea:	4b07      	ldr	r3, [pc, #28]	@ (8007608 <HAL_RCCEx_PeriphCLKConfig+0x160>)
 80075ec:	685b      	ldr	r3, [r3, #4]
 80075ee:	f423 0280 	bic.w	r2, r3, #4194304	@ 0x400000
 80075f2:	687b      	ldr	r3, [r7, #4]
 80075f4:	68db      	ldr	r3, [r3, #12]
 80075f6:	4904      	ldr	r1, [pc, #16]	@ (8007608 <HAL_RCCEx_PeriphCLKConfig+0x160>)
 80075f8:	4313      	orrs	r3, r2
 80075fa:	604b      	str	r3, [r1, #4]
  }
#endif /* STM32F102x6 || STM32F102xB || STM32F103x6 || STM32F103xB || STM32F103xE || STM32F103xG || STM32F105xC || STM32F107xC */

  return HAL_OK;
 80075fc:	2300      	movs	r3, #0
}
 80075fe:	4618      	mov	r0, r3
 8007600:	3718      	adds	r7, #24
 8007602:	46bd      	mov	sp, r7
 8007604:	bd80      	pop	{r7, pc}
 8007606:	bf00      	nop
 8007608:	40021000 	.word	0x40021000
 800760c:	40007000 	.word	0x40007000
 8007610:	42420440 	.word	0x42420440

08007614 <USB_CoreInit>:
  * @param  cfg pointer to a USB_CfgTypeDef structure that contains
  *         the configuration information for the specified USBx peripheral.
  * @retval HAL status
  */
HAL_StatusTypeDef USB_CoreInit(USB_TypeDef *USBx, USB_CfgTypeDef cfg)
{
 8007614:	b480      	push	{r7}
 8007616:	b085      	sub	sp, #20
 8007618:	af00      	add	r7, sp, #0
 800761a:	60f8      	str	r0, [r7, #12]
 800761c:	4638      	mov	r0, r7
 800761e:	e880 000e 	stmia.w	r0, {r1, r2, r3}
  /* NOTE : - This function is not required by USB Device FS peripheral, it is used
              only by USB OTG FS peripheral.
            - This function is added to ensure compatibility across platforms.
   */

  return HAL_OK;
 8007622:	2300      	movs	r3, #0
}
 8007624:	4618      	mov	r0, r3
 8007626:	3714      	adds	r7, #20
 8007628:	46bd      	mov	sp, r7
 800762a:	bc80      	pop	{r7}
 800762c:	4770      	bx	lr

0800762e <USB_DisableGlobalInt>:
  *         Disable the controller's Global Int in the AHB Config reg
  * @param  USBx Selected device
  * @retval HAL status
  */
HAL_StatusTypeDef USB_DisableGlobalInt(USB_TypeDef *USBx)
{
 800762e:	b480      	push	{r7}
 8007630:	b085      	sub	sp, #20
 8007632:	af00      	add	r7, sp, #0
 8007634:	6078      	str	r0, [r7, #4]
  uint32_t winterruptmask;

  /* Set winterruptmask variable */
  winterruptmask = USB_CNTR_CTRM  | USB_CNTR_WKUPM |
 8007636:	f44f 433f 	mov.w	r3, #48896	@ 0xbf00
 800763a:	60fb      	str	r3, [r7, #12]
                   USB_CNTR_SUSPM | USB_CNTR_ERRM |
                   USB_CNTR_SOFM | USB_CNTR_ESOFM |
                   USB_CNTR_RESETM;

  /* Clear interrupt mask */
  USBx->CNTR &= (uint16_t)(~winterruptmask);
 800763c:	687b      	ldr	r3, [r7, #4]
 800763e:	f8b3 3040 	ldrh.w	r3, [r3, #64]	@ 0x40
 8007642:	b29a      	uxth	r2, r3
 8007644:	68fb      	ldr	r3, [r7, #12]
 8007646:	b29b      	uxth	r3, r3
 8007648:	43db      	mvns	r3, r3
 800764a:	b29b      	uxth	r3, r3
 800764c:	4013      	ands	r3, r2
 800764e:	b29a      	uxth	r2, r3
 8007650:	687b      	ldr	r3, [r7, #4]
 8007652:	f8a3 2040 	strh.w	r2, [r3, #64]	@ 0x40

  return HAL_OK;
 8007656:	2300      	movs	r3, #0
}
 8007658:	4618      	mov	r0, r3
 800765a:	3714      	adds	r7, #20
 800765c:	46bd      	mov	sp, r7
 800765e:	bc80      	pop	{r7}
 8007660:	4770      	bx	lr

08007662 <USB_SetCurrentMode>:
  *          This parameter can be one of the these values:
  *            @arg USB_DEVICE_MODE Peripheral mode
  * @retval HAL status
  */
HAL_StatusTypeDef USB_SetCurrentMode(USB_TypeDef *USBx, USB_ModeTypeDef mode)
{
 8007662:	b480      	push	{r7}
 8007664:	b083      	sub	sp, #12
 8007666:	af00      	add	r7, sp, #0
 8007668:	6078      	str	r0, [r7, #4]
 800766a:	460b      	mov	r3, r1
 800766c:	70fb      	strb	r3, [r7, #3]

  /* NOTE : - This function is not required by USB Device FS peripheral, it is used
              only by USB OTG FS peripheral.
            - This function is added to ensure compatibility across platforms.
   */
  return HAL_OK;
 800766e:	2300      	movs	r3, #0
}
 8007670:	4618      	mov	r0, r3
 8007672:	370c      	adds	r7, #12
 8007674:	46bd      	mov	sp, r7
 8007676:	bc80      	pop	{r7}
 8007678:	4770      	bx	lr

0800767a <USB_DevInit>:
  * @param  cfg  pointer to a USB_CfgTypeDef structure that contains
  *         the configuration information for the specified USBx peripheral.
  * @retval HAL status
  */
HAL_StatusTypeDef USB_DevInit(USB_TypeDef *USBx, USB_CfgTypeDef cfg)
{
 800767a:	b480      	push	{r7}
 800767c:	b085      	sub	sp, #20
 800767e:	af00      	add	r7, sp, #0
 8007680:	60f8      	str	r0, [r7, #12]
 8007682:	4638      	mov	r0, r7
 8007684:	e880 000e 	stmia.w	r0, {r1, r2, r3}
  /* Prevent unused argument(s) compilation warning */
  UNUSED(cfg);

  /* Init Device */
  /* CNTR_FRES = 1 */
  USBx->CNTR = (uint16_t)USB_CNTR_FRES;
 8007688:	68fb      	ldr	r3, [r7, #12]
 800768a:	2201      	movs	r2, #1
 800768c:	f8a3 2040 	strh.w	r2, [r3, #64]	@ 0x40

  /* CNTR_FRES = 0 */
  USBx->CNTR = 0U;
 8007690:	68fb      	ldr	r3, [r7, #12]
 8007692:	2200      	movs	r2, #0
 8007694:	f8a3 2040 	strh.w	r2, [r3, #64]	@ 0x40

  /* Clear pending interrupts */
  USBx->ISTR = 0U;
 8007698:	68fb      	ldr	r3, [r7, #12]
 800769a:	2200      	movs	r2, #0
 800769c:	f8a3 2044 	strh.w	r2, [r3, #68]	@ 0x44

  /*Set Btable Address*/
  USBx->BTABLE = BTABLE_ADDRESS;
 80076a0:	68fb      	ldr	r3, [r7, #12]
 80076a2:	2200      	movs	r2, #0
 80076a4:	f8a3 2050 	strh.w	r2, [r3, #80]	@ 0x50

  return HAL_OK;
 80076a8:	2300      	movs	r3, #0
}
 80076aa:	4618      	mov	r0, r3
 80076ac:	3714      	adds	r7, #20
 80076ae:	46bd      	mov	sp, r7
 80076b0:	bc80      	pop	{r7}
 80076b2:	4770      	bx	lr

080076b4 <USB_DevDisconnect>:
  * @brief  USB_DevDisconnect Disconnect the USB device by disabling the pull-up/pull-down
  * @param  USBx Selected device
  * @retval HAL status
  */
HAL_StatusTypeDef  USB_DevDisconnect(USB_TypeDef *USBx)
{
 80076b4:	b480      	push	{r7}
 80076b6:	b083      	sub	sp, #12
 80076b8:	af00      	add	r7, sp, #0
 80076ba:	6078      	str	r0, [r7, #4]
  /* NOTE : - This function is not required by USB Device FS peripheral, it is used
              only by USB OTG FS peripheral.
            - This function is added to ensure compatibility across platforms.
   */

  return HAL_OK;
 80076bc:	2300      	movs	r3, #0
}
 80076be:	4618      	mov	r0, r3
 80076c0:	370c      	adds	r7, #12
 80076c2:	46bd      	mov	sp, r7
 80076c4:	bc80      	pop	{r7}
 80076c6:	4770      	bx	lr

080076c8 <memset>:
 80076c8:	4603      	mov	r3, r0
 80076ca:	4402      	add	r2, r0
 80076cc:	4293      	cmp	r3, r2
 80076ce:	d100      	bne.n	80076d2 <memset+0xa>
 80076d0:	4770      	bx	lr
 80076d2:	f803 1b01 	strb.w	r1, [r3], #1
 80076d6:	e7f9      	b.n	80076cc <memset+0x4>

080076d8 <__libc_init_array>:
 80076d8:	b570      	push	{r4, r5, r6, lr}
 80076da:	2600      	movs	r6, #0
 80076dc:	4d0c      	ldr	r5, [pc, #48]	@ (8007710 <__libc_init_array+0x38>)
 80076de:	4c0d      	ldr	r4, [pc, #52]	@ (8007714 <__libc_init_array+0x3c>)
 80076e0:	1b64      	subs	r4, r4, r5
 80076e2:	10a4      	asrs	r4, r4, #2
 80076e4:	42a6      	cmp	r6, r4
 80076e6:	d109      	bne.n	80076fc <__libc_init_array+0x24>
 80076e8:	f000 f828 	bl	800773c <_init>
 80076ec:	2600      	movs	r6, #0
 80076ee:	4d0a      	ldr	r5, [pc, #40]	@ (8007718 <__libc_init_array+0x40>)
 80076f0:	4c0a      	ldr	r4, [pc, #40]	@ (800771c <__libc_init_array+0x44>)
 80076f2:	1b64      	subs	r4, r4, r5
 80076f4:	10a4      	asrs	r4, r4, #2
 80076f6:	42a6      	cmp	r6, r4
 80076f8:	d105      	bne.n	8007706 <__libc_init_array+0x2e>
 80076fa:	bd70      	pop	{r4, r5, r6, pc}
 80076fc:	f855 3b04 	ldr.w	r3, [r5], #4
 8007700:	4798      	blx	r3
 8007702:	3601      	adds	r6, #1
 8007704:	e7ee      	b.n	80076e4 <__libc_init_array+0xc>
 8007706:	f855 3b04 	ldr.w	r3, [r5], #4
 800770a:	4798      	blx	r3
 800770c:	3601      	adds	r6, #1
 800770e:	e7f2      	b.n	80076f6 <__libc_init_array+0x1e>
 8007710:	08007840 	.word	0x08007840
 8007714:	08007840 	.word	0x08007840
 8007718:	08007840 	.word	0x08007840
 800771c:	08007844 	.word	0x08007844

08007720 <memcpy>:
 8007720:	440a      	add	r2, r1
 8007722:	4291      	cmp	r1, r2
 8007724:	f100 33ff 	add.w	r3, r0, #4294967295
 8007728:	d100      	bne.n	800772c <memcpy+0xc>
 800772a:	4770      	bx	lr
 800772c:	b510      	push	{r4, lr}
 800772e:	f811 4b01 	ldrb.w	r4, [r1], #1
 8007732:	4291      	cmp	r1, r2
 8007734:	f803 4f01 	strb.w	r4, [r3, #1]!
 8007738:	d1f9      	bne.n	800772e <memcpy+0xe>
 800773a:	bd10      	pop	{r4, pc}

0800773c <_init>:
 800773c:	b5f8      	push	{r3, r4, r5, r6, r7, lr}
 800773e:	bf00      	nop
 8007740:	bcf8      	pop	{r3, r4, r5, r6, r7}
 8007742:	bc08      	pop	{r3}
 8007744:	469e      	mov	lr, r3
 8007746:	4770      	bx	lr

08007748 <_fini>:
 8007748:	b5f8      	push	{r3, r4, r5, r6, r7, lr}
 800774a:	bf00      	nop
 800774c:	bcf8      	pop	{r3, r4, r5, r6, r7}
 800774e:	bc08      	pop	{r3}
 8007750:	469e      	mov	lr, r3
 8007752:	4770      	bx	lr
